TN:
SF:/src/CppUnitTestDemo/OpenCppCoverageDemo/TestSource/TestSource.cpp
FN:4,SayHello
FN:13,add
FN:15,_Z41__static_initialization_and_destruction_0ii
FN:15,_GLOBAL__sub_I_TestSource.cpp
FNDA:1,SayHello
FNDA:2,add
FNDA:1,_GLOBAL__sub_I_TestSource.cpp
FNDA:1,_Z41__static_initialization_and_destruction_0ii
FNF:4
FNH:4
DA:4,1
DA:5,1
DA:6,1
DA:9,0
DA:11,1
DA:13,2
DA:14,2
DA:15,3
LF:8
LH:7
end_of_record
SF:/usr/local/include/c++/7.1.0/iostream
DA:74,1
LF:1
LH:1
end_of_record
TN:
SF:/src/CppUnitTestDemo/OpenCppCoverageDemo/GoogleTest/gtest_main.cc
FN:34,main
FN:38,_Z41__static_initialization_and_destruction_0ii
FN:38,_GLOBAL__sub_I_main
FNDA:1,main
FNDA:1,_GLOBAL__sub_I_main
FNDA:1,_Z41__static_initialization_and_destruction_0ii
FNF:3
FNH:3
DA:34,1
DA:35,1
DA:36,1
DA:37,1
DA:38,3
LF:5
LH:5
end_of_record
SF:/src/CppUnitTestDemo/OpenCppCoverageDemo/imports/googletest/googletest/include/gtest/gtest.h
FN:2232,_Z13RUN_ALL_TESTSv
FNDA:1,_Z13RUN_ALL_TESTSv
FNF:1
FNH:1
DA:2232,1
DA:2233,1
LF:2
LH:2
end_of_record
SF:/usr/local/include/c++/7.1.0/iostream
DA:74,1
LF:1
LH:1
end_of_record
TN:
SF:/src/CppUnitTestDemo/OpenCppCoverageDemo/imports/googletest/googletest/include/gtest/gtest-message.h
FN:85,_ZN7testing7MessageD2Ev
FN:96,_ZN7testing7MessageC2ERKS0_
FN:115,_ZN7testing7MessagelsIS0_EERS0_RKT_
FN:115,_ZN7testing7MessagelsIA30_cEERS0_RKT_
FN:115,_ZN7testing7MessagelsIA37_cEERS0_RKT_
FN:115,_ZN7testing7MessagelsINS_14TestPartResultEEERS0_RKT_
FN:115,_ZN7testing7MessagelsIA64_cEERS0_RKT_
FN:115,_ZN7testing7MessagelsIA28_cEERS0_RKT_
FN:115,_ZN7testing7MessagelsIdEERS0_RKT_
FN:115,_ZN7testing7MessagelsIA6_cEERS0_RKT_
FN:115,_ZN7testing7MessagelsIA35_cEERS0_RKT_
FN:115,_ZN7testing7MessagelsIA62_cEERS0_RKT_
FN:115,_ZN7testing7MessagelsIA25_cEERS0_RKT_
FN:115,_ZN7testing7MessagelsIA48_cEERS0_RKT_
FN:115,_ZN7testing7MessagelsIA9_cEERS0_RKT_
FN:115,_ZN7testing7MessagelsIA3_cEERS0_RKT_
FN:115,_ZN7testing7MessagelsIA24_cEERS0_RKT_
FN:115,_ZN7testing7MessagelsIA33_cEERS0_RKT_
FN:115,_ZN7testing7MessagelsIA34_cEERS0_RKT_
FN:115,_ZN7testing7MessagelsIA68_cEERS0_RKT_
FN:115,_ZN7testing7MessagelsIA4_cEERS0_RKT_
FN:115,_ZN7testing7MessagelsIA12_cEERS0_RKT_
FN:115,_ZN7testing7MessagelsIA2_cEERS0_RKT_
FN:115,_ZN7testing7MessagelsIA59_cEERS0_RKT_
FN:115,_ZN7testing7MessagelsIA8_cEERS0_RKT_
FN:115,_ZN7testing7MessagelsIcEERS0_RKT_
FN:115,_ZN7testing7MessagelsImEERS0_RKT_
FN:115,_ZN7testing7MessagelsIA14_cEERS0_RKT_
FN:115,_ZN7testing7MessagelsIA47_cEERS0_RKT_
FN:115,_ZN7testing7MessagelsIA22_cEERS0_RKT_
FN:115,_ZN7testing7MessagelsIA16_cEERS0_RKT_
FN:115,_ZN7testing7MessagelsIA19_cEERS0_RKT_
FN:115,_ZN7testing7MessagelsIiEERS0_RKT_
FN:115,_ZN7testing7MessagelsINSt7__cxx1112basic_stringIcSt11char_traitsIcESaIcEEEEERS0_RKT_
FN:115,_ZN7testing7MessagelsIA63_cEERS0_RKT_
FN:115,_ZN7testing7MessagelsIA5_cEERS0_RKT_
FN:115,_ZN7testing7MessagelsIA10_cEERS0_RKT_
FN:115,_ZN7testing7MessagelsIA15_cEERS0_RKT_
FN:115,_ZN7testing7MessagelsIA18_cEERS0_RKT_
FN:115,_ZN7testing7MessagelsIA31_cEERS0_RKT_
FN:115,_ZN7testing7MessagelsIA20_cEERS0_RKT_
FN:115,_ZN7testing7MessagelsIxEERS0_RKT_
FN:115,_ZN7testing7MessagelsIA39_cEERS0_RKT_
FN:115,_ZN7testing7MessagelsIA11_cEERS0_RKT_
FN:115,_ZN7testing7MessagelsIA40_cEERS0_RKT_
FN:115,_ZN7testing7MessagelsIA29_cEERS0_RKT_
FN:115,_ZN7testing7MessagelsIA256_cEERS0_RKT_
FN:115,_ZN7testing7MessagelsIA21_cEERS0_RKT_
FN:115,_ZN7testing7MessagelsIA50_cEERS0_RKT_
FN:115,_ZN7testing7MessagelsIA13_cEERS0_RKT_
FN:115,_ZN7testing7MessagelsIA7_cEERS0_RKT_
FN:115,_ZN7testing7MessagelsIA41_cEERS0_RKT_
FN:115,_ZN7testing7MessagelsIA51_cEERS0_RKT_
FN:115,_ZN7testing7MessagelsIA17_cEERS0_RKT_
FN:115,_ZN7testing7MessagelsIA52_cEERS0_RKT_
FN:115,_ZN7testing7MessagelsIA53_cEERS0_RKT_
FN:149,_ZN7testing7MessagelsIKcEERS0_RKPT_
FN:149,_ZN7testing7MessagelsIcEERS0_RKPT_
FN:232,_ZN7testinglsERSoRKNS_7MessageE
FN:243,_ZN7testing8internal18StreamableToStringIPwEENSt7__cxx1112basic_stringIcSt11char_traitsIcESaIcEEERKT_
FN:243,_ZN7testing8internal18StreamableToStringIiEENSt7__cxx1112basic_stringIcSt11char_traitsIcESaIcEEERKT_
FN:243,_ZN7testing8internal18StreamableToStringIPcEENSt7__cxx1112basic_stringIcSt11char_traitsIcESaIcEEERKT_
FN:243,_ZN7testing8internal18StreamableToStringIxEENSt7__cxx1112basic_stringIcSt11char_traitsIcESaIcEEERKT_
FNDA:0,_ZN7testing7MessageD2Ev
FNDA:0,_ZN7testing7MessageC2ERKS0_
FNDA:0,_ZN7testing7MessagelsIA29_cEERS0_RKT_
FNDA:0,_ZN7testing7MessagelsIdEERS0_RKT_
FNDA:0,_ZN7testing7MessagelsIA14_cEERS0_RKT_
FNDA:7,_ZN7testing7MessagelsIxEERS0_RKT_
FNDA:0,_ZN7testing7MessagelsIA34_cEERS0_RKT_
FNDA:0,_ZN7testing7MessagelsIA20_cEERS0_RKT_
FNDA:0,_ZN7testing7MessagelsIA50_cEERS0_RKT_
FNDA:0,_ZN7testing7MessagelsIS0_EERS0_RKT_
FNDA:0,_ZN7testing7MessagelsIA52_cEERS0_RKT_
FNDA:0,_ZN7testing7MessagelsIA51_cEERS0_RKT_
FNDA:0,_ZN7testing7MessagelsIA47_cEERS0_RKT_
FNDA:0,_ZN7testing7MessagelsIA28_cEERS0_RKT_
FNDA:0,_ZN7testing7MessagelsIA256_cEERS0_RKT_
FNDA:0,_ZN7testing7MessagelsImEERS0_RKT_
FNDA:0,_ZN7testing7MessagelsIA53_cEERS0_RKT_
FNDA:0,_ZN7testing7MessagelsIA25_cEERS0_RKT_
FNDA:0,_ZN7testing7MessagelsIA21_cEERS0_RKT_
FNDA:0,_ZN7testing7MessagelsIA35_cEERS0_RKT_
FNDA:0,_ZN7testing7MessagelsIA16_cEERS0_RKT_
FNDA:0,_ZN7testing7MessagelsIA48_cEERS0_RKT_
FNDA:0,_ZN7testing7MessagelsIA9_cEERS0_RKT_
FNDA:0,_ZN7testing7MessagelsIA19_cEERS0_RKT_
FNDA:0,_ZN7testing7MessagelsIA41_cEERS0_RKT_
FNDA:0,_ZN7testing7MessagelsIA8_cEERS0_RKT_
FNDA:0,_ZN7testing7MessagelsIA4_cEERS0_RKT_
FNDA:16,_ZN7testing7MessagelsIA7_cEERS0_RKT_
FNDA:0,_ZN7testing7MessagelsIA68_cEERS0_RKT_
FNDA:0,_ZN7testing7MessagelsIA37_cEERS0_RKT_
FNDA:0,_ZN7testing7MessagelsIA22_cEERS0_RKT_
FNDA:0,_ZN7testing7MessagelsIA33_cEERS0_RKT_
FNDA:0,_ZN7testing7MessagelsIA63_cEERS0_RKT_
FNDA:0,_ZN7testing7MessagelsIA31_cEERS0_RKT_
FNDA:0,_ZN7testing7MessagelsIA62_cEERS0_RKT_
FNDA:0,_ZN7testing7MessagelsIA39_cEERS0_RKT_
FNDA:0,_ZN7testing7MessagelsIA30_cEERS0_RKT_
FNDA:0,_ZN7testing7MessagelsIA6_cEERS0_RKT_
FNDA:0,_ZN7testing7MessagelsIA24_cEERS0_RKT_
FNDA:0,_ZN7testing7MessagelsIA59_cEERS0_RKT_
FNDA:0,_ZN7testing7MessagelsIA64_cEERS0_RKT_
FNDA:0,_ZN7testing7MessagelsIA40_cEERS0_RKT_
FNDA:0,_ZN7testing7MessagelsIA5_cEERS0_RKT_
FNDA:0,_ZN7testing7MessagelsIA3_cEERS0_RKT_
FNDA:0,_ZN7testing7MessagelsIA12_cEERS0_RKT_
FNDA:0,_ZN7testing7MessagelsIA13_cEERS0_RKT_
FNDA:0,_ZN7testing7MessagelsIA15_cEERS0_RKT_
FNDA:0,_ZN7testing7MessagelsIA18_cEERS0_RKT_
FNDA:0,_ZN7testing7MessagelsIA17_cEERS0_RKT_
FNDA:294,_ZN7testing7MessagelsIcEERS0_RKT_
FNDA:0,_ZN7testing7MessagelsINS_14TestPartResultEEERS0_RKT_
FNDA:0,_ZN7testing7MessagelsIA10_cEERS0_RKT_
FNDA:11,_ZN7testing7MessagelsIiEERS0_RKT_
FNDA:0,_ZN7testing7MessagelsIA2_cEERS0_RKT_
FNDA:0,_ZN7testing7MessagelsINSt7__cxx1112basic_stringIcSt11char_traitsIcESaIcEEEEERS0_RKT_
FNDA:0,_ZN7testing7MessagelsIA11_cEERS0_RKT_
FNDA:1,_ZN7testing7MessagelsIcEERS0_RKPT_
FNDA:16,_ZN7testing7MessagelsIKcEERS0_RKPT_
FNDA:0,_ZN7testinglsERSoRKNS_7MessageE
FNDA:0,_ZN7testing8internal18StreamableToStringIPwEENSt7__cxx1112basic_stringIcSt11char_traitsIcESaIcEEERKT_
FNDA:1,_ZN7testing8internal18StreamableToStringIPcEENSt7__cxx1112basic_stringIcSt11char_traitsIcESaIcEEERKT_
FNDA:7,_ZN7testing8internal18StreamableToStringIxEENSt7__cxx1112basic_stringIcSt11char_traitsIcESaIcEEERKT_
FNDA:11,_ZN7testing8internal18StreamableToStringIiEENSt7__cxx1112basic_stringIcSt11char_traitsIcESaIcEEERKT_
FNF:63
FNH:9
DA:85,0
DA:96,0
DA:97,0
DA:98,0
DA:115,328
DA:131,328
DA:132,328
DA:149,17
DA:150,17
DA:151,0
DA:153,17
DA:155,17
DA:232,0
DA:233,0
DA:243,19
DA:244,19
LF:16
LH:9
end_of_record
SF:/src/CppUnitTestDemo/OpenCppCoverageDemo/imports/googletest/googletest/include/gtest/gtest-printers.h
FN:222,_ZN16testing_internal26DefaultPrintNonContainerToIxEEvRKT_PSo
FN:275,_ZN7testing8internal19FormatForComparisonIxxE6FormatB5cxx11ERKx
FN:349,_ZN7testing8internal33FormatForComparisonFailureMessageIxxEENSt7__cxx1112basic_stringIcSt11char_traitsIcESaIcEEERKT_RKT0_
FN:436,_ZN7testing8internal14DefaultPrintToIxEEvcNS0_13bool_constantILb0EEERKT_PSo
FN:454,_ZN7testing8internal7PrintToIxEEvRKT_PSo
FN:565,_ZN7testing8internal7PrintToERKNSt7__cxx1112basic_stringIcSt11char_traitsIcESaIcEEEPSo
FN:579,_ZN7testing8internal7PrintToERKNSt7__cxx1112basic_stringIwSt11char_traitsIwESaIwEEEPSo
FN:698,_ZN7testing8internal16UniversalPrinterINSt7__cxx1112basic_stringIwSt11char_traitsIwESaIwEEEE5PrintERKS7_PSo
FN:698,_ZN7testing8internal16UniversalPrinterINSt7__cxx1112basic_stringIcSt11char_traitsIcESaIcEEEE5PrintERKS7_PSo
FN:698,_ZN7testing8internal16UniversalPrinterIxE5PrintERKxPSo
FN:783,_ZN7testing8internal21UniversalTersePrinterIxE5PrintERKxPSo
FN:804,_ZN7testing8internal21UniversalTersePrinterIPKcE5PrintES3_PSo
FN:824,_ZN7testing8internal21UniversalTersePrinterIPKwE5PrintES3_PSo
FN:852,_ZN7testing8internal14UniversalPrintINSt7__cxx1112basic_stringIcSt11char_traitsIcESaIcEEEEEvRKT_PSo
FN:852,_ZN7testing8internal14UniversalPrintINSt7__cxx1112basic_stringIwSt11char_traitsIwESaIwEEEEEvRKT_PSo
FN:852,_ZN7testing8internal14UniversalPrintIxEEvRKT_PSo
FN:980,_ZN7testing13PrintToStringIPKcEENSt7__cxx1112basic_stringIcSt11char_traitsIcESaIcEEERKT_
FN:980,_ZN7testing13PrintToStringIPKwEENSt7__cxx1112basic_stringIcSt11char_traitsIcESaIcEEERKT_
FN:980,_ZN7testing13PrintToStringIxEENSt7__cxx1112basic_stringIcSt11char_traitsIcESaIcEEERKT_
FNDA:0,_ZN16testing_internal26DefaultPrintNonContainerToIxEEvRKT_PSo
FNDA:0,_ZN7testing8internal19FormatForComparisonIxxE6FormatB5cxx11ERKx
FNDA:0,_ZN7testing8internal33FormatForComparisonFailureMessageIxxEENSt7__cxx1112basic_stringIcSt11char_traitsIcESaIcEEERKT_RKT0_
FNDA:0,_ZN7testing8internal14DefaultPrintToIxEEvcNS0_13bool_constantILb0EEERKT_PSo
FNDA:0,_ZN7testing8internal7PrintToIxEEvRKT_PSo
FNDA:0,_ZN7testing8internal7PrintToERKNSt7__cxx1112basic_stringIcSt11char_traitsIcESaIcEEEPSo
FNDA:0,_ZN7testing8internal7PrintToERKNSt7__cxx1112basic_stringIwSt11char_traitsIwESaIwEEEPSo
FNDA:0,_ZN7testing8internal16UniversalPrinterIxE5PrintERKxPSo
FNDA:0,_ZN7testing8internal16UniversalPrinterINSt7__cxx1112basic_stringIwSt11char_traitsIwESaIwEEEE5PrintERKS7_PSo
FNDA:0,_ZN7testing8internal16UniversalPrinterINSt7__cxx1112basic_stringIcSt11char_traitsIcESaIcEEEE5PrintERKS7_PSo
FNDA:0,_ZN7testing8internal21UniversalTersePrinterIxE5PrintERKxPSo
FNDA:0,_ZN7testing8internal21UniversalTersePrinterIPKcE5PrintES3_PSo
FNDA:0,_ZN7testing8internal21UniversalTersePrinterIPKwE5PrintES3_PSo
FNDA:0,_ZN7testing8internal14UniversalPrintIxEEvRKT_PSo
FNDA:0,_ZN7testing8internal14UniversalPrintINSt7__cxx1112basic_stringIwSt11char_traitsIwESaIwEEEEEvRKT_PSo
FNDA:0,_ZN7testing8internal14UniversalPrintINSt7__cxx1112basic_stringIcSt11char_traitsIcESaIcEEEEEvRKT_PSo
FNDA:0,_ZN7testing13PrintToStringIxEENSt7__cxx1112basic_stringIcSt11char_traitsIcESaIcEEERKT_
FNDA:0,_ZN7testing13PrintToStringIPKwEENSt7__cxx1112basic_stringIcSt11char_traitsIcESaIcEEERKT_
FNDA:0,_ZN7testing13PrintToStringIPKcEENSt7__cxx1112basic_stringIcSt11char_traitsIcESaIcEEERKT_
FNF:19
FNH:0
DA:222,0
DA:249,0
DA:250,0
DA:275,0
DA:276,0
DA:349,0
DA:351,0
DA:436,0
DA:439,0
DA:440,0
DA:454,0
DA:477,0
DA:478,0
DA:565,0
DA:566,0
DA:567,0
DA:579,0
DA:580,0
DA:581,0
DA:698,0
DA:707,0
DA:708,0
DA:783,0
DA:784,0
DA:785,0
DA:804,0
DA:805,0
DA:806,0
DA:808,0
DA:810,0
DA:824,0
DA:825,0
DA:826,0
DA:828,0
DA:830,0
DA:852,0
DA:856,0
DA:857,0
DA:980,0
DA:981,0
DA:982,0
DA:983,0
LF:42
LH:0
end_of_record
SF:/src/CppUnitTestDemo/OpenCppCoverageDemo/imports/googletest/googletest/include/gtest/gtest-test-part.h
FN:47,_ZN7testing14TestPartResultC2EOS0_
FN:47,_ZN7testing14TestPartResultC2ERKS0_
FN:47,_ZN7testing14TestPartResultD2Ev
FN:60,_ZN7testing14TestPartResultC2ENS0_4TypeEPKciS3_
FN:72,_ZNK7testing14TestPartResult4typeEv
FN:76,_ZNK7testing14TestPartResult9file_nameEv
FN:82,_ZNK7testing14TestPartResult11line_numberEv
FN:85,_ZNK7testing14TestPartResult7summaryEv
FN:88,_ZNK7testing14TestPartResult7messageEv
FN:94,_ZNK7testing14TestPartResult6failedEv
FN:97,_ZNK7testing14TestPartResult17nonfatally_failedEv
FN:100,_ZNK7testing14TestPartResult14fatally_failedEv
FN:146,_ZN7testing31TestPartResultReporterInterfaceC2Ev
FN:148,_ZN7testing31TestPartResultReporterInterfaceD2Ev
FN:148,_ZN7testing31TestPartResultReporterInterfaceD0Ev
FNDA:0,_ZN7testing14TestPartResultC2ERKS0_
FNDA:0,_ZN7testing14TestPartResultC2EOS0_
FNDA:0,_ZN7testing14TestPartResultD2Ev
FNDA:0,_ZN7testing14TestPartResultC2ENS0_4TypeEPKciS3_
FNDA:0,_ZNK7testing14TestPartResult4typeEv
FNDA:0,_ZNK7testing14TestPartResult9file_nameEv
FNDA:0,_ZNK7testing14TestPartResult11line_numberEv
FNDA:0,_ZNK7testing14TestPartResult7summaryEv
FNDA:0,_ZNK7testing14TestPartResult7messageEv
FNDA:0,_ZNK7testing14TestPartResult6failedEv
FNDA:0,_ZNK7testing14TestPartResult17nonfatally_failedEv
FNDA:0,_ZNK7testing14TestPartResult14fatally_failedEv
FNDA:2,_ZN7testing31TestPartResultReporterInterfaceC2Ev
FNDA:0,_ZN7testing31TestPartResultReporterInterfaceD0Ev
FNDA:2,_ZN7testing31TestPartResultReporterInterfaceD2Ev
FNF:15
FNH:2
DA:47,0
DA:60,0
DA:64,0
DA:68,0
DA:69,0
DA:72,0
DA:76,0
DA:77,0
DA:82,0
DA:85,0
DA:88,0
DA:94,0
DA:97,0
DA:100,0
DA:146,2
DA:148,2
LF:16
LH:2
end_of_record
SF:/src/CppUnitTestDemo/OpenCppCoverageDemo/imports/googletest/googletest/include/gtest/gtest.h
FN:256,_ZN7testing15AssertionResultD2Ev
FN:272,_ZN7testing15AssertionResultC2IbEERKT_PNS_8internal8EnableIfIXntsrNS5_21ImplicitlyConvertibleIS2_S0_EE5valueEE4typeE
FN:288,_ZNK7testing15AssertionResultcvbEv
FN:297,_ZNK7testing15AssertionResult7messageEv
FN:302,_ZNK7testing15AssertionResult15failure_messageEv
FN:305,_ZN7testing15AssertionResultlsIA9_cEERS0_RKT_
FN:305,_ZN7testing15AssertionResultlsIdEERS0_RKT_
FN:305,_ZN7testing15AssertionResultlsIA7_cEERS0_RKT_
FN:305,_ZN7testing15AssertionResultlsIA14_cEERS0_RKT_
FN:305,_ZN7testing15AssertionResultlsIA3_cEERS0_RKT_
FN:305,_ZN7testing15AssertionResultlsIPKcEERS0_RKT_
FN:305,_ZN7testing15AssertionResultlsIA5_cEERS0_RKT_
FN:305,_ZN7testing15AssertionResultlsINSt7__cxx1112basic_stringIwSt11char_traitsIwESaIwEEEEERS0_RKT_
FN:305,_ZN7testing15AssertionResultlsIA6_cEERS0_RKT_
FN:305,_ZN7testing15AssertionResultlsIA29_cEERS0_RKT_
FN:305,_ZN7testing15AssertionResultlsIA24_cEERS0_RKT_
FN:305,_ZN7testing15AssertionResultlsIA2_cEERS0_RKT_
FN:305,_ZN7testing15AssertionResultlsINS_14TestPartResultEEERS0_RKT_
FN:305,_ZN7testing15AssertionResultlsIA16_cEERS0_RKT_
FN:305,_ZN7testing15AssertionResultlsIA13_cEERS0_RKT_
FN:305,_ZN7testing15AssertionResultlsIA11_cEERS0_RKT_
FN:305,_ZN7testing15AssertionResultlsIA17_cEERS0_RKT_
FN:305,_ZN7testing15AssertionResultlsIA15_cEERS0_RKT_
FN:305,_ZN7testing15AssertionResultlsINSt7__cxx1112basic_stringIcSt11char_traitsIcESaIcEEEEERS0_RKT_
FN:305,_ZN7testing15AssertionResultlsIA12_cEERS0_RKT_
FN:305,_ZN7testing15AssertionResultlsIPKwEERS0_RKT_
FN:305,_ZN7testing15AssertionResultlsINS_7MessageEEERS0_RKT_
FN:320,_ZN7testing15AssertionResult13AppendMessageERKNS_7MessageE
FN:453,_ZN7testing4Test11DeleteSelf_Ev
FN:474,_ZN7testing4Test5SetupEv
FN:486,_ZN7testing12TestPropertyC2ERKS0_
FN:486,_ZN7testing12TestPropertyD2Ev
FN:486,_ZN7testing12TestPropertyC2EOS0_
FN:491,_ZN7testing12TestPropertyC2ERKNSt7__cxx1112basic_stringIcSt11char_traitsIcESaIcEEES8_
FN:496,_ZNK7testing12TestProperty3keyEv
FN:501,_ZNK7testing12TestProperty5valueEv
FN:506,_ZN7testing12TestProperty8SetValueERKNSt7__cxx1112basic_stringIcSt11char_traitsIcESaIcEEE
FN:539,_ZNK7testing10TestResult6PassedEv
FN:551,_ZNK7testing10TestResult12elapsed_timeEv
FN:584,_ZN7testing10TestResult16set_elapsed_timeEx
FN:605,_ZNK7testing10TestResult16death_test_countEv
FN:608,_ZN7testing10TestResult26increment_death_test_countEv
FN:651,_ZNK7testing8TestInfo14test_case_nameEv
FN:654,_ZNK7testing8TestInfo4nameEv
FN:658,_ZNK7testing8TestInfo10type_paramEv
FN:666,_ZNK7testing8TestInfo11value_paramEv
FN:694,_ZNK7testing8TestInfo10should_runEv
FN:697,_ZNK7testing8TestInfo13is_reportableEv
FN:705,_ZNK7testing8TestInfo6resultEv
FN:738,_ZN7testing8TestInfo26increment_death_test_countEv
FN:746,_ZN7testing8TestInfo15ClearTestResultEPS0_
FN:800,_ZNK7testing8TestCase4nameEv
FN:804,_ZNK7testing8TestCase10type_paramEv
FN:811,_ZNK7testing8TestCase10should_runEv
FN:835,_ZNK7testing8TestCase6PassedEv
FN:838,_ZNK7testing8TestCase6FailedEv
FN:841,_ZNK7testing8TestCase12elapsed_timeEv
FN:849,_ZNK7testing8TestCase18ad_hoc_test_resultEv
FN:856,_ZN7testing8TestCase14test_info_listEv
FN:859,_ZNK7testing8TestCase14test_info_listEv
FN:868,_ZN7testing8TestCase14set_should_runEb
FN:878,_ZN7testing8TestCase19ClearTestCaseResultEPS0_
FN:887,_ZN7testing8TestCase16RunSetUpTestCaseEv
FN:891,_ZN7testing8TestCase19RunTearDownTestCaseEv
FN:894,_ZN7testing8TestCase10TestPassedEPKNS_8TestInfoE
FN:899,_ZN7testing8TestCase10TestFailedEPKNS_8TestInfoE
FN:905,_ZN7testing8TestCase22TestReportableDisabledEPKNS_8TestInfoE
FN:910,_ZN7testing8TestCase12TestDisabledEPKNS_8TestInfoE
FN:915,_ZN7testing8TestCase14TestReportableEPKNS_8TestInfoE
FN:920,_ZN7testing8TestCase13ShouldRunTestEPKNS_8TestInfoE
FN:991,_ZN7testing17TestEventListenerC2Ev
FN:993,_ZN7testing17TestEventListenerD2Ev
FN:993,_ZN7testing17TestEventListenerD0Ev
FN:1044,_ZN7testing22EmptyTestEventListenerD2Ev
FN:1044,_ZN7testing22EmptyTestEventListenerC2Ev
FN:1044,_ZN7testing22EmptyTestEventListenerD0Ev
FN:1046,_ZN7testing22EmptyTestEventListener18OnTestProgramStartERKNS_8UnitTestE
FN:1047,_ZN7testing22EmptyTestEventListener20OnTestIterationStartERKNS_8UnitTestEi
FN:1049,_ZN7testing22EmptyTestEventListener24OnEnvironmentsSetUpStartERKNS_8UnitTestE
FN:1050,_ZN7testing22EmptyTestEventListener22OnEnvironmentsSetUpEndERKNS_8UnitTestE
FN:1051,_ZN7testing22EmptyTestEventListener15OnTestCaseStartERKNS_8TestCaseE
FN:1052,_ZN7testing22EmptyTestEventListener11OnTestStartERKNS_8TestInfoE
FN:1053,_ZN7testing22EmptyTestEventListener16OnTestPartResultERKNS_14TestPartResultE
FN:1054,_ZN7testing22EmptyTestEventListener9OnTestEndERKNS_8TestInfoE
FN:1055,_ZN7testing22EmptyTestEventListener13OnTestCaseEndERKNS_8TestCaseE
FN:1056,_ZN7testing22EmptyTestEventListener27OnEnvironmentsTearDownStartERKNS_8UnitTestE
FN:1057,_ZN7testing22EmptyTestEventListener25OnEnvironmentsTearDownEndERKNS_8UnitTestE
FN:1058,_ZN7testing22EmptyTestEventListener18OnTestIterationEndERKNS_8UnitTestEi
FN:1060,_ZN7testing22EmptyTestEventListener16OnTestProgramEndERKNS_8UnitTestE
FN:1287,_ZN7testing8UnitTest4implEv
FN:1288,_ZNK7testing8UnitTest4implEv
FN:1686,_ZN7testing8internal12AssertHelper16AssertHelperDataD2Ev
FN:1687,_ZN7testing8internal12AssertHelper16AssertHelperDataC2ENS_14TestPartResult4TypeEPKciS6_
FNDA:0,_ZN7testing15AssertionResultD2Ev
FNDA:2,_ZN7testing15AssertionResultC2IbEERKT_PNS_8internal8EnableIfIXntsrNS5_21ImplicitlyConvertibleIS2_S0_EE5valueEE4typeE
FNDA:0,_ZNK7testing15AssertionResultcvbEv
FNDA:0,_ZNK7testing15AssertionResult7messageEv
FNDA:0,_ZNK7testing15AssertionResult15failure_messageEv
FNDA:0,_ZN7testing15AssertionResultlsINSt7__cxx1112basic_stringIwSt11char_traitsIwESaIwEEEEERS0_RKT_
FNDA:0,_ZN7testing15AssertionResultlsIPKwEERS0_RKT_
FNDA:0,_ZN7testing15AssertionResultlsIA16_cEERS0_RKT_
FNDA:0,_ZN7testing15AssertionResultlsIA29_cEERS0_RKT_
FNDA:0,_ZN7testing15AssertionResultlsIA13_cEERS0_RKT_
FNDA:0,_ZN7testing15AssertionResultlsIA12_cEERS0_RKT_
FNDA:0,_ZN7testing15AssertionResultlsIA7_cEERS0_RKT_
FNDA:0,_ZN7testing15AssertionResultlsIA15_cEERS0_RKT_
FNDA:0,_ZN7testing15AssertionResultlsIA9_cEERS0_RKT_
FNDA:0,_ZN7testing15AssertionResultlsIA17_cEERS0_RKT_
FNDA:0,_ZN7testing15AssertionResultlsIdEERS0_RKT_
FNDA:0,_ZN7testing15AssertionResultlsIA5_cEERS0_RKT_
FNDA:0,_ZN7testing15AssertionResultlsIA6_cEERS0_RKT_
FNDA:0,_ZN7testing15AssertionResultlsIPKcEERS0_RKT_
FNDA:0,_ZN7testing15AssertionResultlsIA24_cEERS0_RKT_
FNDA:0,_ZN7testing15AssertionResultlsIA3_cEERS0_RKT_
FNDA:0,_ZN7testing15AssertionResultlsIA14_cEERS0_RKT_
FNDA:0,_ZN7testing15AssertionResultlsINS_14TestPartResultEEERS0_RKT_
FNDA:0,_ZN7testing15AssertionResultlsIA2_cEERS0_RKT_
FNDA:0,_ZN7testing15AssertionResultlsINSt7__cxx1112basic_stringIcSt11char_traitsIcESaIcEEEEERS0_RKT_
FNDA:0,_ZN7testing15AssertionResultlsIA11_cEERS0_RKT_
FNDA:0,_ZN7testing15AssertionResultlsINS_7MessageEEERS0_RKT_
FNDA:0,_ZN7testing15AssertionResult13AppendMessageERKNS_7MessageE
FNDA:3,_ZN7testing4Test11DeleteSelf_Ev
FNDA:0,_ZN7testing4Test5SetupEv
FNDA:0,_ZN7testing12TestPropertyC2EOS0_
FNDA:0,_ZN7testing12TestPropertyC2ERKS0_
FNDA:0,_ZN7testing12TestPropertyD2Ev
FNDA:0,_ZN7testing12TestPropertyC2ERKNSt7__cxx1112basic_stringIcSt11char_traitsIcESaIcEEES8_
FNDA:0,_ZNK7testing12TestProperty3keyEv
FNDA:0,_ZNK7testing12TestProperty5valueEv
FNDA:0,_ZN7testing12TestProperty8SetValueERKNSt7__cxx1112basic_stringIcSt11char_traitsIcESaIcEEE
FNDA:6,_ZNK7testing10TestResult6PassedEv
FNDA:3,_ZNK7testing10TestResult12elapsed_timeEv
FNDA:3,_ZN7testing10TestResult16set_elapsed_timeEx
FNDA:0,_ZNK7testing10TestResult16death_test_countEv
FNDA:0,_ZN7testing10TestResult26increment_death_test_countEv
FNDA:9,_ZNK7testing8TestInfo14test_case_nameEv
FNDA:15,_ZNK7testing8TestInfo4nameEv
FNDA:3,_ZNK7testing8TestInfo10type_paramEv
FNDA:0,_ZNK7testing8TestInfo11value_paramEv
FNDA:24,_ZNK7testing8TestInfo10should_runEv
FNDA:3,_ZNK7testing8TestInfo13is_reportableEv
FNDA:21,_ZNK7testing8TestInfo6resultEv
FNDA:0,_ZN7testing8TestInfo26increment_death_test_countEv
FNDA:3,_ZN7testing8TestInfo15ClearTestResultEPS0_
FNDA:12,_ZNK7testing8TestCase4nameEv
FNDA:3,_ZNK7testing8TestCase10type_paramEv
FNDA:15,_ZNK7testing8TestCase10should_runEv
FNDA:0,_ZNK7testing8TestCase6PassedEv
FNDA:6,_ZNK7testing8TestCase6FailedEv
FNDA:3,_ZNK7testing8TestCase12elapsed_timeEv
FNDA:0,_ZNK7testing8TestCase18ad_hoc_test_resultEv
FNDA:9,_ZN7testing8TestCase14test_info_listEv
FNDA:3,_ZNK7testing8TestCase14test_info_listEv
FNDA:6,_ZN7testing8TestCase14set_should_runEb
FNDA:3,_ZN7testing8TestCase19ClearTestCaseResultEPS0_
FNDA:3,_ZN7testing8TestCase16RunSetUpTestCaseEv
FNDA:3,_ZN7testing8TestCase19RunTearDownTestCaseEv
FNDA:3,_ZN7testing8TestCase10TestPassedEPKNS_8TestInfoE
FNDA:9,_ZN7testing8TestCase10TestFailedEPKNS_8TestInfoE
FNDA:3,_ZN7testing8TestCase22TestReportableDisabledEPKNS_8TestInfoE
FNDA:0,_ZN7testing8TestCase12TestDisabledEPKNS_8TestInfoE
FNDA:0,_ZN7testing8TestCase14TestReportableEPKNS_8TestInfoE
FNDA:12,_ZN7testing8TestCase13ShouldRunTestEPKNS_8TestInfoE
FNDA:2,_ZN7testing17TestEventListenerC2Ev
FNDA:0,_ZN7testing17TestEventListenerD0Ev
FNDA:2,_ZN7testing17TestEventListenerD2Ev
FNDA:0,_ZN7testing22EmptyTestEventListenerD0Ev
FNDA:0,_ZN7testing22EmptyTestEventListenerD2Ev
FNDA:0,_ZN7testing22EmptyTestEventListenerC2Ev
FNDA:0,_ZN7testing22EmptyTestEventListener18OnTestProgramStartERKNS_8UnitTestE
FNDA:0,_ZN7testing22EmptyTestEventListener20OnTestIterationStartERKNS_8UnitTestEi
FNDA:0,_ZN7testing22EmptyTestEventListener24OnEnvironmentsSetUpStartERKNS_8UnitTestE
FNDA:0,_ZN7testing22EmptyTestEventListener22OnEnvironmentsSetUpEndERKNS_8UnitTestE
FNDA:0,_ZN7testing22EmptyTestEventListener15OnTestCaseStartERKNS_8TestCaseE
FNDA:0,_ZN7testing22EmptyTestEventListener11OnTestStartERKNS_8TestInfoE
FNDA:0,_ZN7testing22EmptyTestEventListener16OnTestPartResultERKNS_14TestPartResultE
FNDA:0,_ZN7testing22EmptyTestEventListener9OnTestEndERKNS_8TestInfoE
FNDA:0,_ZN7testing22EmptyTestEventListener13OnTestCaseEndERKNS_8TestCaseE
FNDA:0,_ZN7testing22EmptyTestEventListener27OnEnvironmentsTearDownStartERKNS_8UnitTestE
FNDA:0,_ZN7testing22EmptyTestEventListener25OnEnvironmentsTearDownEndERKNS_8UnitTestE
FNDA:0,_ZN7testing22EmptyTestEventListener18OnTestIterationEndERKNS_8UnitTestEi
FNDA:0,_ZN7testing22EmptyTestEventListener16OnTestProgramEndERKNS_8UnitTestE
FNDA:53,_ZN7testing8UnitTest4implEv
FNDA:9,_ZNK7testing8UnitTest4implEv
FNDA:0,_ZN7testing8internal12AssertHelper16AssertHelperDataD2Ev
FNDA:0,_ZN7testing8internal12AssertHelper16AssertHelperDataC2ENS_14TestPartResult4TypeEPKciS6_
FNF:93
FNH:31
DA:256,0
DA:272,2
DA:277,2
DA:288,0
DA:297,0
DA:298,0
DA:302,0
DA:305,0
DA:306,0
DA:307,0
DA:320,0
DA:321,0
DA:322,0
DA:323,0
DA:324,0
DA:453,3
DA:474,0
DA:486,0
DA:491,0
DA:492,0
DA:493,0
DA:496,0
DA:497,0
DA:501,0
DA:502,0
DA:506,0
DA:507,0
DA:508,0
DA:539,6
DA:551,3
DA:584,3
DA:605,0
DA:608,0
DA:651,9
DA:654,15
DA:658,3
DA:659,3
DA:660,0
DA:661,3
DA:666,0
DA:667,0
DA:668,0
DA:669,0
DA:694,24
DA:697,3
DA:701,3
DA:705,21
DA:738,0
DA:739,0
DA:746,3
DA:747,3
DA:748,3
DA:800,12
DA:804,3
DA:805,3
DA:806,0
DA:807,3
DA:811,15
DA:835,0
DA:838,6
DA:841,3
DA:849,0
DA:856,9
DA:859,3
DA:860,3
DA:868,6
DA:878,3
DA:879,3
DA:880,3
DA:887,3
DA:891,3
DA:894,3
DA:895,3
DA:899,9
DA:900,9
DA:905,3
DA:906,3
DA:910,0
DA:911,0
DA:915,0
DA:916,0
DA:920,12
DA:921,12
DA:991,2
DA:993,2
DA:1044,0
DA:1046,0
DA:1047,0
DA:1048,0
DA:1049,0
DA:1050,0
DA:1051,0
DA:1052,0
DA:1053,0
DA:1054,0
DA:1055,0
DA:1056,0
DA:1057,0
DA:1058,0
DA:1059,0
DA:1060,0
DA:1287,53
DA:1288,9
DA:1686,0
DA:1687,0
DA:1691,0
LF:106
LH:46
end_of_record
SF:/src/CppUnitTestDemo/OpenCppCoverageDemo/imports/googletest/googletest/include/gtest/internal/gtest-death-test-internal.h
FN:82,_ZN7testing8internal9DeathTestD2Ev
FN:82,_ZN7testing8internal9DeathTestD0Ev
FN:140,_ZN7testing8internal16DeathTestFactoryC2Ev
FN:142,_ZN7testing8internal16DeathTestFactoryD2Ev
FN:142,_ZN7testing8internal16DeathTestFactoryD0Ev
FN:148,_ZN7testing8internal23DefaultDeathTestFactoryD2Ev
FN:148,_ZN7testing8internal23DefaultDeathTestFactoryC2Ev
FN:148,_ZN7testing8internal23DefaultDeathTestFactoryD0Ev
FN:236,_ZN7testing8internal24InternalRunDeathTestFlagC2ERKNSt7__cxx1112basic_stringIcSt11char_traitsIcESaIcEEEiii
FN:243,_ZN7testing8internal24InternalRunDeathTestFlagD2Ev
FN:248,_ZNK7testing8internal24InternalRunDeathTestFlag4fileB5cxx11Ev
FN:249,_ZNK7testing8internal24InternalRunDeathTestFlag4lineEv
FN:250,_ZNK7testing8internal24InternalRunDeathTestFlag5indexEv
FN:251,_ZNK7testing8internal24InternalRunDeathTestFlag8write_fdEv
FNDA:0,_ZN7testing8internal9DeathTestD0Ev
FNDA:0,_ZN7testing8internal9DeathTestD2Ev
FNDA:1,_ZN7testing8internal16DeathTestFactoryC2Ev
FNDA:0,_ZN7testing8internal16DeathTestFactoryD0Ev
FNDA:1,_ZN7testing8internal16DeathTestFactoryD2Ev
FNDA:1,_ZN7testing8internal23DefaultDeathTestFactoryD0Ev
FNDA:1,_ZN7testing8internal23DefaultDeathTestFactoryD2Ev
FNDA:1,_ZN7testing8internal23DefaultDeathTestFactoryC2Ev
FNDA:0,_ZN7testing8internal24InternalRunDeathTestFlagC2ERKNSt7__cxx1112basic_stringIcSt11char_traitsIcESaIcEEEiii
FNDA:0,_ZN7testing8internal24InternalRunDeathTestFlagD2Ev
FNDA:0,_ZNK7testing8internal24InternalRunDeathTestFlag4fileB5cxx11Ev
FNDA:0,_ZNK7testing8internal24InternalRunDeathTestFlag4lineEv
FNDA:0,_ZNK7testing8internal24InternalRunDeathTestFlag5indexEv
FNDA:0,_ZNK7testing8internal24InternalRunDeathTestFlag8write_fdEv
FNF:14
FNH:5
DA:82,0
DA:140,1
DA:142,1
DA:148,3
DA:236,0
DA:240,0
DA:241,0
DA:243,0
DA:244,0
DA:245,0
DA:246,0
DA:248,0
DA:249,0
DA:250,0
DA:251,0
LF:15
LH:3
end_of_record
SF:/src/CppUnitTestDemo/OpenCppCoverageDemo/imports/googletest/googletest/include/gtest/internal/gtest-filepath.h
FN:59,_ZN7testing8internal8FilePathD2Ev
FN:61,_ZN7testing8internal8FilePathC2Ev
FN:62,_ZN7testing8internal8FilePathC2ERKS1_
FN:64,_ZN7testing8internal8FilePathC2ERKNSt7__cxx1112basic_stringIcSt11char_traitsIcESaIcEEE
FN:68,_ZN7testing8internal8FilePathaSERKS1_
FN:73,_ZN7testing8internal8FilePath3SetERKS1_
FN:77,_ZNK7testing8internal8FilePath6stringB5cxx11Ev
FN:78,_ZNK7testing8internal8FilePath5c_strEv
FN:111,_ZNK7testing8internal8FilePath7IsEmptyEv
FNDA:2,_ZN7testing8internal8FilePathD2Ev
FNDA:1,_ZN7testing8internal8FilePathC2Ev
FNDA:0,_ZN7testing8internal8FilePathC2ERKS1_
FNDA:1,_ZN7testing8internal8FilePathC2ERKNSt7__cxx1112basic_stringIcSt11char_traitsIcESaIcEEE
FNDA:0,_ZN7testing8internal8FilePathaSERKS1_
FNDA:1,_ZN7testing8internal8FilePath3SetERKS1_
FNDA:0,_ZNK7testing8internal8FilePath6stringB5cxx11Ev
FNDA:0,_ZNK7testing8internal8FilePath5c_strEv
FNDA:4,_ZNK7testing8internal8FilePath7IsEmptyEv
FNF:9
FNH:5
DA:59,2
DA:61,1
DA:62,0
DA:64,1
DA:65,1
DA:66,1
DA:68,0
DA:69,0
DA:70,0
DA:73,1
DA:74,1
DA:75,1
DA:77,0
DA:78,0
DA:111,4
LF:15
LH:9
end_of_record
SF:/src/CppUnitTestDemo/OpenCppCoverageDemo/imports/googletest/googletest/include/gtest/internal/gtest-internal.h
FN:148,_ZN7testing8internal26GoogleTestFailureExceptionD2Ev
FN:148,_ZN7testing8internal26GoogleTestFailureExceptionD0Ev
FN:310,_ZN7testing8internal13FloatingPointIfEC2ERKf
FN:310,_ZN7testing8internal13FloatingPointIdEC2ERKd
FN:337,_ZNK7testing8internal13FloatingPointIdE13exponent_bitsEv
FN:337,_ZNK7testing8internal13FloatingPointIfE13exponent_bitsEv
FN:340,_ZNK7testing8internal13FloatingPointIdE13fraction_bitsEv
FN:340,_ZNK7testing8internal13FloatingPointIfE13fraction_bitsEv
FN:346,_ZNK7testing8internal13FloatingPointIfE6is_nanEv
FN:346,_ZNK7testing8internal13FloatingPointIdE6is_nanEv
FN:358,_ZNK7testing8internal13FloatingPointIdE12AlmostEqualsERKS2_
FN:358,_ZNK7testing8internal13FloatingPointIfE12AlmostEqualsERKS2_
FN:389,_ZN7testing8internal13FloatingPointIdE24SignAndMagnitudeToBiasedERKy
FN:389,_ZN7testing8internal13FloatingPointIfE24SignAndMagnitudeToBiasedERKj
FN:401,_ZN7testing8internal13FloatingPointIdE38DistanceBetweenSignAndMagnitudeNumbersERKyS4_
FN:401,_ZN7testing8internal13FloatingPointIfE38DistanceBetweenSignAndMagnitudeNumbersERKjS4_
FN:447,_ZN7testing8internal9GetTypeIdINS_4TestEEEPKvv
FN:504,_ZN7testing8internal12CodeLocationC2ERKS1_
FN:504,_ZN7testing8internal12CodeLocationD2Ev
FN:594,_ZN7testing8internal9SkipCommaEPKc
FN:605,_ZN7testing8internal19GetPrefixUntilCommaB5cxx11EPKc
FN:736,_ZN7testing8internal11AlwaysFalseEv
FN:756,_ZN7testing8internal6RandomC2Ej
FN:758,_ZN7testing8internal6Random6ReseedEj
FN:940,_ZN7testing8internal15IsContainerTestIxEEcl
FNDA:0,_ZN7testing8internal26GoogleTestFailureExceptionD0Ev
FNDA:0,_ZN7testing8internal26GoogleTestFailureExceptionD2Ev
FNDA:0,_ZN7testing8internal13FloatingPointIdEC2ERKd
FNDA:0,_ZN7testing8internal13FloatingPointIfEC2ERKf
FNDA:0,_ZNK7testing8internal13FloatingPointIdE13exponent_bitsEv
FNDA:0,_ZNK7testing8internal13FloatingPointIfE13exponent_bitsEv
FNDA:0,_ZNK7testing8internal13FloatingPointIdE13fraction_bitsEv
FNDA:0,_ZNK7testing8internal13FloatingPointIfE13fraction_bitsEv
FNDA:0,_ZNK7testing8internal13FloatingPointIdE6is_nanEv
FNDA:0,_ZNK7testing8internal13FloatingPointIfE6is_nanEv
FNDA:0,_ZNK7testing8internal13FloatingPointIdE12AlmostEqualsERKS2_
FNDA:0,_ZNK7testing8internal13FloatingPointIfE12AlmostEqualsERKS2_
FNDA:0,_ZN7testing8internal13FloatingPointIdE24SignAndMagnitudeToBiasedERKy
FNDA:0,_ZN7testing8internal13FloatingPointIfE24SignAndMagnitudeToBiasedERKj
FNDA:0,_ZN7testing8internal13FloatingPointIdE38DistanceBetweenSignAndMagnitudeNumbersERKyS4_
FNDA:0,_ZN7testing8internal13FloatingPointIfE38DistanceBetweenSignAndMagnitudeNumbersERKjS4_
FNDA:4,_ZN7testing8internal9GetTypeIdINS_4TestEEEPKvv
FNDA:6,_ZN7testing8internal12CodeLocationC2ERKS1_
FNDA:0,_ZN7testing8internal12CodeLocationD2Ev
FNDA:0,_ZN7testing8internal9SkipCommaEPKc
FNDA:0,_ZN7testing8internal19GetPrefixUntilCommaB5cxx11EPKc
FNDA:0,_ZN7testing8internal11AlwaysFalseEv
FNDA:1,_ZN7testing8internal6RandomC2Ej
FNDA:0,_ZN7testing8internal6Random6ReseedEj
FNDA:0,_ZN7testing8internal15IsContainerTestIxEEcl
FNF:25
FNH:3
DA:148,0
DA:310,0
DA:337,0
DA:340,0
DA:346,0
DA:349,0
DA:358,0
DA:361,0
DA:363,0
DA:364,0
DA:389,0
DA:390,0
DA:392,0
DA:395,0
DA:401,0
DA:403,0
DA:404,0
DA:405,0
DA:447,4
DA:452,4
DA:504,6
DA:594,0
DA:595,0
DA:596,0
DA:597,0
DA:599,0
DA:600,0
DA:605,0
DA:606,0
DA:607,0
DA:736,0
DA:756,1
DA:758,0
DA:940,0
LF:34
LH:4
end_of_record
SF:/src/CppUnitTestDemo/OpenCppCoverageDemo/imports/googletest/googletest/include/gtest/internal/gtest-param-util.h
FN:670,_ZN7testing8internal29ParameterizedTestCaseRegistryC2Ev
FN:671,_ZN7testing8internal29ParameterizedTestCaseRegistryD2Ev
FN:711,_ZN7testing8internal29ParameterizedTestCaseRegistry13RegisterTestsEv
FNDA:1,_ZN7testing8internal29ParameterizedTestCaseRegistryC2Ev
FNDA:1,_ZN7testing8internal29ParameterizedTestCaseRegistryD2Ev
FNDA:1,_ZN7testing8internal29ParameterizedTestCaseRegistry13RegisterTestsEv
FNF:3
FNH:3
DA:670,1
DA:671,2
DA:672,1
DA:673,1
DA:674,0
DA:676,1
DA:711,1
DA:712,1
DA:713,1
DA:714,0
DA:716,1
LF:11
LH:9
end_of_record
SF:/src/CppUnitTestDemo/OpenCppCoverageDemo/imports/googletest/googletest/include/gtest/internal/gtest-port.h
FN:1119,_ZN7testing8internal10scoped_ptrINS0_16DeathTestFactoryEEC2EPS2_
FN:1119,_ZN7testing8internal10scoped_ptrINS0_17StreamingListener20AbstractSocketWriterEEC2EPS3_
FN:1119,_ZN7testing8internal10scoped_ptrINS0_11ThreadLocalIPNS_31TestPartResultReporterInterfaceEE18ValueHolderFactoryEEC2EPS6_
FN:1119,_ZN7testing8internal10scoped_ptrINSt7__cxx1112basic_stringIcSt11char_traitsIcESaIcEEEEC2EPS7_
FN:1119,_ZN7testing8internal10scoped_ptrIKNSt7__cxx1112basic_stringIcSt11char_traitsIcESaIcEEEEC2EPS8_
FN:1119,_ZN7testing8internal10scoped_ptrINS0_24InternalRunDeathTestFlagEEC2EPS2_
FN:1119,_ZN7testing8internal10scoped_ptrINS0_14GTestFlagSaverEEC2EPS2_
FN:1119,_ZN7testing8internal10scoped_ptrINSt7__cxx1118basic_stringstreamIcSt11char_traitsIcESaIcEEEEC2EPS7_
FN:1119,_ZN7testing8internal10scoped_ptrINS0_11ThreadLocalISt6vectorINS0_9TraceInfoESaIS4_EEE18ValueHolderFactoryEEC2EPS8_
FN:1120,_ZN7testing8internal10scoped_ptrINS0_11ThreadLocalISt6vectorINS0_9TraceInfoESaIS4_EEE18ValueHolderFactoryEED2Ev
FN:1120,_ZN7testing8internal10scoped_ptrIKNSt7__cxx1112basic_stringIcSt11char_traitsIcESaIcEEEED2Ev
FN:1120,_ZN7testing8internal10scoped_ptrINS0_17StreamingListener20AbstractSocketWriterEED2Ev
FN:1120,_ZN7testing8internal10scoped_ptrINS0_16DeathTestFactoryEED2Ev
FN:1120,_ZN7testing8internal10scoped_ptrINS0_24InternalRunDeathTestFlagEED2Ev
FN:1120,_ZN7testing8internal10scoped_ptrINSt7__cxx1112basic_stringIcSt11char_traitsIcESaIcEEEED2Ev
FN:1120,_ZN7testing8internal10scoped_ptrINSt7__cxx1118basic_stringstreamIcSt11char_traitsIcESaIcEEEED2Ev
FN:1120,_ZN7testing8internal10scoped_ptrINS0_11ThreadLocalIPNS_31TestPartResultReporterInterfaceEE18ValueHolderFactoryEED2Ev
FN:1120,_ZN7testing8internal10scoped_ptrINS0_14GTestFlagSaverEED2Ev
FN:1122,_ZNK7testing8internal10scoped_ptrINSt7__cxx1112basic_stringIcSt11char_traitsIcESaIcEEEEdeEv
FN:1122,_ZNK7testing8internal10scoped_ptrINSt7__cxx1118basic_stringstreamIcSt11char_traitsIcESaIcEEEEdeEv
FN:1123,_ZNK7testing8internal10scoped_ptrINS0_17StreamingListener20AbstractSocketWriterEEptEv
FN:1123,_ZNK7testing8internal10scoped_ptrINS0_11ThreadLocalISt6vectorINS0_9TraceInfoESaIS4_EEE18ValueHolderFactoryEEptEv
FN:1123,_ZNK7testing8internal10scoped_ptrINSt7__cxx1112basic_stringIcSt11char_traitsIcESaIcEEEEptEv
FN:1123,_ZNK7testing8internal10scoped_ptrINS0_11ThreadLocalIPNS_31TestPartResultReporterInterfaceEE18ValueHolderFactoryEEptEv
FN:1123,_ZNK7testing8internal10scoped_ptrIKNSt7__cxx1112basic_stringIcSt11char_traitsIcESaIcEEEEptEv
FN:1124,_ZNK7testing8internal10scoped_ptrINSt7__cxx1112basic_stringIcSt11char_traitsIcESaIcEEEE3getEv
FN:1124,_ZNK7testing8internal10scoped_ptrINSt7__cxx1118basic_stringstreamIcSt11char_traitsIcESaIcEEEE3getEv
FN:1124,_ZNK7testing8internal10scoped_ptrINS0_24InternalRunDeathTestFlagEE3getEv
FN:1124,_ZNK7testing8internal10scoped_ptrIKNSt7__cxx1112basic_stringIcSt11char_traitsIcESaIcEEEE3getEv
FN:1124,_ZNK7testing8internal10scoped_ptrINS0_16DeathTestFactoryEE3getEv
FN:1132,_ZN7testing8internal10scoped_ptrINSt7__cxx1118basic_stringstreamIcSt11char_traitsIcESaIcEEEE5resetEPS7_
FN:1132,_ZN7testing8internal10scoped_ptrINS0_11ThreadLocalIPNS_31TestPartResultReporterInterfaceEE18ValueHolderFactoryEE5resetEPS6_
FN:1132,_ZN7testing8internal10scoped_ptrINS0_11ThreadLocalISt6vectorINS0_9TraceInfoESaIS4_EEE18ValueHolderFactoryEE5resetEPS8_
FN:1132,_ZN7testing8internal10scoped_ptrINS0_24InternalRunDeathTestFlagEE5resetEPS2_
FN:1132,_ZN7testing8internal10scoped_ptrINS0_16DeathTestFactoryEE5resetEPS2_
FN:1132,_ZN7testing8internal10scoped_ptrINSt7__cxx1112basic_stringIcSt11char_traitsIcESaIcEEEE5resetEPS7_
FN:1132,_ZN7testing8internal10scoped_ptrIKNSt7__cxx1112basic_stringIcSt11char_traitsIcESaIcEEEE5resetEPS8_
FN:1132,_ZN7testing8internal10scoped_ptrINS0_17StreamingListener20AbstractSocketWriterEE5resetEPS3_
FN:1132,_ZN7testing8internal10scoped_ptrINS0_14GTestFlagSaverEE5resetEPS2_
FN:1141,_ZN7testing8internal4swapERNS0_10scoped_ptrINSt7__cxx1112basic_stringIcSt11char_traitsIcESaIcEEEEES9_
FN:1175,_ZNK7testing8internal2RE7patternEv
FN:1261,_ZN7testing8internal8GTestLog9GetStreamEv
FN:1275,_ZN7testing8internal11LogToStderrEv
FN:1276,_ZN7testing8internal12FlushInfoLogEv
FN:1343,_ZN7testing8internal13ImplicitCast_IPKvEET_S4_
FN:1392,_ZN7testing8internal27CheckedDowncastToActualTypeINS0_11ThreadLocalIPNS_31TestPartResultReporterInterfaceEE11ValueHolderENS0_26ThreadLocalValueHolderBaseEEEPT_PT0_
FN:1392,_ZN7testing8internal27CheckedDowncastToActualTypeINS0_11ThreadLocalISt6vectorINS0_9TraceInfoESaIS4_EEE11ValueHolderENS0_26ThreadLocalValueHolderBaseEEEPT_PT0_
FN:1927,_ZN7testing8internal9MutexBase4LockEv
FN:1934,_ZN7testing8internal9MutexBase6UnlockEv
FN:1979,_ZN7testing8internal5MutexC2Ev
FN:1983,_ZN7testing8internal5MutexD2Ev
FN:1998,_ZN7testing8internal14GTestMutexLockC2EPNS0_9MutexBaseE
FN:2001,_ZN7testing8internal14GTestMutexLockD2Ev
FN:2017,_ZN7testing8internal26ThreadLocalValueHolderBaseC2Ev
FN:2019,_ZN7testing8internal26ThreadLocalValueHolderBaseD0Ev
FN:2019,_ZN7testing8internal26ThreadLocalValueHolderBaseD2Ev
FN:2024,DeleteThreadLocalValue
FN:2032,_ZN7testing8internal11ThreadLocalISt6vectorINS0_9TraceInfoESaIS3_EEEC2Ev
FN:2034,_ZN7testing8internal11ThreadLocalIPNS_31TestPartResultReporterInterfaceEEC2ERKS3_
FN:2038,_ZN7testing8internal11ThreadLocalIPNS_31TestPartResultReporterInterfaceEED2Ev
FN:2038,_ZN7testing8internal11ThreadLocalISt6vectorINS0_9TraceInfoESaIS3_EEED2Ev
FN:2047,_ZN7testing8internal11ThreadLocalISt6vectorINS0_9TraceInfoESaIS3_EEE7pointerEv
FN:2047,_ZN7testing8internal11ThreadLocalIPNS_31TestPartResultReporterInterfaceEE7pointerEv
FN:2048,_ZNK7testing8internal11ThreadLocalIPNS_31TestPartResultReporterInterfaceEE7pointerEv
FN:2049,_ZNK7testing8internal11ThreadLocalIPNS_31TestPartResultReporterInterfaceEE3getEv
FN:2050,_ZN7testing8internal11ThreadLocalIPNS_31TestPartResultReporterInterfaceEE3setERKS3_
FN:2054,_ZN7testing8internal11ThreadLocalIPNS_31TestPartResultReporterInterfaceEE11ValueHolderD0Ev
FN:2054,_ZN7testing8internal11ThreadLocalIPNS_31TestPartResultReporterInterfaceEE11ValueHolderD2Ev
FN:2054,_ZN7testing8internal11ThreadLocalISt6vectorINS0_9TraceInfoESaIS3_EEE11ValueHolderD2Ev
FN:2054,_ZN7testing8internal11ThreadLocalISt6vectorINS0_9TraceInfoESaIS3_EEE11ValueHolderD0Ev
FN:2056,_ZN7testing8internal11ThreadLocalISt6vectorINS0_9TraceInfoESaIS3_EEE11ValueHolderC2Ev
FN:2057,_ZN7testing8internal11ThreadLocalIPNS_31TestPartResultReporterInterfaceEE11ValueHolderC2ERKS3_
FN:2059,_ZN7testing8internal11ThreadLocalISt6vectorINS0_9TraceInfoESaIS3_EEE11ValueHolder7pointerEv
FN:2059,_ZN7testing8internal11ThreadLocalIPNS_31TestPartResultReporterInterfaceEE11ValueHolder7pointerEv
FN:2066,_ZN7testing8internal11ThreadLocalIPNS_31TestPartResultReporterInterfaceEE9CreateKeyEv
FN:2066,_ZN7testing8internal11ThreadLocalISt6vectorINS0_9TraceInfoESaIS3_EEE9CreateKeyEv
FN:2075,_ZNK7testing8internal11ThreadLocalIPNS_31TestPartResultReporterInterfaceEE16GetOrCreateValueEv
FN:2075,_ZNK7testing8internal11ThreadLocalISt6vectorINS0_9TraceInfoESaIS3_EEE16GetOrCreateValueEv
FN:2090,_ZN7testing8internal11ThreadLocalISt6vectorINS0_9TraceInfoESaIS3_EEE18ValueHolderFactoryC2Ev
FN:2090,_ZN7testing8internal11ThreadLocalIPNS_31TestPartResultReporterInterfaceEE18ValueHolderFactoryC2Ev
FN:2091,_ZN7testing8internal11ThreadLocalISt6vectorINS0_9TraceInfoESaIS3_EEE18ValueHolderFactoryD2Ev
FN:2091,_ZN7testing8internal11ThreadLocalIPNS_31TestPartResultReporterInterfaceEE18ValueHolderFactoryD0Ev
FN:2091,_ZN7testing8internal11ThreadLocalIPNS_31TestPartResultReporterInterfaceEE18ValueHolderFactoryD2Ev
FN:2091,_ZN7testing8internal11ThreadLocalISt6vectorINS0_9TraceInfoESaIS3_EEE18ValueHolderFactoryD0Ev
FN:2098,_ZN7testing8internal11ThreadLocalISt6vectorINS0_9TraceInfoESaIS3_EEE25DefaultValueHolderFactoryD2Ev
FN:2098,_ZN7testing8internal11ThreadLocalISt6vectorINS0_9TraceInfoESaIS3_EEE25DefaultValueHolderFactoryD0Ev
FN:2100,_ZN7testing8internal11ThreadLocalISt6vectorINS0_9TraceInfoESaIS3_EEE25DefaultValueHolderFactoryC2Ev
FN:2101,_ZNK7testing8internal11ThreadLocalISt6vectorINS0_9TraceInfoESaIS3_EEE25DefaultValueHolderFactory13MakeNewHolderEv
FN:2107,_ZN7testing8internal11ThreadLocalIPNS_31TestPartResultReporterInterfaceEE26InstanceValueHolderFactoryD0Ev
FN:2107,_ZN7testing8internal11ThreadLocalIPNS_31TestPartResultReporterInterfaceEE26InstanceValueHolderFactoryD2Ev
FN:2109,_ZN7testing8internal11ThreadLocalIPNS_31TestPartResultReporterInterfaceEE26InstanceValueHolderFactoryC2ERKS3_
FN:2110,_ZNK7testing8internal11ThreadLocalIPNS_31TestPartResultReporterInterfaceEE26InstanceValueHolderFactory13MakeNewHolderEv
FN:2257,_ZN7testing8internal7IsDigitEc
FN:2263,_ZN7testing8internal7IsSpaceEc
FN:2269,_ZN7testing8internal8IsXDigitEc
FN:2272,_ZN7testing8internal8IsXDigitEw
FN:2280,_ZN7testing8internal7ToUpperEc
FN:2284,_ZN7testing8internal19StripTrailingSpacesENSt7__cxx1112basic_stringIcSt11char_traitsIcESaIcEEE
FN:2340,_ZN7testing8internal5posix6FileNoEP8_IO_FILE
FN:2341,_ZN7testing8internal5posix6IsATTYEi
FN:2342,_ZN7testing8internal5posix4StatEPKcP4stat
FN:2343,_ZN7testing8internal5posix10StrCaseCmpEPKcS3_
FN:2346,_ZN7testing8internal5posix6StrDupEPKc
FN:2348,_ZN7testing8internal5posix5IsDirERK4stat
FN:2367,_ZN7testing8internal5posix5FOpenEPKcS3_
FN:2374,_ZN7testing8internal5posix6FDOpenEiPKc
FN:2376,_ZN7testing8internal5posix6FCloseEP8_IO_FILE
FN:2378,_ZN7testing8internal5posix4ReadEiPvj
FN:2381,_ZN7testing8internal5posix5WriteEiPKvj
FN:2384,_ZN7testing8internal5posix5CloseEi
FN:2385,_ZN7testing8internal5posix8StrErrorEi
FN:2387,_ZN7testing8internal5posix6GetEnvEPKc
FN:2410,_ZN7testing8internal5posix5AbortEv
FNDA:1,_ZN7testing8internal10scoped_ptrINS0_11ThreadLocalISt6vectorINS0_9TraceInfoESaIS4_EEE18ValueHolderFactoryEEC2EPS8_
FNDA:1,_ZN7testing8internal10scoped_ptrINS0_11ThreadLocalIPNS_31TestPartResultReporterInterfaceEE18ValueHolderFactoryEEC2EPS6_
FNDA:1,_ZN7testing8internal10scoped_ptrINS0_16DeathTestFactoryEEC2EPS2_
FNDA:1,_ZN7testing8internal10scoped_ptrINS0_24InternalRunDeathTestFlagEEC2EPS2_
FNDA:9,_ZN7testing8internal10scoped_ptrIKNSt7__cxx1112basic_stringIcSt11char_traitsIcESaIcEEEEC2EPS8_
FNDA:3,_ZN7testing8internal10scoped_ptrINS0_14GTestFlagSaverEEC2EPS2_
FNDA:2,_ZN7testing8internal10scoped_ptrINSt7__cxx1112basic_stringIcSt11char_traitsIcESaIcEEEEC2EPS7_
FNDA:0,_ZN7testing8internal10scoped_ptrINS0_17StreamingListener20AbstractSocketWriterEEC2EPS3_
FNDA:51,_ZN7testing8internal10scoped_ptrINSt7__cxx1118basic_stringstreamIcSt11char_traitsIcESaIcEEEEC2EPS7_
FNDA:1,_ZN7testing8internal10scoped_ptrINS0_11ThreadLocalISt6vectorINS0_9TraceInfoESaIS4_EEE18ValueHolderFactoryEED2Ev
FNDA:1,_ZN7testing8internal10scoped_ptrINS0_11ThreadLocalIPNS_31TestPartResultReporterInterfaceEE18ValueHolderFactoryEED2Ev
FNDA:1,_ZN7testing8internal10scoped_ptrINS0_16DeathTestFactoryEED2Ev
FNDA:1,_ZN7testing8internal10scoped_ptrINS0_24InternalRunDeathTestFlagEED2Ev
FNDA:9,_ZN7testing8internal10scoped_ptrIKNSt7__cxx1112basic_stringIcSt11char_traitsIcESaIcEEEED2Ev
FNDA:3,_ZN7testing8internal10scoped_ptrINS0_14GTestFlagSaverEED2Ev
FNDA:0,_ZN7testing8internal10scoped_ptrINSt7__cxx1112basic_stringIcSt11char_traitsIcESaIcEEEED2Ev
FNDA:0,_ZN7testing8internal10scoped_ptrINS0_17StreamingListener20AbstractSocketWriterEED2Ev
FNDA:0,_ZN7testing8internal10scoped_ptrINSt7__cxx1118basic_stringstreamIcSt11char_traitsIcESaIcEEEED2Ev
FNDA:0,_ZNK7testing8internal10scoped_ptrINSt7__cxx1112basic_stringIcSt11char_traitsIcESaIcEEEEdeEv
FNDA:396,_ZNK7testing8internal10scoped_ptrINSt7__cxx1118basic_stringstreamIcSt11char_traitsIcESaIcEEEEdeEv
FNDA:0,_ZNK7testing8internal10scoped_ptrINS0_11ThreadLocalIPNS_31TestPartResultReporterInterfaceEE18ValueHolderFactoryEEptEv
FNDA:0,_ZNK7testing8internal10scoped_ptrINS0_11ThreadLocalISt6vectorINS0_9TraceInfoESaIS4_EEE18ValueHolderFactoryEEptEv
FNDA:0,_ZNK7testing8internal10scoped_ptrINS0_17StreamingListener20AbstractSocketWriterEEptEv
FNDA:0,_ZNK7testing8internal10scoped_ptrIKNSt7__cxx1112basic_stringIcSt11char_traitsIcESaIcEEEEptEv
FNDA:0,_ZNK7testing8internal10scoped_ptrINSt7__cxx1112basic_stringIcSt11char_traitsIcESaIcEEEEptEv
FNDA:51,_ZNK7testing8internal10scoped_ptrINSt7__cxx1118basic_stringstreamIcSt11char_traitsIcESaIcEEEE3getEv
FNDA:0,_ZNK7testing8internal10scoped_ptrINS0_16DeathTestFactoryEE3getEv
FNDA:2,_ZNK7testing8internal10scoped_ptrINS0_24InternalRunDeathTestFlagEE3getEv
FNDA:6,_ZNK7testing8internal10scoped_ptrIKNSt7__cxx1112basic_stringIcSt11char_traitsIcESaIcEEEE3getEv
FNDA:0,_ZNK7testing8internal10scoped_ptrINSt7__cxx1112basic_stringIcSt11char_traitsIcESaIcEEEE3getEv
FNDA:1,_ZN7testing8internal10scoped_ptrINS0_11ThreadLocalISt6vectorINS0_9TraceInfoESaIS4_EEE18ValueHolderFactoryEE5resetEPS8_
FNDA:1,_ZN7testing8internal10scoped_ptrINS0_11ThreadLocalIPNS_31TestPartResultReporterInterfaceEE18ValueHolderFactoryEE5resetEPS6_
FNDA:1,_ZN7testing8internal10scoped_ptrINS0_16DeathTestFactoryEE5resetEPS2_
FNDA:9,_ZN7testing8internal10scoped_ptrIKNSt7__cxx1112basic_stringIcSt11char_traitsIcESaIcEEEE5resetEPS8_
FNDA:3,_ZN7testing8internal10scoped_ptrINS0_14GTestFlagSaverEE5resetEPS2_
FNDA:0,_ZN7testing8internal10scoped_ptrINS0_17StreamingListener20AbstractSocketWriterEE5resetEPS3_
FNDA:0,_ZN7testing8internal10scoped_ptrINSt7__cxx1118basic_stringstreamIcSt11char_traitsIcESaIcEEEE5resetEPS7_
FNDA:2,_ZN7testing8internal10scoped_ptrINS0_24InternalRunDeathTestFlagEE5resetEPS2_
FNDA:0,_ZN7testing8internal10scoped_ptrINSt7__cxx1112basic_stringIcSt11char_traitsIcESaIcEEEE5resetEPS7_
FNDA:0,_ZN7testing8internal4swapERNS0_10scoped_ptrINSt7__cxx1112basic_stringIcSt11char_traitsIcESaIcEEEEES9_
FNDA:0,_ZNK7testing8internal2RE7patternEv
FNDA:0,_ZN7testing8internal8GTestLog9GetStreamEv
FNDA:0,_ZN7testing8internal11LogToStderrEv
FNDA:0,_ZN7testing8internal12FlushInfoLogEv
FNDA:0,_ZN7testing8internal13ImplicitCast_IPKvEET_S4_
FNDA:0,_ZN7testing8internal27CheckedDowncastToActualTypeINS0_11ThreadLocalIPNS_31TestPartResultReporterInterfaceEE11ValueHolderENS0_26ThreadLocalValueHolderBaseEEEPT_PT0_
FNDA:0,_ZN7testing8internal27CheckedDowncastToActualTypeINS0_11ThreadLocalISt6vectorINS0_9TraceInfoESaIS4_EEE11ValueHolderENS0_26ThreadLocalValueHolderBaseEEEPT_PT0_
FNDA:0,_ZN7testing8internal9MutexBase4LockEv
FNDA:0,_ZN7testing8internal9MutexBase6UnlockEv
FNDA:9,_ZN7testing8internal5MutexC2Ev
FNDA:9,_ZN7testing8internal5MutexD2Ev
FNDA:0,_ZN7testing8internal14GTestMutexLockC2EPNS0_9MutexBaseE
FNDA:0,_ZN7testing8internal14GTestMutexLockD2Ev
FNDA:0,_ZN7testing8internal26ThreadLocalValueHolderBaseC2Ev
FNDA:0,_ZN7testing8internal26ThreadLocalValueHolderBaseD0Ev
FNDA:0,_ZN7testing8internal26ThreadLocalValueHolderBaseD2Ev
FNDA:2,DeleteThreadLocalValue
FNDA:1,_ZN7testing8internal11ThreadLocalISt6vectorINS0_9TraceInfoESaIS3_EEEC2Ev
FNDA:1,_ZN7testing8internal11ThreadLocalIPNS_31TestPartResultReporterInterfaceEEC2ERKS3_
FNDA:1,_ZN7testing8internal11ThreadLocalISt6vectorINS0_9TraceInfoESaIS3_EEED2Ev
FNDA:1,_ZN7testing8internal11ThreadLocalIPNS_31TestPartResultReporterInterfaceEED2Ev
FNDA:0,_ZN7testing8internal11ThreadLocalIPNS_31TestPartResultReporterInterfaceEE7pointerEv
FNDA:0,_ZN7testing8internal11ThreadLocalISt6vectorINS0_9TraceInfoESaIS3_EEE7pointerEv
FNDA:0,_ZNK7testing8internal11ThreadLocalIPNS_31TestPartResultReporterInterfaceEE7pointerEv
FNDA:0,_ZNK7testing8internal11ThreadLocalIPNS_31TestPartResultReporterInterfaceEE3getEv
FNDA:0,_ZN7testing8internal11ThreadLocalIPNS_31TestPartResultReporterInterfaceEE3setERKS3_
FNDA:0,_ZN7testing8internal11ThreadLocalISt6vectorINS0_9TraceInfoESaIS3_EEE11ValueHolderD0Ev
FNDA:0,_ZN7testing8internal11ThreadLocalISt6vectorINS0_9TraceInfoESaIS3_EEE11ValueHolderD2Ev
FNDA:0,_ZN7testing8internal11ThreadLocalIPNS_31TestPartResultReporterInterfaceEE11ValueHolderD0Ev
FNDA:0,_ZN7testing8internal11ThreadLocalIPNS_31TestPartResultReporterInterfaceEE11ValueHolderD2Ev
FNDA:0,_ZN7testing8internal11ThreadLocalISt6vectorINS0_9TraceInfoESaIS3_EEE11ValueHolderC2Ev
FNDA:0,_ZN7testing8internal11ThreadLocalIPNS_31TestPartResultReporterInterfaceEE11ValueHolderC2ERKS3_
FNDA:0,_ZN7testing8internal11ThreadLocalIPNS_31TestPartResultReporterInterfaceEE11ValueHolder7pointerEv
FNDA:0,_ZN7testing8internal11ThreadLocalISt6vectorINS0_9TraceInfoESaIS3_EEE11ValueHolder7pointerEv
FNDA:1,_ZN7testing8internal11ThreadLocalISt6vectorINS0_9TraceInfoESaIS3_EEE9CreateKeyEv
FNDA:1,_ZN7testing8internal11ThreadLocalIPNS_31TestPartResultReporterInterfaceEE9CreateKeyEv
FNDA:0,_ZNK7testing8internal11ThreadLocalIPNS_31TestPartResultReporterInterfaceEE16GetOrCreateValueEv
FNDA:0,_ZNK7testing8internal11ThreadLocalISt6vectorINS0_9TraceInfoESaIS3_EEE16GetOrCreateValueEv
FNDA:1,_ZN7testing8internal11ThreadLocalISt6vectorINS0_9TraceInfoESaIS3_EEE18ValueHolderFactoryC2Ev
FNDA:1,_ZN7testing8internal11ThreadLocalIPNS_31TestPartResultReporterInterfaceEE18ValueHolderFactoryC2Ev
FNDA:0,_ZN7testing8internal11ThreadLocalISt6vectorINS0_9TraceInfoESaIS3_EEE18ValueHolderFactoryD0Ev
FNDA:1,_ZN7testing8internal11ThreadLocalISt6vectorINS0_9TraceInfoESaIS3_EEE18ValueHolderFactoryD2Ev
FNDA:0,_ZN7testing8internal11ThreadLocalIPNS_31TestPartResultReporterInterfaceEE18ValueHolderFactoryD0Ev
FNDA:1,_ZN7testing8internal11ThreadLocalIPNS_31TestPartResultReporterInterfaceEE18ValueHolderFactoryD2Ev
FNDA:1,_ZN7testing8internal11ThreadLocalISt6vectorINS0_9TraceInfoESaIS3_EEE25DefaultValueHolderFactoryD0Ev
FNDA:1,_ZN7testing8internal11ThreadLocalISt6vectorINS0_9TraceInfoESaIS3_EEE25DefaultValueHolderFactoryD2Ev
FNDA:1,_ZN7testing8internal11ThreadLocalISt6vectorINS0_9TraceInfoESaIS3_EEE25DefaultValueHolderFactoryC2Ev
FNDA:0,_ZNK7testing8internal11ThreadLocalISt6vectorINS0_9TraceInfoESaIS3_EEE25DefaultValueHolderFactory13MakeNewHolderEv
FNDA:1,_ZN7testing8internal11ThreadLocalIPNS_31TestPartResultReporterInterfaceEE26InstanceValueHolderFactoryD0Ev
FNDA:1,_ZN7testing8internal11ThreadLocalIPNS_31TestPartResultReporterInterfaceEE26InstanceValueHolderFactoryD2Ev
FNDA:1,_ZN7testing8internal11ThreadLocalIPNS_31TestPartResultReporterInterfaceEE26InstanceValueHolderFactoryC2ERKS3_
FNDA:0,_ZNK7testing8internal11ThreadLocalIPNS_31TestPartResultReporterInterfaceEE26InstanceValueHolderFactory13MakeNewHolderEv
FNDA:0,_ZN7testing8internal7IsDigitEc
FNDA:0,_ZN7testing8internal7IsSpaceEc
FNDA:0,_ZN7testing8internal8IsXDigitEc
FNDA:0,_ZN7testing8internal8IsXDigitEw
FNDA:294,_ZN7testing8internal7ToUpperEc
FNDA:0,_ZN7testing8internal19StripTrailingSpacesENSt7__cxx1112basic_stringIcSt11char_traitsIcESaIcEEE
FNDA:1,_ZN7testing8internal5posix6FileNoEP8_IO_FILE
FNDA:1,_ZN7testing8internal5posix6IsATTYEi
FNDA:0,_ZN7testing8internal5posix4StatEPKcP4stat
FNDA:1,_ZN7testing8internal5posix10StrCaseCmpEPKcS3_
FNDA:0,_ZN7testing8internal5posix6StrDupEPKc
FNDA:0,_ZN7testing8internal5posix5IsDirERK4stat
FNDA:0,_ZN7testing8internal5posix5FOpenEPKcS3_
FNDA:0,_ZN7testing8internal5posix6FDOpenEiPKc
FNDA:0,_ZN7testing8internal5posix6FCloseEP8_IO_FILE
FNDA:0,_ZN7testing8internal5posix4ReadEiPvj
FNDA:0,_ZN7testing8internal5posix5WriteEiPKvj
FNDA:0,_ZN7testing8internal5posix5CloseEi
FNDA:0,_ZN7testing8internal5posix8StrErrorEi
FNDA:24,_ZN7testing8internal5posix6GetEnvEPKc
FNDA:0,_ZN7testing8internal5posix5AbortEv
FNF:113
FNH:48
DA:1119,69
DA:1120,16
DA:1122,396
DA:1123,0
DA:1124,59
DA:1132,17
DA:1133,17
DA:1134,6
DA:1135,6
DA:1137,6
DA:1139,17
DA:1141,0
DA:1143,0
DA:1144,0
DA:1175,0
DA:1261,0
DA:1275,0
DA:1276,0
DA:1343,0
DA:1392,0
DA:1394,0
DA:1400,0
DA:1927,0
DA:1928,0
DA:1929,0
DA:1930,0
DA:1931,0
DA:1934,0
DA:1939,0
DA:1940,0
DA:1941,0
DA:1979,9
DA:1980,9
DA:1981,9
DA:1982,9
DA:1983,18
DA:1984,9
DA:1985,9
DA:1998,0
DA:1999,0
DA:2001,0
DA:2017,0
DA:2019,0
DA:2024,2
DA:2025,2
DA:2026,2
DA:2032,1
DA:2033,1
DA:2034,1
DA:2035,1
DA:2036,1
DA:2038,2
DA:2040,2
DA:2044,2
DA:2045,2
DA:2047,0
DA:2048,0
DA:2049,0
DA:2050,0
DA:2054,0
DA:2056,0
DA:2057,0
DA:2059,0
DA:2066,2
DA:2070,2
DA:2072,2
DA:2075,0
DA:2076,0
DA:2077,0
DA:2078,0
DA:2079,0
DA:2082,0
DA:2083,0
DA:2084,0
DA:2085,0
DA:2090,2
DA:2091,2
DA:2098,2
DA:2100,1
DA:2101,0
DA:2107,2
DA:2109,1
DA:2110,0
DA:2111,0
DA:2257,0
DA:2258,0
DA:2263,0
DA:2264,0
DA:2269,0
DA:2270,0
DA:2272,0
DA:2273,0
DA:2274,0
DA:2280,294
DA:2281,294
DA:2284,0
DA:2285,0
DA:2286,0
DA:2287,0
DA:2288,0
DA:2340,1
DA:2341,1
DA:2342,0
DA:2343,1
DA:2344,1
DA:2346,0
DA:2348,0
DA:2367,0
DA:2368,0
DA:2374,0
DA:2376,0
DA:2378,0
DA:2379,0
DA:2381,0
DA:2382,0
DA:2384,0
DA:2385,0
DA:2387,24
DA:2398,24
DA:2410,0
LF:120
LH:46
end_of_record
SF:/src/CppUnitTestDemo/OpenCppCoverageDemo/imports/googletest/googletest/src/gtest-death-test.cc
FN:133,_ZN7testing8internal16InDeathTestChildEv
FN:152,_ZN7testing14ExitedWithCodeC2Ei
FN:156,_ZNK7testing14ExitedWithCodeclEi
FN:170,_ZN7testing14KilledBySignalC2Ei
FN:174,_ZNK7testing14KilledBySignalclEi
FN:193,_ZN7testing8internalL11ExitSummaryEi
FN:219,_ZN7testing8internal20ExitedUnsuccessfullyEi
FN:228,_ZN7testing8internalL22DeathTestThreadWarningEm
FN:262,_ZN7testing8internal14DeathTestAbortERKNSt7__cxx1112basic_stringIcSt11char_traitsIcESaIcEEE
FN:315,_ZN7testing8internal23GetLastErrnoDescriptionB5cxx11Ev
FN:323,_ZN7testing8internalL21FailFromInternalErrorEi
FN:346,_ZN7testing8internal9DeathTestC2Ev
FN:356,_ZN7testing8internal9DeathTest6CreateEPKcPKNS0_2REES3_iPPS1_
FN:362,_ZN7testing8internal9DeathTest11LastMessageEv
FN:366,_ZN7testing8internal9DeathTest27set_last_death_test_messageERKNSt7__cxx1112basic_stringIcSt11char_traitsIcESaIcEEE
FN:375,_ZN7testing8internal13DeathTestImplC2EPKcPKNS0_2REE
FN:385,_ZN7testing8internal13DeathTestImplD0Ev
FN:385,_ZN7testing8internal13DeathTestImplD2Ev
FN:390,_ZNK7testing8internal13DeathTestImpl9statementEv
FN:391,_ZNK7testing8internal13DeathTestImpl5regexEv
FN:392,_ZNK7testing8internal13DeathTestImpl7spawnedEv
FN:393,_ZN7testing8internal13DeathTestImpl11set_spawnedEb
FN:394,_ZNK7testing8internal13DeathTestImpl6statusEv
FN:395,_ZN7testing8internal13DeathTestImpl10set_statusEi
FN:396,_ZNK7testing8internal13DeathTestImpl7outcomeEv
FN:397,_ZN7testing8internal13DeathTestImpl11set_outcomeENS0_16DeathTestOutcomeE
FN:398,_ZNK7testing8internal13DeathTestImpl7read_fdEv
FN:399,_ZN7testing8internal13DeathTestImpl11set_read_fdEi
FN:400,_ZNK7testing8internal13DeathTestImpl8write_fdEv
FN:401,_ZN7testing8internal13DeathTestImpl12set_write_fdEi
FN:436,_ZN7testing8internal13DeathTestImpl26ReadAndInterpretStatusByteEv
FN:481,_ZN7testing8internal13DeathTestImpl5AbortENS0_9DeathTest11AbortReasonE
FN:504,_ZN7testing8internalL21FormatDeathTestOutputERKNSt7__cxx1112basic_stringIcSt11char_traitsIcESaIcEEE
FN:541,_ZN7testing8internal13DeathTestImpl6PassedEb
FN:787,_ZN7testing8internal16ForkingDeathTestD2Ev
FN:787,_ZN7testing8internal16ForkingDeathTestD0Ev
FN:795,_ZN7testing8internal16ForkingDeathTest13set_child_pidEi
FN:803,_ZN7testing8internal16ForkingDeathTestC2EPKcPKNS0_2REE
FN:810,_ZN7testing8internal16ForkingDeathTest4WaitEv
FN:824,_ZN7testing8internal15NoExecDeathTestD2Ev
FN:824,_ZN7testing8internal15NoExecDeathTestD0Ev
FN:826,_ZN7testing8internal15NoExecDeathTestC2EPKcPKNS0_2REE
FN:833,_ZN7testing8internal15NoExecDeathTest10AssumeRoleEv
FN:879,_ZN7testing8internal13ExecDeathTestD0Ev
FN:879,_ZN7testing8internal13ExecDeathTestD2Ev
FN:881,_ZN7testing8internal13ExecDeathTestC2EPKcPKNS0_2REES3_i
FN:887,_ZN7testing8internal13ExecDeathTest32GetArgvsForDeathTestChildProcessB5cxx11Ev
FN:905,_ZN7testing8internal9ArgumentsC2Ev
FN:909,_ZN7testing8internal9ArgumentsD2Ev
FN:915,_ZN7testing8internal9Arguments11AddArgumentEPKc
FN:920,_ZN7testing8internal9Arguments12AddArgumentsINSt7__cxx1112basic_stringIcSt11char_traitsIcESaIcEEEEEvRKSt6vectorIT_SaISA_EE
FN:927,_ZN7testing8internal9Arguments4ArgvEv
FN:953,_ZN7testing8internal10GetEnvironEv
FN:960,_ZN7testing8internalL22ExecDeathTestChildMainEPv
FN:999,_ZN7testing8internal21StackLowerThanAddressEPKvPb
FN:1006,_ZN7testing8internal14StackGrowsDownEv
FN:1020,_ZN7testing8internalL23ExecDeathTestSpawnChildEPKPci
FN:1118,_ZN7testing8internal13ExecDeathTest10AssumeRoleEv
FN:1171,_ZN7testing8internal23DefaultDeathTestFactory6CreateEPKcPKNS0_2REES3_iPPNS0_9DeathTestE
FN:1294,_ZN7testing8internal29ParseInternalRunDeathTestFlagEv
FNDA:0,_ZN7testing8internal16InDeathTestChildEv
FNDA:0,_ZN7testing14ExitedWithCodeC2Ei
FNDA:0,_ZNK7testing14ExitedWithCodeclEi
FNDA:0,_ZN7testing14KilledBySignalC2Ei
FNDA:0,_ZNK7testing14KilledBySignalclEi
FNDA:0,_ZN7testing8internalL11ExitSummaryEi
FNDA:0,_ZN7testing8internal20ExitedUnsuccessfullyEi
FNDA:0,_ZN7testing8internalL22DeathTestThreadWarningEm
FNDA:0,_ZN7testing8internal14DeathTestAbortERKNSt7__cxx1112basic_stringIcSt11char_traitsIcESaIcEEE
FNDA:0,_ZN7testing8internal23GetLastErrnoDescriptionB5cxx11Ev
FNDA:0,_ZN7testing8internalL21FailFromInternalErrorEi
FNDA:0,_ZN7testing8internal9DeathTestC2Ev
FNDA:0,_ZN7testing8internal9DeathTest6CreateEPKcPKNS0_2REES3_iPPS1_
FNDA:0,_ZN7testing8internal9DeathTest11LastMessageEv
FNDA:0,_ZN7testing8internal9DeathTest27set_last_death_test_messageERKNSt7__cxx1112basic_stringIcSt11char_traitsIcESaIcEEE
FNDA:0,_ZN7testing8internal13DeathTestImplC2EPKcPKNS0_2REE
FNDA:0,_ZN7testing8internal13DeathTestImplD0Ev
FNDA:0,_ZN7testing8internal13DeathTestImplD2Ev
FNDA:0,_ZNK7testing8internal13DeathTestImpl9statementEv
FNDA:0,_ZNK7testing8internal13DeathTestImpl5regexEv
FNDA:0,_ZNK7testing8internal13DeathTestImpl7spawnedEv
FNDA:0,_ZN7testing8internal13DeathTestImpl11set_spawnedEb
FNDA:0,_ZNK7testing8internal13DeathTestImpl6statusEv
FNDA:0,_ZN7testing8internal13DeathTestImpl10set_statusEi
FNDA:0,_ZNK7testing8internal13DeathTestImpl7outcomeEv
FNDA:0,_ZN7testing8internal13DeathTestImpl11set_outcomeENS0_16DeathTestOutcomeE
FNDA:0,_ZNK7testing8internal13DeathTestImpl7read_fdEv
FNDA:0,_ZN7testing8internal13DeathTestImpl11set_read_fdEi
FNDA:0,_ZNK7testing8internal13DeathTestImpl8write_fdEv
FNDA:0,_ZN7testing8internal13DeathTestImpl12set_write_fdEi
FNDA:0,_ZN7testing8internal13DeathTestImpl26ReadAndInterpretStatusByteEv
FNDA:0,_ZN7testing8internal13DeathTestImpl5AbortENS0_9DeathTest11AbortReasonE
FNDA:0,_ZN7testing8internalL21FormatDeathTestOutputERKNSt7__cxx1112basic_stringIcSt11char_traitsIcESaIcEEE
FNDA:0,_ZN7testing8internal13DeathTestImpl6PassedEb
FNDA:0,_ZN7testing8internal16ForkingDeathTestD0Ev
FNDA:0,_ZN7testing8internal16ForkingDeathTestD2Ev
FNDA:0,_ZN7testing8internal16ForkingDeathTest13set_child_pidEi
FNDA:0,_ZN7testing8internal16ForkingDeathTestC2EPKcPKNS0_2REE
FNDA:0,_ZN7testing8internal16ForkingDeathTest4WaitEv
FNDA:0,_ZN7testing8internal15NoExecDeathTestD0Ev
FNDA:0,_ZN7testing8internal15NoExecDeathTestD2Ev
FNDA:0,_ZN7testing8internal15NoExecDeathTestC2EPKcPKNS0_2REE
FNDA:0,_ZN7testing8internal15NoExecDeathTest10AssumeRoleEv
FNDA:0,_ZN7testing8internal13ExecDeathTestD0Ev
FNDA:0,_ZN7testing8internal13ExecDeathTestD2Ev
FNDA:0,_ZN7testing8internal13ExecDeathTestC2EPKcPKNS0_2REES3_i
FNDA:0,_ZN7testing8internal13ExecDeathTest32GetArgvsForDeathTestChildProcessB5cxx11Ev
FNDA:0,_ZN7testing8internal9ArgumentsC2Ev
FNDA:0,_ZN7testing8internal9ArgumentsD2Ev
FNDA:0,_ZN7testing8internal9Arguments11AddArgumentEPKc
FNDA:0,_ZN7testing8internal9Arguments12AddArgumentsINSt7__cxx1112basic_stringIcSt11char_traitsIcESaIcEEEEEvRKSt6vectorIT_SaISA_EE
FNDA:0,_ZN7testing8internal9Arguments4ArgvEv
FNDA:0,_ZN7testing8internal10GetEnvironEv
FNDA:0,_ZN7testing8internalL22ExecDeathTestChildMainEPv
FNDA:0,_ZN7testing8internal21StackLowerThanAddressEPKvPb
FNDA:0,_ZN7testing8internal14StackGrowsDownEv
FNDA:0,_ZN7testing8internalL23ExecDeathTestSpawnChildEPKPci
FNDA:0,_ZN7testing8internal13ExecDeathTest10AssumeRoleEv
FNDA:0,_ZN7testing8internal23DefaultDeathTestFactory6CreateEPKcPKNS0_2REES3_iPPNS0_9DeathTestE
FNDA:1,_ZN7testing8internal29ParseInternalRunDeathTestFlagEv
FNF:60
FNH:1
DA:86,1
DA:95,1
DA:108,1
DA:133,0
DA:142,0
DA:143,0
DA:145,0
DA:152,0
DA:153,0
DA:156,0
DA:163,0
DA:170,0
DA:171,0
DA:174,0
DA:183,0
DA:193,0
DA:194,0
DA:202,0
DA:203,0
DA:204,0
DA:205,0
DA:208,0
DA:209,0
DA:214,0
DA:219,0
DA:220,0
DA:228,0
DA:229,0
DA:230,0
DA:231,0
DA:232,0
DA:233,0
DA:235,0
DA:236,0
DA:262,0
DA:267,0
DA:268,0
DA:269,0
DA:270,0
DA:271,0
DA:272,0
DA:273,0
DA:275,0
DA:276,0
DA:277,0
DA:279,0
DA:315,0
DA:316,0
DA:323,0
DA:324,0
DA:328,0
DA:329,0
DA:330,0
DA:331,0
DA:333,0
DA:335,0
DA:336,0
DA:338,0
DA:339,0
DA:340,0
DA:342,0
DA:346,0
DA:347,0
DA:348,0
DA:349,0
DA:352,0
DA:356,0
DA:358,0
DA:359,0
DA:362,0
DA:363,0
DA:366,0
DA:367,0
DA:368,0
DA:370,1
DA:375,0
DA:376,0
DA:382,0
DA:385,0
DA:390,0
DA:391,0
DA:392,0
DA:393,0
DA:394,0
DA:395,0
DA:396,0
DA:397,0
DA:398,0
DA:399,0
DA:400,0
DA:401,0
DA:436,0
DA:444,0
DA:445,0
DA:446,0
DA:448,0
DA:449,0
DA:450,0
DA:451,0
DA:452,0
DA:453,0
DA:454,0
DA:455,0
DA:456,0
DA:457,0
DA:458,0
DA:459,0
DA:460,0
DA:461,0
DA:462,0
DA:463,0
DA:464,0
DA:465,0
DA:466,0
DA:467,0
DA:470,0
DA:471,0
DA:473,0
DA:474,0
DA:475,0
DA:481,0
DA:485,0
DA:486,0
DA:489,0
DA:498,0
DA:504,0
DA:505,0
DA:506,0
DA:507,0
DA:508,0
DA:509,0
DA:510,0
DA:511,0
DA:513,0
DA:514,0
DA:515,0
DA:516,0
DA:541,0
DA:542,0
DA:543,0
DA:545,0
DA:547,0
DA:548,0
DA:550,0
DA:551,0
DA:552,0
DA:553,0
DA:554,0
DA:555,0
DA:556,0
DA:557,0
DA:558,0
DA:559,0
DA:560,0
DA:561,0
DA:562,0
DA:563,0
DA:564,0
DA:565,0
DA:566,0
DA:567,0
DA:568,0
DA:570,0
DA:571,0
DA:572,0
DA:575,0
DA:576,0
DA:577,0
DA:579,0
DA:580,0
DA:582,0
DA:583,0
DA:586,0
DA:587,0
DA:787,0
DA:795,0
DA:803,0
DA:805,0
DA:810,0
DA:811,0
DA:812,0
DA:814,0
DA:817,0
DA:818,0
DA:819,0
DA:824,0
DA:826,0
DA:827,0
DA:833,0
DA:834,0
DA:835,0
DA:836,0
DA:840,0
DA:842,0
DA:843,0
DA:851,0
DA:853,0
DA:854,0
DA:855,0
DA:856,0
DA:857,0
DA:858,0
DA:862,0
DA:865,0
DA:866,0
DA:867,0
DA:869,0
DA:870,0
DA:871,0
DA:872,0
DA:879,0
DA:881,0
DA:882,0
DA:883,0
DA:887,0
DA:888,0
DA:894,0
DA:905,0
DA:906,0
DA:907,0
DA:909,0
DA:910,0
DA:912,0
DA:914,0
DA:915,0
DA:916,0
DA:917,0
DA:920,0
DA:921,0
DA:922,0
DA:924,0
DA:926,0
DA:927,0
DA:928,0
DA:953,0
DA:960,0
DA:961,0
DA:962,0
DA:968,0
DA:970,0
DA:971,0
DA:972,0
DA:973,0
DA:981,0
DA:982,0
DA:983,0
DA:984,0
DA:985,0
DA:999,0
DA:1001,0
DA:1002,0
DA:1006,0
DA:1009,0
DA:1010,0
DA:1020,0
DA:1021,0
DA:1022,0
DA:1061,0
DA:1062,0
DA:1063,0
DA:1064,0
DA:1069,0
DA:1071,0
DA:1072,0
DA:1073,0
DA:1076,0
DA:1077,0
DA:1085,0
DA:1086,0
DA:1087,0
DA:1089,0
DA:1092,0
DA:1094,0
DA:1100,0
DA:1101,0
DA:1102,0
DA:1106,0
DA:1110,0
DA:1111,0
DA:1118,0
DA:1119,0
DA:1121,0
DA:1122,0
DA:1123,0
DA:1125,0
DA:1126,0
DA:1127,0
DA:1131,0
DA:1134,0
DA:1137,0
DA:1138,0
DA:1140,0
DA:1141,0
DA:1142,0
DA:1143,0
DA:1144,0
DA:1145,0
DA:1146,0
DA:1147,0
DA:1149,0
DA:1151,0
DA:1154,0
DA:1156,0
DA:1157,0
DA:1158,0
DA:1159,0
DA:1160,0
DA:1161,0
DA:1171,0
DA:1174,0
DA:1176,0
DA:1178,0
DA:1180,0
DA:1181,0
DA:1182,0
DA:1183,0
DA:1184,0
DA:1185,0
DA:1186,0
DA:1189,0
DA:1190,0
DA:1191,0
DA:1192,0
DA:1205,0
DA:1206,0
DA:1207,0
DA:1208,0
DA:1214,0
DA:1215,0
DA:1216,0
DA:1217,0
DA:1220,0
DA:1294,1
DA:1295,1
DA:1299,0
DA:1300,0
DA:1301,0
DA:1302,0
DA:1303,0
DA:1325,0
DA:1326,0
DA:1327,0
DA:1328,0
DA:1329,0
DA:1330,0
DA:1335,0
LF:346
LH:6
end_of_record
SF:/src/CppUnitTestDemo/OpenCppCoverageDemo/imports/googletest/googletest/src/gtest-filepath.cc
FN:90,_ZN7testing8internalL15IsPathSeparatorEc
FN:99,_ZN7testing8internal8FilePath13GetCurrentDirEv
FN:124,_ZNK7testing8internal8FilePath15RemoveExtensionEPKc
FN:136,_ZNK7testing8internal8FilePath21FindLastPathSeparatorEv
FN:155,_ZNK7testing8internal8FilePath19RemoveDirectoryNameEv
FN:166,_ZNK7testing8internal8FilePath14RemoveFileNameEv
FN:183,_ZN7testing8internal8FilePath12MakeFileNameERKS1_S3_iPKc
FN:199,_ZN7testing8internal8FilePath11ConcatPathsERKS1_S3_
FN:209,_ZNK7testing8internal8FilePath21FileOrDirectoryExistsEv
FN:223,_ZNK7testing8internal8FilePath15DirectoryExistsEv
FN:253,_ZNK7testing8internal8FilePath15IsRootDirectoryEv
FN:265,_ZNK7testing8internal8FilePath14IsAbsolutePathEv
FN:286,_ZN7testing8internal8FilePath22GenerateUniqueFileNameERKS1_S3_PKc
FN:300,_ZNK7testing8internal8FilePath11IsDirectoryEv
FN:308,_ZNK7testing8internal8FilePath28CreateDirectoriesRecursivelyEv
FN:325,_ZNK7testing8internal8FilePath12CreateFolderEv
FN:346,_ZNK7testing8internal8FilePath27RemoveTrailingPathSeparatorEv
FN:356,_ZN7testing8internal8FilePath9NormalizeEv
FNDA:54,_ZN7testing8internalL15IsPathSeparatorEc
FNDA:1,_ZN7testing8internal8FilePath13GetCurrentDirEv
FNDA:0,_ZNK7testing8internal8FilePath15RemoveExtensionEPKc
FNDA:0,_ZNK7testing8internal8FilePath21FindLastPathSeparatorEv
FNDA:0,_ZNK7testing8internal8FilePath19RemoveDirectoryNameEv
FNDA:0,_ZNK7testing8internal8FilePath14RemoveFileNameEv
FNDA:0,_ZN7testing8internal8FilePath12MakeFileNameERKS1_S3_iPKc
FNDA:0,_ZN7testing8internal8FilePath11ConcatPathsERKS1_S3_
FNDA:0,_ZNK7testing8internal8FilePath21FileOrDirectoryExistsEv
FNDA:0,_ZNK7testing8internal8FilePath15DirectoryExistsEv
FNDA:0,_ZNK7testing8internal8FilePath15IsRootDirectoryEv
FNDA:0,_ZNK7testing8internal8FilePath14IsAbsolutePathEv
FNDA:0,_ZN7testing8internal8FilePath22GenerateUniqueFileNameERKS1_S3_PKc
FNDA:0,_ZNK7testing8internal8FilePath11IsDirectoryEv
FNDA:0,_ZNK7testing8internal8FilePath28CreateDirectoriesRecursivelyEv
FNDA:0,_ZNK7testing8internal8FilePath12CreateFolderEv
FNDA:0,_ZNK7testing8internal8FilePath27RemoveTrailingPathSeparatorEv
FNDA:1,_ZN7testing8internal8FilePath9NormalizeEv
FNF:18
FNH:3
DA:90,54
DA:94,54
DA:99,1
DA:108,1
DA:109,1
DA:116,1
DA:124,0
DA:125,0
DA:126,0
DA:127,0
DA:128,0
DA:130,0
DA:136,0
DA:137,0
DA:146,0
DA:155,0
DA:156,0
DA:157,0
DA:166,0
DA:167,0
DA:168,0
DA:169,0
DA:170,0
DA:172,0
DA:174,0
DA:183,0
DA:187,0
DA:188,0
DA:189,0
DA:191,0
DA:192,0
DA:194,0
DA:199,0
DA:201,0
DA:202,0
DA:203,0
DA:204,0
DA:209,0
DA:217,0
DA:223,0
DA:224,0
DA:231,0
DA:244,0
DA:245,0
DA:248,0
DA:253,0
DA:260,0
DA:265,0
DA:266,0
DA:274,0
DA:286,0
DA:289,0
DA:290,0
DA:291,0
DA:292,0
DA:293,0
DA:294,0
DA:300,0
DA:301,0
DA:302,0
DA:308,0
DA:309,0
DA:310,0
DA:313,0
DA:314,0
DA:317,0
DA:318,0
DA:325,0
DA:334,0
DA:337,0
DA:338,0
DA:340,0
DA:346,0
DA:347,0
DA:348,0
DA:349,0
DA:356,1
DA:357,1
DA:358,0
DA:359,0
DA:361,1
DA:362,1
DA:363,1
DA:364,1
DA:366,93
DA:367,46
DA:368,46
DA:369,42
DA:376,12
DA:377,4
DA:379,46
DA:381,1
DA:382,1
DA:383,1
LF:94
LH:22
end_of_record
SF:/src/CppUnitTestDemo/OpenCppCoverageDemo/imports/googletest/googletest/src/gtest-internal-inl.h
FN:136,_ZN7testing8internal21GetRandomSeedFromFlagEi
FN:152,_ZN7testing8internal17GetNextRandomSeedEi
FN:165,_ZN7testing8internal14GTestFlagSaverC2Ev
FN:186,_ZN7testing8internal14GTestFlagSaverD2Ev
FN:283,_ZN7testing8internal7CountIfISt6vectorINS_14TestPartResultESaIS3_EEPFbRKS3_EEEiRKT_T0_
FN:283,_ZN7testing8internal7CountIfISt6vectorIPNS_8TestInfoESaIS4_EEPFbPKS3_EEEiRKT_T0_
FN:283,_ZN7testing8internal7CountIfISt6vectorIPNS_8TestCaseESaIS4_EEPFbPKS3_EEEiRKT_T0_
FN:296,_ZN7testing8internal7ForEachISt6vectorIPNS_11EnvironmentESaIS4_EEPFvS4_EEEvRKT_T0_
FN:296,_ZN7testing8internal7ForEachISt6vectorIPNS_17TestEventListenerESaIS4_EEPFvS4_EEEvRKT_T0_
FN:296,_ZN7testing8internal7ForEachISt6vectorIPNS_8TestInfoESaIS4_EEPFvS4_EEEvRKT_T0_
FN:296,_ZN7testing8internal7ForEachISt6vectorIPNS_8TestCaseESaIS4_EEPFvS4_EEEvRKT_T0_
FN:303,_ZN7testing8internal12GetElementOrIiEET_RKSt6vectorIS2_SaIS2_EEiS2_
FN:312,_ZN7testing8internal12ShuffleRangeIiEEvPNS0_6RandomEiiPSt6vectorIT_SaIS5_EE
FN:333,_ZN7testing8internal7ShuffleIiEEvPNS0_6RandomEPSt6vectorIT_SaIS5_EE
FN:340,_ZN7testing8internalL6DeleteINS_8TestInfoEEEvPT_
FN:340,_ZN7testing8internalL6DeleteINS_17TestEventListenerEEEvPT_
FN:340,_ZN7testing8internalL6DeleteINS_8TestCaseEEEvPT_
FN:340,_ZN7testing8internalL6DeleteINS_11EnvironmentEEEvPT_
FN:347,_ZN7testing8internal17TestPropertyKeyIsC2ERKS1_
FN:347,_ZN7testing8internal17TestPropertyKeyIsC2EOS1_
FN:347,_ZN7testing8internal17TestPropertyKeyIsD2Ev
FN:352,_ZN7testing8internal17TestPropertyKeyIsC2ERKNSt7__cxx1112basic_stringIcSt11char_traitsIcESaIcEEE
FN:355,_ZNK7testing8internal17TestPropertyKeyIsclERKNS_12TestPropertyE
FN:420,_ZN7testing8internal27OsStackTraceGetterInterfaceC2Ev
FN:421,_ZN7testing8internal27OsStackTraceGetterInterfaceD0Ev
FN:421,_ZN7testing8internal27OsStackTraceGetterInterfaceD2Ev
FN:445,_ZN7testing8internal18OsStackTraceGetterD2Ev
FN:445,_ZN7testing8internal18OsStackTraceGetterD0Ev
FN:447,_ZN7testing8internal18OsStackTraceGetterC2Ev
FN:457,_ZN7testing8internal9TraceInfoC2EOS1_
FN:457,_ZN7testing8internal9TraceInfoD2Ev
FN:457,_ZN7testing8internal9TraceInfoC2ERKS1_
FN:457,_ZN7testing8internal9TraceInfoC2Ev
FN:465,_ZN7testing8internal35DefaultGlobalTestPartResultReporterD2Ev
FN:465,_ZN7testing8internal35DefaultGlobalTestPartResultReporterD0Ev
FN:481,_ZN7testing8internal38DefaultPerThreadTestPartResultReporterD2Ev
FN:481,_ZN7testing8internal38DefaultPerThreadTestPartResultReporterD0Ev
FN:561,_ZNK7testing8internal12UnitTestImpl15start_timestampEv
FN:564,_ZNK7testing8internal12UnitTestImpl12elapsed_timeEv
FN:567,_ZNK7testing8internal12UnitTestImpl6PassedEv
FN:571,_ZNK7testing8internal12UnitTestImpl6FailedEv
FN:577,_ZNK7testing8internal12UnitTestImpl11GetTestCaseEi
FN:584,_ZN7testing8internal12UnitTestImpl18GetMutableTestCaseEi
FN:590,_ZN7testing8internal12UnitTestImpl9listenersEv
FN:597,_ZNK7testing8internal12UnitTestImpl18ad_hoc_test_resultEv
FN:645,_ZN7testing8internal12UnitTestImpl11AddTestInfoEPFvvES3_PNS_8TestInfoE
FN:670,_ZN7testing8internal12UnitTestImpl27parameterized_test_registryEv
FN:676,_ZN7testing8internal12UnitTestImpl21set_current_test_caseEPNS_8TestCaseE
FN:683,_ZN7testing8internal12UnitTestImpl21set_current_test_infoEPNS_8TestInfoE
FN:702,_ZN7testing8internal12UnitTestImpl23ClearNonAdHocTestResultEv
FN:733,_ZNK7testing8internal12UnitTestImpl17current_test_caseEv
FN:734,_ZN7testing8internal12UnitTestImpl17current_test_infoEv
FN:735,_ZNK7testing8internal12UnitTestImpl17current_test_infoEv
FN:739,_ZN7testing8internal12UnitTestImpl12environmentsEv
FN:742,_ZN7testing8internal12UnitTestImpl17gtest_trace_stackEv
FN:750,_ZN7testing8internal12UnitTestImpl34InitDeathTestSubprocessControlInfoEv
FN:757,_ZNK7testing8internal12UnitTestImpl28internal_run_death_test_flagEv
FN:762,_ZN7testing8internal12UnitTestImpl18death_test_factoryEv
FN:789,_ZNK7testing8internal12UnitTestImpl11random_seedEv
FN:792,_ZN7testing8internal12UnitTestImpl6randomEv
FN:803,_ZNK7testing8internal12UnitTestImpl16catch_exceptionsEv
FN:810,_ZN7testing8internal12UnitTestImpl20set_catch_exceptionsEb
FN:927,_ZN7testing8internal15GetUnitTestImplEv
FN:967,_ZN7testing8internal18ParseNaturalNumberIiEEbRKNSt7__cxx1112basic_stringIcSt11char_traitsIcESaIcEEEPT_
FN:1035,_ZN7testing8internal17StreamingListenerD0Ev
FN:1035,_ZN7testing8internal17StreamingListenerD2Ev
FN:1038,_ZN7testing8internal17StreamingListener20AbstractSocketWriterC2Ev
FN:1040,_ZN7testing8internal17StreamingListener20AbstractSocketWriterD2Ev
FN:1040,_ZN7testing8internal17StreamingListener20AbstractSocketWriterD0Ev
FN:1046,_ZN7testing8internal17StreamingListener20AbstractSocketWriter15CloseConnectionEv
FN:1049,_ZN7testing8internal17StreamingListener20AbstractSocketWriter6SendLnERKNSt7__cxx1112basic_stringIcSt11char_traitsIcESaIcEEE
FN:1057,_ZN7testing8internal17StreamingListener12SocketWriterC2ERKNSt7__cxx1112basic_stringIcSt11char_traitsIcESaIcEEESA_
FN:1062,_ZN7testing8internal17StreamingListener12SocketWriterD2Ev
FN:1062,_ZN7testing8internal17StreamingListener12SocketWriterD0Ev
FN:1068,_ZN7testing8internal17StreamingListener12SocketWriter4SendERKNSt7__cxx1112basic_stringIcSt11char_traitsIcESaIcEEE
FN:1085,_ZN7testing8internal17StreamingListener12SocketWriter15CloseConnectionEv
FN:1103,_ZN7testing8internal17StreamingListenerC2ERKNSt7__cxx1112basic_stringIcSt11char_traitsIcESaIcEEES9_
FN:1109,_ZN7testing8internal17StreamingListener18OnTestProgramStartERKNS_8UnitTestE
FN:1113,_ZN7testing8internal17StreamingListener16OnTestProgramEndERKNS_8UnitTestE
FN:1122,_ZN7testing8internal17StreamingListener20OnTestIterationStartERKNS_8UnitTestEi
FN:1127,_ZN7testing8internal17StreamingListener18OnTestIterationEndERKNS_8UnitTestEi
FN:1133,_ZN7testing8internal17StreamingListener15OnTestCaseStartERKNS_8TestCaseE
FN:1137,_ZN7testing8internal17StreamingListener13OnTestCaseEndERKNS_8TestCaseE
FN:1143,_ZN7testing8internal17StreamingListener11OnTestStartERKNS_8TestInfoE
FN:1147,_ZN7testing8internal17StreamingListener9OnTestEndERKNS_8TestInfoE
FN:1154,_ZN7testing8internal17StreamingListener16OnTestPartResultERKNS_14TestPartResultE
FN:1165,_ZN7testing8internal17StreamingListener6SendLnERKNSt7__cxx1112basic_stringIcSt11char_traitsIcESaIcEEE
FN:1169,_ZN7testing8internal17StreamingListener5StartEv
FN:1171,_ZN7testing8internal17StreamingListener10FormatBoolB5cxx11Eb
FNDA:0,_ZN7testing8internal21GetRandomSeedFromFlagEi
FNDA:0,_ZN7testing8internal17GetNextRandomSeedEi
FNDA:3,_ZN7testing8internal14GTestFlagSaverC2Ev
FNDA:3,_ZN7testing8internal14GTestFlagSaverD2Ev
FNDA:27,_ZN7testing8internal7CountIfISt6vectorIPNS_8TestInfoESaIS4_EEPFbPKS3_EEEiRKT_T0_
FNDA:7,_ZN7testing8internal7CountIfISt6vectorINS_14TestPartResultESaIS3_EEPFbRKS3_EEEiRKT_T0_
FNDA:4,_ZN7testing8internal7CountIfISt6vectorIPNS_8TestCaseESaIS4_EEPFbPKS3_EEEiRKT_T0_
FNDA:2,_ZN7testing8internal7ForEachISt6vectorIPNS_11EnvironmentESaIS4_EEPFvS4_EEEvRKT_T0_
FNDA:1,_ZN7testing8internal7ForEachISt6vectorIPNS_17TestEventListenerESaIS4_EEPFvS4_EEEvRKT_T0_
FNDA:6,_ZN7testing8internal7ForEachISt6vectorIPNS_8TestInfoESaIS4_EEPFvS4_EEEvRKT_T0_
FNDA:2,_ZN7testing8internal7ForEachISt6vectorIPNS_8TestCaseESaIS4_EEPFvS4_EEEvRKT_T0_
FNDA:6,_ZN7testing8internal12GetElementOrIiEET_RKSt6vectorIS2_SaIS2_EEiS2_
FNDA:0,_ZN7testing8internal12ShuffleRangeIiEEvPNS0_6RandomEiiPSt6vectorIT_SaIS5_EE
FNDA:0,_ZN7testing8internal7ShuffleIiEEvPNS0_6RandomEPSt6vectorIT_SaIS5_EE
FNDA:0,_ZN7testing8internalL6DeleteINS_11EnvironmentEEEvPT_
FNDA:3,_ZN7testing8internalL6DeleteINS_8TestCaseEEEvPT_
FNDA:1,_ZN7testing8internalL6DeleteINS_17TestEventListenerEEEvPT_
FNDA:3,_ZN7testing8internalL6DeleteINS_8TestInfoEEEvPT_
FNDA:0,_ZN7testing8internal17TestPropertyKeyIsC2ERKS1_
FNDA:0,_ZN7testing8internal17TestPropertyKeyIsC2EOS1_
FNDA:0,_ZN7testing8internal17TestPropertyKeyIsD2Ev
FNDA:0,_ZN7testing8internal17TestPropertyKeyIsC2ERKNSt7__cxx1112basic_stringIcSt11char_traitsIcESaIcEEE
FNDA:0,_ZNK7testing8internal17TestPropertyKeyIsclERKNS_12TestPropertyE
FNDA:1,_ZN7testing8internal27OsStackTraceGetterInterfaceC2Ev
FNDA:0,_ZN7testing8internal27OsStackTraceGetterInterfaceD0Ev
FNDA:1,_ZN7testing8internal27OsStackTraceGetterInterfaceD2Ev
FNDA:1,_ZN7testing8internal18OsStackTraceGetterD0Ev
FNDA:1,_ZN7testing8internal18OsStackTraceGetterD2Ev
FNDA:1,_ZN7testing8internal18OsStackTraceGetterC2Ev
FNDA:0,_ZN7testing8internal9TraceInfoC2EOS1_
FNDA:0,_ZN7testing8internal9TraceInfoC2ERKS1_
FNDA:0,_ZN7testing8internal9TraceInfoD2Ev
FNDA:0,_ZN7testing8internal9TraceInfoC2Ev
FNDA:0,_ZN7testing8internal35DefaultGlobalTestPartResultReporterD0Ev
FNDA:1,_ZN7testing8internal35DefaultGlobalTestPartResultReporterD2Ev
FNDA:0,_ZN7testing8internal38DefaultPerThreadTestPartResultReporterD0Ev
FNDA:1,_ZN7testing8internal38DefaultPerThreadTestPartResultReporterD2Ev
FNDA:0,_ZNK7testing8internal12UnitTestImpl15start_timestampEv
FNDA:1,_ZNK7testing8internal12UnitTestImpl12elapsed_timeEv
FNDA:2,_ZNK7testing8internal12UnitTestImpl6PassedEv
FNDA:2,_ZNK7testing8internal12UnitTestImpl6FailedEv
FNDA:0,_ZNK7testing8internal12UnitTestImpl11GetTestCaseEi
FNDA:3,_ZN7testing8internal12UnitTestImpl18GetMutableTestCaseEi
FNDA:8,_ZN7testing8internal12UnitTestImpl9listenersEv
FNDA:2,_ZNK7testing8internal12UnitTestImpl18ad_hoc_test_resultEv
FNDA:3,_ZN7testing8internal12UnitTestImpl11AddTestInfoEPFvvES3_PNS_8TestInfoE
FNDA:0,_ZN7testing8internal12UnitTestImpl27parameterized_test_registryEv
FNDA:6,_ZN7testing8internal12UnitTestImpl21set_current_test_caseEPNS_8TestCaseE
FNDA:6,_ZN7testing8internal12UnitTestImpl21set_current_test_infoEPNS_8TestInfoE
FNDA:1,_ZN7testing8internal12UnitTestImpl23ClearNonAdHocTestResultEv
FNDA:3,_ZNK7testing8internal12UnitTestImpl17current_test_caseEv
FNDA:3,_ZN7testing8internal12UnitTestImpl17current_test_infoEv
FNDA:0,_ZNK7testing8internal12UnitTestImpl17current_test_infoEv
FNDA:0,_ZN7testing8internal12UnitTestImpl12environmentsEv
FNDA:0,_ZN7testing8internal12UnitTestImpl17gtest_trace_stackEv
FNDA:1,_ZN7testing8internal12UnitTestImpl34InitDeathTestSubprocessControlInfoEv
FNDA:0,_ZNK7testing8internal12UnitTestImpl28internal_run_death_test_flagEv
FNDA:0,_ZN7testing8internal12UnitTestImpl18death_test_factoryEv
FNDA:0,_ZNK7testing8internal12UnitTestImpl11random_seedEv
FNDA:0,_ZN7testing8internal12UnitTestImpl6randomEv
FNDA:22,_ZNK7testing8internal12UnitTestImpl16catch_exceptionsEv
FNDA:1,_ZN7testing8internal12UnitTestImpl20set_catch_exceptionsEb
FNDA:45,_ZN7testing8internal15GetUnitTestImplEv
FNDA:0,_ZN7testing8internal18ParseNaturalNumberIiEEbRKNSt7__cxx1112basic_stringIcSt11char_traitsIcESaIcEEEPT_
FNDA:0,_ZN7testing8internal17StreamingListenerD0Ev
FNDA:0,_ZN7testing8internal17StreamingListenerD2Ev
FNDA:0,_ZN7testing8internal17StreamingListener20AbstractSocketWriterC2Ev
FNDA:0,_ZN7testing8internal17StreamingListener20AbstractSocketWriterD0Ev
FNDA:0,_ZN7testing8internal17StreamingListener20AbstractSocketWriterD2Ev
FNDA:0,_ZN7testing8internal17StreamingListener20AbstractSocketWriter15CloseConnectionEv
FNDA:0,_ZN7testing8internal17StreamingListener20AbstractSocketWriter6SendLnERKNSt7__cxx1112basic_stringIcSt11char_traitsIcESaIcEEE
FNDA:0,_ZN7testing8internal17StreamingListener12SocketWriterC2ERKNSt7__cxx1112basic_stringIcSt11char_traitsIcESaIcEEESA_
FNDA:0,_ZN7testing8internal17StreamingListener12SocketWriterD0Ev
FNDA:0,_ZN7testing8internal17StreamingListener12SocketWriterD2Ev
FNDA:0,_ZN7testing8internal17StreamingListener12SocketWriter4SendERKNSt7__cxx1112basic_stringIcSt11char_traitsIcESaIcEEE
FNDA:0,_ZN7testing8internal17StreamingListener12SocketWriter15CloseConnectionEv
FNDA:0,_ZN7testing8internal17StreamingListenerC2ERKNSt7__cxx1112basic_stringIcSt11char_traitsIcESaIcEEES9_
FNDA:0,_ZN7testing8internal17StreamingListener18OnTestProgramStartERKNS_8UnitTestE
FNDA:0,_ZN7testing8internal17StreamingListener16OnTestProgramEndERKNS_8UnitTestE
FNDA:0,_ZN7testing8internal17StreamingListener20OnTestIterationStartERKNS_8UnitTestEi
FNDA:0,_ZN7testing8internal17StreamingListener18OnTestIterationEndERKNS_8UnitTestEi
FNDA:0,_ZN7testing8internal17StreamingListener15OnTestCaseStartERKNS_8TestCaseE
FNDA:0,_ZN7testing8internal17StreamingListener13OnTestCaseEndERKNS_8TestCaseE
FNDA:0,_ZN7testing8internal17StreamingListener11OnTestStartERKNS_8TestInfoE
FNDA:0,_ZN7testing8internal17StreamingListener9OnTestEndERKNS_8TestInfoE
FNDA:0,_ZN7testing8internal17StreamingListener16OnTestPartResultERKNS_14TestPartResultE
FNDA:0,_ZN7testing8internal17StreamingListener6SendLnERKNSt7__cxx1112basic_stringIcSt11char_traitsIcESaIcEEE
FNDA:0,_ZN7testing8internal17StreamingListener5StartEv
FNDA:0,_ZN7testing8internal17StreamingListener10FormatBoolB5cxx11Eb
FNF:89
FNH:36
DA:136,0
DA:137,0
DA:138,0
DA:139,0
DA:143,0
DA:144,0
DA:146,0
DA:152,0
DA:153,0
DA:154,0
DA:155,0
DA:156,0
DA:157,0
DA:165,3
DA:166,3
DA:167,3
DA:168,3
DA:169,3
DA:170,3
DA:171,3
DA:172,3
DA:173,3
DA:174,3
DA:175,3
DA:176,3
DA:177,3
DA:178,3
DA:179,3
DA:180,3
DA:181,3
DA:182,3
DA:183,3
DA:186,6
DA:187,3
DA:188,3
DA:189,3
DA:190,3
DA:191,3
DA:192,3
DA:193,3
DA:194,3
DA:195,3
DA:196,3
DA:197,3
DA:198,3
DA:199,3
DA:200,3
DA:201,3
DA:202,3
DA:203,3
DA:204,3
DA:283,38
DA:286,38
DA:287,77
DA:288,39
DA:289,21
DA:291,38
DA:296,11
DA:297,11
DA:298,11
DA:303,6
DA:304,6
DA:312,0
DA:314,0
DA:315,0
DA:316,0
DA:317,0
DA:318,0
DA:319,0
DA:320,0
DA:324,0
DA:325,0
DA:326,0
DA:327,0
DA:329,0
DA:333,0
DA:334,0
DA:335,0
DA:340,7
DA:341,7
DA:342,7
DA:347,0
DA:352,0
DA:355,0
DA:356,0
DA:420,1
DA:421,1
DA:445,2
DA:447,1
DA:457,0
DA:465,1
DA:481,1
DA:561,0
DA:564,1
DA:567,2
DA:571,2
DA:572,2
DA:577,0
DA:578,0
DA:579,0
DA:584,3
DA:585,3
DA:586,3
DA:590,8
DA:597,2
DA:645,3
DA:655,3
DA:656,1
DA:657,1
DA:658,0
DA:664,3
DA:665,3
DA:670,0
DA:671,0
DA:676,6
DA:677,6
DA:678,6
DA:683,6
DA:684,6
DA:685,6
DA:702,1
DA:703,1
DA:704,1
DA:733,3
DA:734,3
DA:735,0
DA:739,0
DA:742,0
DA:743,0
DA:750,1
DA:751,1
DA:752,1
DA:757,0
DA:758,0
DA:762,0
DA:763,0
DA:789,0
DA:792,0
DA:803,22
DA:810,1
DA:927,45
DA:928,45
DA:967,0
DA:971,0
DA:972,0
DA:974,0
DA:989,0
DA:993,0
DA:997,0
DA:999,0
DA:1000,0
DA:1001,0
DA:1002,0
DA:1004,0
DA:1035,0
DA:1038,0
DA:1040,0
DA:1046,0
DA:1049,0
DA:1050,0
DA:1051,0
DA:1057,0
DA:1058,0
DA:1059,0
DA:1060,0
DA:1062,0
DA:1063,0
DA:1064,0
DA:1065,0
DA:1068,0
DA:1069,0
DA:1070,0
DA:1072,0
DA:1073,0
DA:1074,0
DA:1076,0
DA:1078,0
DA:1085,0
DA:1086,0
DA:1087,0
DA:1089,0
DA:1090,0
DA:1091,0
DA:1103,0
DA:1104,0
DA:1109,0
DA:1110,0
DA:1111,0
DA:1113,0
DA:1116,0
DA:1119,0
DA:1120,0
DA:1122,0
DA:1123,0
DA:1124,0
DA:1125,0
DA:1127,0
DA:1128,0
DA:1129,0
DA:1130,0
DA:1131,0
DA:1133,0
DA:1134,0
DA:1135,0
DA:1137,0
DA:1138,0
DA:1139,0
DA:1140,0
DA:1141,0
DA:1143,0
DA:1144,0
DA:1145,0
DA:1147,0
DA:1148,0
DA:1149,0
DA:1150,0
DA:1151,0
DA:1152,0
DA:1154,0
DA:1155,0
DA:1156,0
DA:1157,0
DA:1158,0
DA:1159,0
DA:1160,0
DA:1161,0
DA:1165,0
DA:1169,0
DA:1171,0
LF:229
LH:91
end_of_record
SF:/src/CppUnitTestDemo/OpenCppCoverageDemo/imports/googletest/googletest/src/gtest-port.cc
FN:96,_ZN7testing8internal12_GLOBAL__N_117ReadProcFileFieldIiEET_RKNSt7__cxx1112basic_stringIcSt11char_traitsIcESaIcEEEi
FN:109,_ZN7testing8internal14GetThreadCountEv
FN:564,_ZN7testing8internal2RED2Ev
FN:577,_ZN7testing8internal2RE9FullMatchEPKcRKS1_
FN:586,_ZN7testing8internal2RE12PartialMatchEPKcRKS1_
FN:594,_ZN7testing8internal2RE4InitEPKc
FN:880,_ZN7testing8internal18FormatFileLocationB5cxx11EPKci
FN:898,_ZN7testing8internal37FormatCompilerIndependentFileLocationB5cxx11EPKci
FN:908,_ZN7testing8internal8GTestLogC2ENS0_16GTestLogSeverityEPKci
FN:919,_ZN7testing8internal8GTestLogD2Ev
FN:936,_ZN7testing8internal14CapturedStreamC2Ei
FN:984,_ZN7testing8internal14CapturedStreamD2Ev
FN:988,_ZN7testing8internal14CapturedStream17GetCapturedStringB5cxx11Ev
FN:1018,_ZN7testing8internal13CaptureStreamEiPKcPPNS0_14CapturedStreamE
FN:1027,_ZN7testing8internal17GetCapturedStreamB5cxx11EPPNS0_14CapturedStreamE
FN:1037,_ZN7testing8internal13CaptureStdoutEv
FN:1042,_ZN7testing8internal13CaptureStderrEv
FN:1047,_ZN7testing8internal17GetCapturedStdoutB5cxx11Ev
FN:1052,_ZN7testing8internal17GetCapturedStderrB5cxx11Ev
FN:1058,_ZN7testing8internal7TempDirB5cxx11Ev
FN:1076,_ZN7testing8internal11GetFileSizeEP8_IO_FILE
FN:1081,_ZN7testing8internal14ReadEntireFileB5cxx11EP8_IO_FILE
FN:1108,_ZN7testing8internal18SetInjectableArgvsEPKSt6vectorINSt7__cxx1112basic_stringIcSt11char_traitsIcESaIcEEESaIS7_EE
FN:1114,_ZN7testing8internal18GetInjectableArgvsB5cxx11Ev
FN:1134,_ZN7testing8internalL12FlagToEnvVarEPKc
FN:1149,_ZN7testing8internal10ParseInt32ERKNS_7MessageEPKcPi
FN:1191,_ZN7testing8internal16BoolFromGTestEnvEPKcb
FN:1204,_ZN7testing8internal17Int32FromGTestEnvEPKci
FN:1229,_ZN7testing8internal18StringFromGTestEnvB5cxx11EPKcS2_
FNDA:0,_ZN7testing8internal12_GLOBAL__N_117ReadProcFileFieldIiEET_RKNSt7__cxx1112basic_stringIcSt11char_traitsIcESaIcEEEi
FNDA:0,_ZN7testing8internal14GetThreadCountEv
FNDA:0,_ZN7testing8internal2RED2Ev
FNDA:0,_ZN7testing8internal2RE9FullMatchEPKcRKS1_
FNDA:0,_ZN7testing8internal2RE12PartialMatchEPKcRKS1_
FNDA:0,_ZN7testing8internal2RE4InitEPKc
FNDA:0,_ZN7testing8internal18FormatFileLocationB5cxx11EPKci
FNDA:0,_ZN7testing8internal37FormatCompilerIndependentFileLocationB5cxx11EPKci
FNDA:0,_ZN7testing8internal8GTestLogC2ENS0_16GTestLogSeverityEPKci
FNDA:0,_ZN7testing8internal8GTestLogD2Ev
FNDA:0,_ZN7testing8internal14CapturedStreamC2Ei
FNDA:0,_ZN7testing8internal14CapturedStreamD2Ev
FNDA:0,_ZN7testing8internal14CapturedStream17GetCapturedStringB5cxx11Ev
FNDA:0,_ZN7testing8internal13CaptureStreamEiPKcPPNS0_14CapturedStreamE
FNDA:0,_ZN7testing8internal17GetCapturedStreamB5cxx11EPPNS0_14CapturedStreamE
FNDA:0,_ZN7testing8internal13CaptureStdoutEv
FNDA:0,_ZN7testing8internal13CaptureStderrEv
FNDA:0,_ZN7testing8internal17GetCapturedStdoutB5cxx11Ev
FNDA:0,_ZN7testing8internal17GetCapturedStderrB5cxx11Ev
FNDA:0,_ZN7testing8internal7TempDirB5cxx11Ev
FNDA:0,_ZN7testing8internal11GetFileSizeEP8_IO_FILE
FNDA:0,_ZN7testing8internal14ReadEntireFileB5cxx11EP8_IO_FILE
FNDA:0,_ZN7testing8internal18SetInjectableArgvsEPKSt6vectorINSt7__cxx1112basic_stringIcSt11char_traitsIcESaIcEEESaIS7_EE
FNDA:0,_ZN7testing8internal18GetInjectableArgvsB5cxx11Ev
FNDA:16,_ZN7testing8internalL12FlagToEnvVarEPKc
FNDA:0,_ZN7testing8internal10ParseInt32ERKNS_7MessageEPKcPi
FNDA:7,_ZN7testing8internal16BoolFromGTestEnvEPKcb
FNDA:3,_ZN7testing8internal17Int32FromGTestEnvEPKci
FNDA:6,_ZN7testing8internal18StringFromGTestEnvB5cxx11EPKcS2_
FNF:29
FNH:4
DA:96,0
DA:97,0
DA:98,0
DA:99,0
DA:100,0
DA:102,0
DA:103,0
DA:104,0
DA:109,0
DA:111,0
DA:112,0
DA:564,0
DA:565,0
DA:570,0
DA:571,0
DA:573,0
DA:574,0
DA:577,0
DA:578,0
DA:581,0
DA:586,0
DA:587,0
DA:590,0
DA:594,0
DA:595,0
DA:599,0
DA:600,0
DA:602,0
DA:603,0
DA:612,0
DA:613,0
DA:614,0
DA:616,0
DA:617,0
DA:618,0
DA:620,0
DA:621,0
DA:880,0
DA:881,0
DA:883,0
DA:884,0
DA:889,0
DA:898,0
DA:900,0
DA:902,0
DA:903,0
DA:905,0
DA:908,0
DA:909,0
DA:910,0
DA:914,0
DA:915,0
DA:916,0
DA:919,0
DA:920,0
DA:921,0
DA:922,0
DA:923,0
DA:925,0
DA:936,0
DA:974,0
DA:976,0
DA:977,0
DA:979,0
DA:980,0
DA:981,0
DA:982,0
DA:984,0
DA:985,0
DA:986,0
DA:988,0
DA:989,0
DA:991,0
DA:992,0
DA:993,0
DA:994,0
DA:997,0
DA:998,0
DA:999,0
DA:1000,0
DA:1018,0
DA:1019,0
DA:1020,0
DA:1021,0
DA:1023,0
DA:1024,0
DA:1027,0
DA:1028,0
DA:1030,0
DA:1031,0
DA:1033,0
DA:1037,0
DA:1038,0
DA:1039,0
DA:1042,0
DA:1043,0
DA:1044,0
DA:1047,0
DA:1048,0
DA:1052,0
DA:1053,0
DA:1058,0
DA:1072,0
DA:1076,0
DA:1077,0
DA:1078,0
DA:1081,0
DA:1082,0
DA:1083,0
DA:1085,0
DA:1086,0
DA:1088,0
DA:1092,0
DA:1093,0
DA:1094,0
DA:1095,0
DA:1097,0
DA:1098,0
DA:1100,0
DA:1108,0
DA:1109,0
DA:1110,0
DA:1111,0
DA:1112,0
DA:1114,0
DA:1115,0
DA:1116,0
DA:1118,0
DA:1134,16
DA:1136,32
DA:1138,32
DA:1139,310
DA:1140,294
DA:1143,32
DA:1149,0
DA:1151,0
DA:1152,0
DA:1155,0
DA:1157,0
DA:1158,0
DA:1159,0
DA:1160,0
DA:1161,0
DA:1162,0
DA:1163,0
DA:1167,0
DA:1168,0
DA:1171,0
DA:1174,0
DA:1175,0
DA:1176,0
DA:1177,0
DA:1178,0
DA:1179,0
DA:1180,0
DA:1183,0
DA:1184,0
DA:1191,7
DA:1195,14
DA:1196,7
DA:1197,7
DA:1198,14
DA:1204,3
DA:1208,6
DA:1209,3
DA:1210,3
DA:1212,3
DA:1215,0
DA:1216,0
DA:1218,0
DA:1219,0
DA:1220,0
DA:1221,0
DA:1224,0
DA:1229,6
DA:1233,12
DA:1234,6
DA:1235,6
DA:1236,0
DA:1249,6
DA:1250,1
DA:1251,1
DA:1252,0
DA:1255,6
LF:184
LH:24
end_of_record
SF:/src/CppUnitTestDemo/OpenCppCoverageDemo/imports/googletest/googletest/src/gtest-printers.cc
FN:63,_ZN7testing12_GLOBAL__N_126PrintByteSegmentInObjectToEPKhmmPSo
FN:82,_ZN7testing12_GLOBAL__N_124PrintBytesInObjectToImplEPKhmPSo
FN:114,_ZN7testing9internal220PrintBytesInObjectToEPKhmPSo
FN:137,_ZN7testing8internal16IsPrintableAsciiEw
FN:146,_ZN7testing8internalL20PrintAsCharLiteralToIhhEENS0_10CharFormatET0_PSo
FN:146,_ZN7testing8internalL20PrintAsCharLiteralToIhaEENS0_10CharFormatET0_PSo
FN:146,_ZN7testing8internalL20PrintAsCharLiteralToIwwEENS0_10CharFormatET0_PSo
FN:192,_ZN7testing8internalL22PrintAsStringLiteralToEwPSo
FN:207,_ZN7testing8internalL22PrintAsStringLiteralToEcPSo
FN:217,_ZN7testing8internal18PrintCharAndCodeToIhaEEvT0_PSo
FN:217,_ZN7testing8internal18PrintCharAndCodeToIhhEEvT0_PSo
FN:217,_ZN7testing8internal18PrintCharAndCodeToIwwEEvT0_PSo
FN:241,_ZN7testing8internal7PrintToEhPSo
FN:244,_ZN7testing8internal7PrintToEaPSo
FN:250,_ZN7testing8internal7PrintToEwPSo
FN:262,_ZN7testing8internalL20PrintCharsAsStringToIwEEvPKT_mPSo
FN:262,_ZN7testing8internalL20PrintCharsAsStringToIcEEvPKT_mPSo
FN:286,_ZN7testing8internalL23UniversalPrintCharArrayIcEEvPKT_mPSo
FN:286,_ZN7testing8internalL23UniversalPrintCharArrayIwEEvPKT_mPSo
FN:309,_ZN7testing8internal19UniversalPrintArrayEPKcmPSo
FN:315,_ZN7testing8internal19UniversalPrintArrayEPKwmPSo
FN:320,_ZN7testing8internal7PrintToEPKcPSo
FN:337,_ZN7testing8internal7PrintToEPKwPSo
FN:354,_ZN7testing8internal13PrintStringToERKNSt7__cxx1112basic_stringIcSt11char_traitsIcESaIcEEEPSo
FN:366,_ZN7testing8internal17PrintWideStringToERKNSt7__cxx1112basic_stringIwSt11char_traitsIwESaIwEEEPSo
FNDA:0,_ZN7testing12_GLOBAL__N_126PrintByteSegmentInObjectToEPKhmmPSo
FNDA:0,_ZN7testing12_GLOBAL__N_124PrintBytesInObjectToImplEPKhmPSo
FNDA:0,_ZN7testing9internal220PrintBytesInObjectToEPKhmPSo
FNDA:0,_ZN7testing8internal16IsPrintableAsciiEw
FNDA:0,_ZN7testing8internalL20PrintAsCharLiteralToIhaEENS0_10CharFormatET0_PSo
FNDA:0,_ZN7testing8internalL20PrintAsCharLiteralToIhhEENS0_10CharFormatET0_PSo
FNDA:0,_ZN7testing8internalL20PrintAsCharLiteralToIwwEENS0_10CharFormatET0_PSo
FNDA:0,_ZN7testing8internalL22PrintAsStringLiteralToEwPSo
FNDA:0,_ZN7testing8internalL22PrintAsStringLiteralToEcPSo
FNDA:0,_ZN7testing8internal18PrintCharAndCodeToIwwEEvT0_PSo
FNDA:0,_ZN7testing8internal18PrintCharAndCodeToIhaEEvT0_PSo
FNDA:0,_ZN7testing8internal18PrintCharAndCodeToIhhEEvT0_PSo
FNDA:0,_ZN7testing8internal7PrintToEhPSo
FNDA:0,_ZN7testing8internal7PrintToEaPSo
FNDA:0,_ZN7testing8internal7PrintToEwPSo
FNDA:0,_ZN7testing8internalL20PrintCharsAsStringToIwEEvPKT_mPSo
FNDA:0,_ZN7testing8internalL20PrintCharsAsStringToIcEEvPKT_mPSo
FNDA:0,_ZN7testing8internalL23UniversalPrintCharArrayIwEEvPKT_mPSo
FNDA:0,_ZN7testing8internalL23UniversalPrintCharArrayIcEEvPKT_mPSo
FNDA:0,_ZN7testing8internal19UniversalPrintArrayEPKcmPSo
FNDA:0,_ZN7testing8internal19UniversalPrintArrayEPKwmPSo
FNDA:0,_ZN7testing8internal7PrintToEPKcPSo
FNDA:0,_ZN7testing8internal7PrintToEPKwPSo
FNDA:0,_ZN7testing8internal13PrintStringToERKNSt7__cxx1112basic_stringIcSt11char_traitsIcESaIcEEEPSo
FNDA:0,_ZN7testing8internal17PrintWideStringToERKNSt7__cxx1112basic_stringIwSt11char_traitsIwESaIwEEEPSo
FNF:25
FNH:0
DA:63,0
DA:65,0
DA:66,0
DA:67,0
DA:68,0
DA:71,0
DA:72,0
DA:74,0
DA:76,0
DA:77,0
DA:79,0
DA:82,0
DA:85,0
DA:87,0
DA:88,0
DA:93,0
DA:94,0
DA:96,0
DA:97,0
DA:99,0
DA:100,0
DA:102,0
DA:103,0
DA:114,0
DA:116,0
DA:117,0
DA:137,0
DA:138,0
DA:146,0
DA:147,0
DA:148,0
DA:149,0
DA:150,0
DA:151,0
DA:152,0
DA:153,0
DA:154,0
DA:155,0
DA:156,0
DA:157,0
DA:158,0
DA:159,0
DA:160,0
DA:161,0
DA:162,0
DA:163,0
DA:164,0
DA:165,0
DA:166,0
DA:167,0
DA:168,0
DA:169,0
DA:170,0
DA:171,0
DA:172,0
DA:173,0
DA:174,0
DA:175,0
DA:176,0
DA:177,0
DA:178,0
DA:179,0
DA:180,0
DA:181,0
DA:183,0
DA:184,0
DA:187,0
DA:192,0
DA:193,0
DA:194,0
DA:195,0
DA:196,0
DA:197,0
DA:198,0
DA:199,0
DA:200,0
DA:201,0
DA:207,0
DA:208,0
DA:209,0
DA:217,0
DA:219,0
DA:220,0
DA:221,0
DA:226,0
DA:227,0
DA:228,0
DA:233,0
DA:236,0
DA:238,0
DA:241,0
DA:242,0
DA:243,0
DA:244,0
DA:245,0
DA:246,0
DA:250,0
DA:251,0
DA:252,0
DA:262,0
DA:264,0
DA:265,0
DA:266,0
DA:267,0
DA:268,0
DA:269,0
DA:273,0
DA:275,0
DA:277,0
DA:278,0
DA:286,0
DA:295,0
DA:296,0
DA:297,0
DA:304,0
DA:305,0
DA:309,0
DA:310,0
DA:311,0
DA:315,0
DA:316,0
DA:317,0
DA:320,0
DA:321,0
DA:322,0
DA:324,0
DA:325,0
DA:327,0
DA:337,0
DA:338,0
DA:339,0
DA:341,0
DA:342,0
DA:344,0
DA:354,0
DA:355,0
DA:356,0
DA:366,0
DA:367,0
DA:368,0
LF:140
LH:0
end_of_record
SF:/src/CppUnitTestDemo/OpenCppCoverageDemo/imports/googletest/googletest/src/gtest-test-part.cc
FN:51,_ZN7testing14TestPartResult14ExtractSummaryB5cxx11EPKc
FN:58,_ZN7testinglsERSoRKNS_14TestPartResultE
FN:68,_ZN7testing19TestPartResultArray6AppendERKNS_14TestPartResultE
FN:73,_ZNK7testing19TestPartResultArray17GetTestPartResultEi
FN:83,_ZNK7testing19TestPartResultArray4sizeEv
FN:89,_ZN7testing8internal24HasNewFatalFailureHelperC2Ev
FN:96,_ZN7testing8internal24HasNewFatalFailureHelperD0Ev
FN:96,_ZN7testing8internal24HasNewFatalFailureHelperD2Ev
FN:101,_ZN7testing8internal24HasNewFatalFailureHelper20ReportTestPartResultERKNS_14TestPartResultE
FNDA:0,_ZN7testing14TestPartResult14ExtractSummaryB5cxx11EPKc
FNDA:0,_ZN7testinglsERSoRKNS_14TestPartResultE
FNDA:0,_ZN7testing19TestPartResultArray6AppendERKNS_14TestPartResultE
FNDA:0,_ZNK7testing19TestPartResultArray17GetTestPartResultEi
FNDA:0,_ZNK7testing19TestPartResultArray4sizeEv
FNDA:0,_ZN7testing8internal24HasNewFatalFailureHelperC2Ev
FNDA:0,_ZN7testing8internal24HasNewFatalFailureHelperD0Ev
FNDA:0,_ZN7testing8internal24HasNewFatalFailureHelperD2Ev
FNDA:0,_ZN7testing8internal24HasNewFatalFailureHelper20ReportTestPartResultERKNS_14TestPartResultE
FNF:9
FNH:0
DA:51,0
DA:52,0
DA:54,0
DA:58,0
DA:60,0
DA:61,0
DA:62,0
DA:64,0
DA:68,0
DA:69,0
DA:70,0
DA:73,0
DA:74,0
DA:75,0
DA:76,0
DA:79,0
DA:83,0
DA:84,0
DA:89,0
DA:92,0
DA:93,0
DA:94,0
DA:96,0
DA:97,0
DA:99,0
DA:101,0
DA:103,0
DA:104,0
DA:105,0
DA:106,0
LF:30
LH:0
end_of_record
SF:/src/CppUnitTestDemo/OpenCppCoverageDemo/imports/googletest/googletest/src/gtest-typed-test.cc
FN:42,_ZN7testing8internalL10SkipSpacesEPKc
FN:48,_ZN7testing8internalL18SplitIntoTestNamesEPKc
FN:60,_ZN7testing8internal19TypedTestCasePState25VerifyRegisteredTestNamesEPKciS3_
FN:118,_GLOBAL__sub_I__ZN7testing8internal17kStackTraceMarkerE
FNDA:0,_ZN7testing8internalL10SkipSpacesEPKc
FNDA:0,_ZN7testing8internalL18SplitIntoTestNamesEPKc
FNDA:0,_ZN7testing8internal19TypedTestCasePState25VerifyRegisteredTestNamesEPKciS3_
FNDA:1,_GLOBAL__sub_I__ZN7testing8internal17kStackTraceMarkerE
FNDA:1,_Z41__static_initialization_and_destruction_0ii
FNF:5
FNH:2
DA:42,0
DA:43,0
DA:44,0
DA:45,0
DA:48,0
DA:49,0
DA:50,0
DA:51,0
DA:52,0
DA:54,0
DA:60,0
DA:63,0
DA:65,0
DA:67,0
DA:69,0
DA:70,0
DA:71,0
DA:72,0
DA:73,0
DA:74,0
DA:75,0
DA:78,0
DA:79,0
DA:80,0
DA:82,0
DA:83,0
DA:84,0
DA:88,0
DA:89,0
DA:91,0
DA:92,0
DA:96,0
DA:97,0
DA:99,0
DA:100,0
DA:104,0
DA:105,0
DA:106,0
DA:108,0
DA:109,0
DA:112,0
DA:118,3
LF:42
LH:1
end_of_record
SF:/src/CppUnitTestDemo/OpenCppCoverageDemo/imports/googletest/googletest/src/gtest.cc
FN:192,_ZN7testingL16GetDefaultFilterEv
FN:311,_ZN7testing8internal6Random8GenerateEj
FN:330,_ZN7testing8internalL18GTestIsInitializedEv
FN:335,_ZN7testing8internalL19SumOverTestCaseListERKSt6vectorIPNS_8TestCaseESaIS3_EEMS2_KFivE
FN:345,_ZN7testing8internalL14TestCasePassedEPKNS_8TestCaseE
FN:350,_ZN7testing8internalL14TestCaseFailedEPKNS_8TestCaseE
FN:356,_ZN7testing8internalL17ShouldRunTestCaseEPKNS_8TestCaseE
FN:361,_ZN7testing8internal12AssertHelperC2ENS_14TestPartResult4TypeEPKciS5_
FN:368,_ZN7testing8internal12AssertHelperD2Ev
FN:373,_ZNK7testing8internal12AssertHelperaSERKNS_7MessageE
FN:389,_ZN7testing8internal8GetArgvsB5cxx11Ev
FN:399,_ZN7testing8internal24GetCurrentExecutableNameEv
FN:414,_ZN7testing8internal15UnitTestOptions15GetOutputFormatB5cxx11Ev
FN:426,_ZN7testing8internal15UnitTestOptions27GetAbsolutePathToOutputFileB5cxx11Ev
FN:462,_ZN7testing8internal15UnitTestOptions20PatternMatchesStringEPKcS3_
FN:479,_ZN7testing8internal15UnitTestOptions13MatchesFilterERKNSt7__cxx1112basic_stringIcSt11char_traitsIcESaIcEEEPKc
FN:502,_ZN7testing8internal15UnitTestOptions17FilterMatchesTestERKNSt7__cxx1112basic_stringIcSt11char_traitsIcESaIcEEES9_
FN:563,_ZN7testing32ScopedFakeTestPartResultReporterC2EPNS_19TestPartResultArrayE
FN:573,_ZN7testing32ScopedFakeTestPartResultReporterC2ENS0_13InterceptModeEPNS_19TestPartResultArrayE
FN:580,_ZN7testing32ScopedFakeTestPartResultReporter4InitEv
FN:593,_ZN7testing32ScopedFakeTestPartResultReporterD2Ev
FN:593,_ZN7testing32ScopedFakeTestPartResultReporterD0Ev
FN:604,_ZN7testing32ScopedFakeTestPartResultReporter20ReportTestPartResultERKNS_14TestPartResultE
FN:620,_ZN7testing8internal13GetTestTypeIdEv
FN:631,_ZN7testing8internal13HasOneFailureEPKcS2_S2_RKNS_19TestPartResultArrayENS_14TestPartResult4TypeERKNSt7__cxx1112basic_stringIcSt11char_traitsIcESaIcEEE
FN:670,_ZN7testing8internal20SingleFailureCheckerC2EPKNS_19TestPartResultArrayENS_14TestPartResult4TypeERKNSt7__cxx1112basic_stringIcSt11char_traitsIcESaIcEEE
FN:682,_ZN7testing8internal20SingleFailureCheckerD2Ev
FN:686,_ZN7testing8internal35DefaultGlobalTestPartResultReporterC2EPNS0_12UnitTestImplE
FN:689,_ZN7testing8internal35DefaultGlobalTestPartResultReporter20ReportTestPartResultERKNS_14TestPartResultE
FN:695,_ZN7testing8internal38DefaultPerThreadTestPartResultReporterC2EPNS0_12UnitTestImplE
FN:698,_ZN7testing8internal38DefaultPerThreadTestPartResultReporter20ReportTestPartResultERKNS_14TestPartResultE
FN:705,_ZN7testing8internal12UnitTestImpl31GetGlobalTestPartResultReporterEv
FN:711,_ZN7testing8internal12UnitTestImpl31SetGlobalTestPartResultReporterEPNS_31TestPartResultReporterInterfaceE
FN:719,_ZN7testing8internal12UnitTestImpl41GetTestPartResultReporterForCurrentThreadEv
FN:724,_ZN7testing8internal12UnitTestImpl41SetTestPartResultReporterForCurrentThreadEPNS_31TestPartResultReporterInterfaceE
FN:730,_ZNK7testing8internal12UnitTestImpl26successful_test_case_countEv
FN:735,_ZNK7testing8internal12UnitTestImpl22failed_test_case_countEv
FN:740,_ZNK7testing8internal12UnitTestImpl21total_test_case_countEv
FN:746,_ZNK7testing8internal12UnitTestImpl22test_case_to_run_countEv
FN:751,_ZNK7testing8internal12UnitTestImpl21successful_test_countEv
FN:756,_ZNK7testing8internal12UnitTestImpl17failed_test_countEv
FN:761,_ZNK7testing8internal12UnitTestImpl30reportable_disabled_test_countEv
FN:767,_ZNK7testing8internal12UnitTestImpl19disabled_test_countEv
FN:772,_ZNK7testing8internal12UnitTestImpl21reportable_test_countEv
FN:777,_ZNK7testing8internal12UnitTestImpl16total_test_countEv
FN:782,_ZNK7testing8internal12UnitTestImpl17test_to_run_countEv
FN:796,_ZN7testing8internal12UnitTestImpl28CurrentOsStackTraceExceptTopB5cxx11Ei
FN:806,_ZN7testing8internal15GetTimeInMillisEv
FN:894,_ZN7testing8internal6String13CStringEqualsEPKcS3_
FN:906,_ZN7testing8internalL24StreamWideCharsToMessageEPKwmPNS_7MessageE
FN:922,_ZN7testing8internal11SplitStringERKNSt7__cxx1112basic_stringIcSt11char_traitsIcESaIcEEEcPSt6vectorIS6_SaIS6_EE
FN:946,_ZN7testing7MessageC2Ev
FN:954,_ZN7testing7MessagelsEPKw
FN:957,_ZN7testing7MessagelsEPw
FN:964,_ZN7testing7MessagelsERKNSt7__cxx1112basic_stringIwSt11char_traitsIwESaIwEEE
FN:981,_ZNK7testing7Message9GetStringB5cxx11Ev
FN:987,_ZN7testing15AssertionResultC2ERKS0_
FN:995,_ZN7testing15AssertionResult4swapERS0_
FN:1002,_ZNK7testing15AssertionResultntEv
FN:1010,_ZN7testing16AssertionSuccessEv
FN:1015,_ZN7testing16AssertionFailureEv
FN:1021,_ZN7testing16AssertionFailureERKNS_7MessageE
FN:1028,_ZN7testing8internal13edit_distance21CalculateOptimalEditsERKSt6vectorImSaImEES6_
FN:1088,_ZN7testing8internal13edit_distance12_GLOBAL__N_115InternalStringsD2Ev
FN:1088,_ZN7testing8internal13edit_distance12_GLOBAL__N_115InternalStringsC2Ev
FN:1090,_ZN7testing8internal13edit_distance12_GLOBAL__N_115InternalStrings5GetIdERKNSt7__cxx1112basic_stringIcSt11char_traitsIcESaIcEEE
FN:1104,_ZN7testing8internal13edit_distance21CalculateOptimalEditsERKSt6vectorINSt7__cxx1112basic_stringIcSt11char_traitsIcESaIcEEESaIS8_EESC_
FN:1126,_ZN7testing8internal13edit_distance12_GLOBAL__N_14HunkD2Ev
FN:1128,_ZN7testing8internal13edit_distance12_GLOBAL__N_14HunkC2Emm
FN:1135,_ZN7testing8internal13edit_distance12_GLOBAL__N_14Hunk8PushLineEcPKc
FN:1153,_ZN7testing8internal13edit_distance12_GLOBAL__N_14Hunk7PrintToEPSo
FN:1163,_ZNK7testing8internal13edit_distance12_GLOBAL__N_14Hunk9has_editsEv
FN:1166,_ZN7testing8internal13edit_distance12_GLOBAL__N_14Hunk10FlushEditsEv
FN:1175,_ZNK7testing8internal13edit_distance12_GLOBAL__N_14Hunk11PrintHeaderEPSo
FN:1203,_ZN7testing8internal13edit_distance17CreateUnifiedDiffERKSt6vectorINSt7__cxx1112basic_stringIcSt11char_traitsIcESaIcEEESaIS8_EESC_m
FN:1272,_ZN7testing8internal12_GLOBAL__N_118SplitEscapedStringERKNSt7__cxx1112basic_stringIcSt11char_traitsIcESaIcEEE
FN:1312,_ZN7testing8internal9EqFailureEPKcS2_RKNSt7__cxx1112basic_stringIcSt11char_traitsIcESaIcEEESA_b
FN:1346,_ZN7testing8internal30GetBoolAssertionFailureMessageB5cxx11ERKNS_15AssertionResultEPKcS5_S5_
FN:1362,_ZN7testing8internal20DoubleNearPredFormatEPKcS2_S2_ddd
FN:1384,_ZN7testing8internal15FloatingPointLEIfEENS_15AssertionResultEPKcS4_T_S5_
FN:1384,_ZN7testing8internal15FloatingPointLEIdEENS_15AssertionResultEPKcS4_T_S5_
FN:1421,_ZN7testing7FloatLEEPKcS1_ff
FN:1428,_ZN7testing8DoubleLEEPKcS1_dd
FN:1437,_ZN7testing8internal11CmpHelperEQEPKcS2_xx
FN:1470,_ZN7testing8internal11CmpHelperNEEPKcS2_xx
FN:1473,_ZN7testing8internal11CmpHelperLEEPKcS2_xx
FN:1476,_ZN7testing8internal11CmpHelperLTEPKcS2_xx
FN:1479,_ZN7testing8internal11CmpHelperGEEPKcS2_xx
FN:1482,_ZN7testing8internal11CmpHelperGTEPKcS2_xx
FN:1487,_ZN7testing8internal14CmpHelperSTREQEPKcS2_S2_S2_
FN:1503,_ZN7testing8internal18CmpHelperSTRCASEEQEPKcS2_S2_S2_
FN:1519,_ZN7testing8internal14CmpHelperSTRNEEPKcS2_S2_S2_
FN:1533,_ZN7testing8internal18CmpHelperSTRCASENEEPKcS2_S2_S2_
FN:1557,_ZN7testing12_GLOBAL__N_115IsSubstringPredEPKcS2_
FN:1564,_ZN7testing12_GLOBAL__N_115IsSubstringPredEPKwS2_
FN:1573,_ZN7testing12_GLOBAL__N_115IsSubstringPredINSt7__cxx1112basic_stringIcSt11char_traitsIcESaIcEEEEEbRKT_SA_
FN:1573,_ZN7testing12_GLOBAL__N_115IsSubstringPredINSt7__cxx1112basic_stringIwSt11char_traitsIwESaIwEEEEEbRKT_SA_
FN:1583,_ZN7testing12_GLOBAL__N_115IsSubstringImplINSt7__cxx1112basic_stringIwSt11char_traitsIwESaIwEEEEENS_15AssertionResultEbPKcSA_RKT_SD_
FN:1583,_ZN7testing12_GLOBAL__N_115IsSubstringImplIPKwEENS_15AssertionResultEbPKcS6_RKT_S9_
FN:1583,_ZN7testing12_GLOBAL__N_115IsSubstringImplIPKcEENS_15AssertionResultEbS3_S3_RKT_S7_
FN:1583,_ZN7testing12_GLOBAL__N_115IsSubstringImplINSt7__cxx1112basic_stringIcSt11char_traitsIcESaIcEEEEENS_15AssertionResultEbPKcSA_RKT_SD_
FN:1606,_ZN7testing11IsSubstringEPKcS1_S1_S1_
FN:1612,_ZN7testing11IsSubstringEPKcS1_PKwS3_
FN:1618,_ZN7testing14IsNotSubstringEPKcS1_S1_S1_
FN:1624,_ZN7testing14IsNotSubstringEPKcS1_PKwS3_
FN:1630,_ZN7testing11IsSubstringEPKcS1_RKNSt7__cxx1112basic_stringIcSt11char_traitsIcESaIcEEES9_
FN:1636,_ZN7testing14IsNotSubstringEPKcS1_RKNSt7__cxx1112basic_stringIcSt11char_traitsIcESaIcEEES9_
FN:1643,_ZN7testing11IsSubstringEPKcS1_RKNSt7__cxx1112basic_stringIwSt11char_traitsIwESaIwEEES9_
FN:1649,_ZN7testing14IsNotSubstringEPKcS1_RKNSt7__cxx1112basic_stringIwSt11char_traitsIwESaIwEEES9_
FN:1747,_ZN7testing8internal11ChopLowBitsEPji
FN:1759,_ZN7testing8internal15CodePointToUtf8B5cxx11Ej
FN:1794,_ZN7testing8internal20IsUtf16SurrogatePairEww
FN:1800,_ZN7testing8internal37CreateCodePointFromUtf16SurrogatePairEww
FN:1823,_ZN7testing8internal16WideStringToUtf8B5cxx11EPKwi
FN:1848,_ZN7testing8internal6String15ShowWideCStringB5cxx11EPKw
FN:1860,_ZN7testing8internal6String17WideCStringEqualsEPKwS3_
FN:1869,_ZN7testing8internal14CmpHelperSTREQEPKcS2_PKwS4_
FN:1885,_ZN7testing8internal14CmpHelperSTRNEEPKcS2_PKwS4_
FN:1905,_ZN7testing8internal6String28CaseInsensitiveCStringEqualsEPKcS3_
FN:1925,_ZN7testing8internal6String32CaseInsensitiveWideCStringEqualsEPKwS3_
FN:1949,_ZN7testing8internal6String23EndsWithCaseInsensitiveERKNSt7__cxx1112basic_stringIcSt11char_traitsIcESaIcEEES9_
FN:1959,_ZN7testing8internal6String15FormatIntWidth2B5cxx11Ei
FN:1966,_ZN7testing8internal6String12FormatHexIntB5cxx11Ei
FN:1973,_ZN7testing8internal6String10FormatByteB5cxx11Eh
FN:1982,_ZN7testing8internal20StringStreamToStringEPNSt7__cxx1118basic_stringstreamIcSt11char_traitsIcESaIcEEE
FN:2001,_ZN7testing8internal17AppendUserMessageERKNSt7__cxx1112basic_stringIcSt11char_traitsIcESaIcEEERKNS_7MessageE
FN:2017,_ZN7testing10TestResultC2Ev
FN:2023,_ZN7testing10TestResultD2Ev
FN:2029,_ZNK7testing10TestResult17GetTestPartResultEi
FN:2038,_ZNK7testing10TestResult15GetTestPropertyEi
FN:2045,_ZN7testing10TestResult20ClearTestPartResultsEv
FN:2050,_ZN7testing10TestResult17AddTestPartResultERKNS_14TestPartResultE
FN:2057,_ZN7testing10TestResult14RecordPropertyERKNSt7__cxx1112basic_stringIcSt11char_traitsIcESaIcEEERKNS_12TestPropertyE
FN:2108,_ZN7testing13ArrayAsVectorILi8EEESt6vectorINSt7__cxx1112basic_stringIcSt11char_traitsIcESaIcEEESaIS7_EERAT__KPKc
FN:2108,_ZN7testing13ArrayAsVectorILi6EEESt6vectorINSt7__cxx1112basic_stringIcSt11char_traitsIcESaIcEEESaIS7_EERAT__KPKc
FN:2112,_ZN7testingL31GetReservedAttributesForElementERKNSt7__cxx1112basic_stringIcSt11char_traitsIcESaIcEEE
FN:2127,_ZN7testingL14FormatWordListERKSt6vectorINSt7__cxx1112basic_stringIcSt11char_traitsIcESaIcEEESaIS6_EE
FN:2141,_ZN7testing24ValidateTestPropertyNameERKNSt7__cxx1112basic_stringIcSt11char_traitsIcESaIcEEERKSt6vectorIS5_SaIS5_EE
FN:2155,_ZN7testing10TestResult20ValidateTestPropertyERKNSt7__cxx1112basic_stringIcSt11char_traitsIcESaIcEEERKNS_12TestPropertyE
FN:2162,_ZN7testing10TestResult5ClearEv
FN:2170,_ZNK7testing10TestResult6FailedEv
FN:2179,_ZN7testingL21TestPartFatallyFailedERKNS_14TestPartResultE
FN:2184,_ZNK7testing10TestResult15HasFatalFailureEv
FN:2189,_ZN7testingL24TestPartNonfatallyFailedERKNS_14TestPartResultE
FN:2194,_ZNK7testing10TestResult18HasNonfatalFailureEv
FN:2200,_ZNK7testing10TestResult16total_part_countEv
FN:2205,_ZNK7testing10TestResult19test_property_countEv
FN:2214,_ZN7testing4TestC2Ev
FN:2221,_ZN7testing4TestD0Ev
FN:2221,_ZN7testing4TestD2Ev
FN:2227,_ZN7testing4Test5SetUpEv
FN:2233,_ZN7testing4Test8TearDownEv
FN:2237,_ZN7testing4Test14RecordPropertyERKNSt7__cxx1112basic_stringIcSt11char_traitsIcESaIcEEES8_
FN:2242,_ZN7testing4Test14RecordPropertyERKNSt7__cxx1112basic_stringIcSt11char_traitsIcESaIcEEEi
FN:2250,_ZN7testing8internal30ReportFailureInUnknownLocationENS_14TestPartResult4TypeERKNSt7__cxx1112basic_stringIcSt11char_traitsIcESaIcEEE
FN:2269,_ZN7testing4Test19HasSameFixtureClassEv
FN:2352,_ZN7testing8internalL25FormatCxxExceptionMessageEPKcS2_
FN:2368,_ZN7testing8internal26GoogleTestFailureExceptionC2ERKNS_14TestPartResultE
FN:2383,_ZN7testing8internal38HandleSehExceptionsInMethodIfSupportedINS_8TestCaseEvEET0_PT_MS4_FS3_vEPKc
FN:2383,_ZN7testing8internal38HandleSehExceptionsInMethodIfSupportedINS0_12UnitTestImplEbEET0_PT_MS4_FS3_vEPKc
FN:2383,_ZN7testing8internal38HandleSehExceptionsInMethodIfSupportedINS0_15TestFactoryBaseEPNS_4TestEEET0_PT_MS6_FS5_vEPKc
FN:2383,_ZN7testing8internal38HandleSehExceptionsInMethodIfSupportedINS_4TestEvEET0_PT_MS4_FS3_vEPKc
FN:2410,_ZN7testing8internal35HandleExceptionsInMethodIfSupportedINS_4TestEvEET0_PT_MS4_FS3_vEPKc
FN:2410,_ZN7testing8internal35HandleExceptionsInMethodIfSupportedINS_8TestCaseEvEET0_PT_MS4_FS3_vEPKc
FN:2410,_ZN7testing8internal35HandleExceptionsInMethodIfSupportedINS0_12UnitTestImplEbEET0_PT_MS4_FS3_vEPKc
FN:2410,_ZN7testing8internal35HandleExceptionsInMethodIfSupportedINS0_15TestFactoryBaseEPNS_4TestEEET0_PT_MS6_FS5_vEPKc
FN:2465,_ZN7testing4Test3RunEv
FN:2487,_ZN7testing4Test15HasFatalFailureEv
FN:2492,_ZN7testing4Test18HasNonfatalFailureEv
FN:2501,_ZN7testing8TestInfoC2ERKNSt7__cxx1112basic_stringIcSt11char_traitsIcESaIcEEES8_PKcSA_NS_8internal12CodeLocationEPKvPNSB_15TestFactoryBaseE
FN:2521,_ZN7testing8TestInfoD2Ev
FN:2543,_ZN7testing8internal23MakeAndRegisterTestInfoEPKcS2_S2_S2_NS0_12CodeLocationEPKvPFvvES7_PNS0_15TestFactoryBaseE
FN:2561,_ZN7testing8internal25ReportInvalidTestCaseTypeEPKcNS0_12CodeLocationE
FN:2617,_ZN7testing8internal12UnitTestImpl26RegisterParameterizedTestsEv
FN:2630,_ZN7testing8TestInfo3RunEv
FN:2677,_ZNK7testing8TestCase21successful_test_countEv
FN:2682,_ZNK7testing8TestCase17failed_test_countEv
FN:2687,_ZNK7testing8TestCase30reportable_disabled_test_countEv
FN:2692,_ZNK7testing8TestCase19disabled_test_countEv
FN:2697,_ZNK7testing8TestCase21reportable_test_countEv
FN:2702,_ZNK7testing8TestCase17test_to_run_countEv
FN:2707,_ZNK7testing8TestCase16total_test_countEv
FN:2720,_ZN7testing8TestCaseC2EPKcS2_PFvvES4_
FN:2732,_ZN7testing8TestCaseD2Ev
FN:2732,_ZN7testing8TestCaseD0Ev
FN:2739,_ZNK7testing8TestCase11GetTestInfoEi
FN:2746,_ZN7testing8TestCase18GetMutableTestInfoEi
FN:2753,_ZN7testing8TestCase11AddTestInfoEPNS_8TestInfoE
FN:2759,_ZN7testing8TestCase3RunEv
FN:2787,_ZN7testing8TestCase11ClearResultEv
FN:2793,_ZN7testing8TestCase12ShuffleTestsEPNS_8internal6RandomE
FN:2798,_ZN7testing8TestCase14UnshuffleTestsEv
FN:2809,_ZN7testingL19FormatCountableNounEiPKcS1_
FN:2817,_ZN7testingL15FormatTestCountEi
FN:2822,_ZN7testingL19FormatTestCaseCountEi
FN:2830,_ZN7testingL26TestPartResultTypeToStringENS_14TestPartResult4TypeE
FN:2850,_ZN7testing8internalL27PrintTestPartResultToStringERKNS_14TestPartResultE
FN:2860,_ZN7testing8internalL19PrintTestPartResultERKNS_14TestPartResultE
FN:2904,_ZN7testing8internal16GetAnsiColorCodeENS0_10GTestColorE
FN:2916,_ZN7testing8internal14ShouldUseColorEb
FN:2956,_ZN7testing8internal13ColoredPrintfENS0_10GTestColorEPKcz
FN:3009,_ZN7testing8internal29PrintFullTestCommentIfPresentERKNS_8TestInfoE
FN:3029,_ZN7testing8internal27PrettyUnitTestResultPrinterD2Ev
FN:3029,_ZN7testing8internal27PrettyUnitTestResultPrinterD0Ev
FN:3031,_ZN7testing8internal27PrettyUnitTestResultPrinterC2Ev
FN:3032,_ZN7testing8internal27PrettyUnitTestResultPrinter13PrintTestNameEPKcS3_
FN:3037,_ZN7testing8internal27PrettyUnitTestResultPrinter18OnTestProgramStartERKNS_8UnitTestE
FN:3040,_ZN7testing8internal27PrettyUnitTestResultPrinter22OnEnvironmentsSetUpEndERKNS_8UnitTestE
FN:3047,_ZN7testing8internal27PrettyUnitTestResultPrinter25OnEnvironmentsTearDownEndERKNS_8UnitTestE
FN:3049,_ZN7testing8internal27PrettyUnitTestResultPrinter16OnTestProgramEndERKNS_8UnitTestE
FN:3056,_ZN7testing8internal27PrettyUnitTestResultPrinter20OnTestIterationStartERKNS_8UnitTestEi
FN:3091,_ZN7testing8internal27PrettyUnitTestResultPrinter24OnEnvironmentsSetUpStartERKNS_8UnitTestE
FN:3098,_ZN7testing8internal27PrettyUnitTestResultPrinter15OnTestCaseStartERKNS_8TestCaseE
FN:3111,_ZN7testing8internal27PrettyUnitTestResultPrinter11OnTestStartERKNS_8TestInfoE
FN:3119,_ZN7testing8internal27PrettyUnitTestResultPrinter16OnTestPartResultERKNS_14TestPartResultE
FN:3130,_ZN7testing8internal27PrettyUnitTestResultPrinter9OnTestEndERKNS_8TestInfoE
FN:3149,_ZN7testing8internal27PrettyUnitTestResultPrinter13OnTestCaseEndERKNS_8TestCaseE
FN:3161,_ZN7testing8internal27PrettyUnitTestResultPrinter27OnEnvironmentsTearDownStartERKNS_8UnitTestE
FN:3169,_ZN7testing8internal27PrettyUnitTestResultPrinter16PrintFailedTestsERKNS_8UnitTestE
FN:3193,_ZN7testing8internal27PrettyUnitTestResultPrinter18OnTestIterationEndERKNS_8UnitTestEi
FN:3238,_ZN7testing8internal17TestEventRepeaterC2Ev
FN:3245,_ZNK7testing8internal17TestEventRepeater18forwarding_enabledEv
FN:3246,_ZN7testing8internal17TestEventRepeater22set_forwarding_enabledEb
FN:3272,_ZN7testing8internal17TestEventRepeaterD2Ev
FN:3272,_ZN7testing8internal17TestEventRepeaterD0Ev
FN:3276,_ZN7testing8internal17TestEventRepeater6AppendEPNS_17TestEventListenerE
FN:3281,_ZN7testing8internal17TestEventRepeater7ReleaseEPNS_17TestEventListenerE
FN:3313,_ZN7testing8internal17TestEventRepeater18OnTestProgramStartERKNS_8UnitTestE
FN:3314,_ZN7testing8internal17TestEventRepeater24OnEnvironmentsSetUpStartERKNS_8UnitTestE
FN:3315,_ZN7testing8internal17TestEventRepeater15OnTestCaseStartERKNS_8TestCaseE
FN:3316,_ZN7testing8internal17TestEventRepeater11OnTestStartERKNS_8TestInfoE
FN:3317,_ZN7testing8internal17TestEventRepeater16OnTestPartResultERKNS_14TestPartResultE
FN:3318,_ZN7testing8internal17TestEventRepeater27OnEnvironmentsTearDownStartERKNS_8UnitTestE
FN:3319,_ZN7testing8internal17TestEventRepeater22OnEnvironmentsSetUpEndERKNS_8UnitTestE
FN:3320,_ZN7testing8internal17TestEventRepeater25OnEnvironmentsTearDownEndERKNS_8UnitTestE
FN:3321,_ZN7testing8internal17TestEventRepeater9OnTestEndERKNS_8TestInfoE
FN:3322,_ZN7testing8internal17TestEventRepeater13OnTestCaseEndERKNS_8TestCaseE
FN:3323,_ZN7testing8internal17TestEventRepeater16OnTestProgramEndERKNS_8UnitTestE
FN:3328,_ZN7testing8internal17TestEventRepeater20OnTestIterationStartERKNS_8UnitTestEi
FN:3337,_ZN7testing8internal17TestEventRepeater18OnTestIterationEndERKNS_8UnitTestEi
FN:3349,_ZN7testing8internal24XmlUnitTestResultPrinterD0Ev
FN:3349,_ZN7testing8internal24XmlUnitTestResultPrinterD2Ev
FN:3358,_ZN7testing8internal24XmlUnitTestResultPrinter24IsNormalizableWhitespaceEc
FN:3363,_ZN7testing8internal24XmlUnitTestResultPrinter19IsValidXmlCharacterEc
FN:3377,_ZN7testing8internal24XmlUnitTestResultPrinter18EscapeXmlAttributeERKNSt7__cxx1112basic_stringIcSt11char_traitsIcESaIcEEE
FN:3422,_ZN7testing8internal24XmlUnitTestResultPrinterC2EPKc
FN:3432,_ZN7testing8internal24XmlUnitTestResultPrinter18OnTestIterationEndERKNS_8UnitTestEi
FN:3476,_ZN7testing8internal24XmlUnitTestResultPrinter9EscapeXmlERKNSt7__cxx1112basic_stringIcSt11char_traitsIcESaIcEEEb
FN:3522,_ZN7testing8internal24XmlUnitTestResultPrinter26RemoveInvalidXmlCharactersERKNSt7__cxx1112basic_stringIcSt11char_traitsIcESaIcEEE
FN:3550,_ZN7testing8internal27FormatTimeInMillisAsSecondsB5cxx11Ex
FN:3556,_ZN7testing8internalL17PortableLocaltimeElP2tm
FN:3574,_ZN7testing8internal32FormatEpochTimeInMillisAsIso8601B5cxx11Ex
FN:3588,_ZN7testing8internal24XmlUnitTestResultPrinter21OutputXmlCDataSectionEPSoPKc
FN:3607,_ZN7testing8internal24XmlUnitTestResultPrinter18OutputXmlAttributeEPSoRKNSt7__cxx1112basic_stringIcSt11char_traitsIcESaIcEEESA_SA_
FN:3625,_ZN7testing8internal24XmlUnitTestResultPrinter17OutputXmlTestInfoEPSoPKcRKNS_8TestInfoE
FN:3675,_ZN7testing8internal24XmlUnitTestResultPrinter16PrintXmlTestCaseEPSoRKNS_8TestCaseE
FN:3701,_ZN7testing8internal24XmlUnitTestResultPrinter16PrintXmlUnitTestEPSoRKNS_8UnitTestE
FN:3741,_ZN7testing8internal24XmlUnitTestResultPrinter29TestPropertiesAsXmlAttributesB5cxx11ERKNS_10TestResultE
FN:3761,_ZN7testing8internal17StreamingListener9UrlEncodeB5cxx11EPKc
FN:3780,_ZN7testing8internal17StreamingListener12SocketWriter14MakeConnectionEv
FN:3828,_ZN7testing8internal11ScopedTraceC2EPKciRKNS_7MessageE
FN:3839,_ZN7testing8internal11ScopedTraceD2Ev
FN:3850,_ZN7testing8internal18OsStackTraceGetter17CurrentStackTraceB5cxx11Eii
FN:3855,_ZN7testing8internal18OsStackTraceGetter16UponLeavingGTestEv
FN:3861,_ZN7testing8internal23ScopedPrematureExitFileC2EPKc
FN:3874,_ZN7testing8internal23ScopedPrematureExitFileD2Ev
FN:3890,_ZN7testing18TestEventListenersC2Ev
FN:3896,_ZN7testing18TestEventListenersD2Ev
FN:3902,_ZN7testing18TestEventListeners6AppendEPNS_17TestEventListenerE
FN:3909,_ZN7testing18TestEventListeners7ReleaseEPNS_17TestEventListenerE
FN:3919,_ZN7testing18TestEventListeners8repeaterEv
FN:3926,_ZN7testing18TestEventListeners23SetDefaultResultPrinterEPNS_17TestEventListenerE
FN:3942,_ZN7testing18TestEventListeners22SetDefaultXmlGeneratorEPNS_17TestEventListenerE
FN:3955,_ZNK7testing18TestEventListeners22EventForwardingEnabledEv
FN:3959,_ZN7testing18TestEventListeners23SuppressEventForwardingEv
FN:3972,_ZN7testing8UnitTest11GetInstanceEv
FN:3994,_ZNK7testing8UnitTest26successful_test_case_countEv
FN:3999,_ZNK7testing8UnitTest22failed_test_case_countEv
FN:4004,_ZNK7testing8UnitTest21total_test_case_countEv
FN:4010,_ZNK7testing8UnitTest22test_case_to_run_countEv
FN:4015,_ZNK7testing8UnitTest21successful_test_countEv
FN:4020,_ZNK7testing8UnitTest17failed_test_countEv
FN:4023,_ZNK7testing8UnitTest30reportable_disabled_test_countEv
FN:4028,_ZNK7testing8UnitTest19disabled_test_countEv
FN:4033,_ZNK7testing8UnitTest21reportable_test_countEv
FN:4038,_ZNK7testing8UnitTest16total_test_countEv
FN:4041,_ZNK7testing8UnitTest17test_to_run_countEv
FN:4045,_ZNK7testing8UnitTest15start_timestampEv
FN:4050,_ZNK7testing8UnitTest12elapsed_timeEv
FN:4055,_ZNK7testing8UnitTest6PassedEv
FN:4059,_ZNK7testing8UnitTest6FailedEv
FN:4063,_ZNK7testing8UnitTest11GetTestCaseEi
FN:4069,_ZNK7testing8UnitTest18ad_hoc_test_resultEv
FN:4075,_ZN7testing8UnitTest18GetMutableTestCaseEi
FN:4081,_ZN7testing8UnitTest9listenersEv
FN:4095,_ZN7testing8UnitTest14AddEnvironmentEPNS_11EnvironmentE
FN:4108,_ZN7testing8UnitTest17AddTestPartResultENS_14TestPartResult4TypeEPKciRKNSt7__cxx1112basic_stringIcSt11char_traitsIcESaIcEEESC_
FN:4175,_ZN7testing8UnitTest14RecordPropertyERKNSt7__cxx1112basic_stringIcSt11char_traitsIcESaIcEEES8_
FN:4185,_ZN7testing8UnitTest3RunEv
FN:4265,_ZNK7testing8UnitTest20original_working_dirEv
FN:4271,_ZNK7testing8UnitTest17current_test_caseEv
FN:4279,_ZNK7testing8UnitTest17current_test_infoEv
FN:4286,_ZNK7testing8UnitTest11random_seedEv
FN:4292,_ZN7testing8UnitTest27parameterized_test_registryEv
FN:4299,_ZN7testing8UnitTestC2Ev
FN:4304,_ZN7testing8UnitTestD2Ev
FN:4304,_ZN7testing8UnitTestD0Ev
FN:4310,_ZN7testing8UnitTest14PushGTestTraceERKNS_8internal9TraceInfoE
FN:4317,_ZN7testing8UnitTest13PopGTestTraceEv
FN:4325,_ZN7testing8internal12UnitTestImplC2EPNS_8UnitTestE
FN:4357,_ZN7testing8internal12UnitTestImplD2Ev
FN:4357,_ZN7testing8internal12UnitTestImplD0Ev
FN:4372,_ZN7testing8internal12UnitTestImpl14RecordPropertyERKNS_12TestPropertyE
FN:4392,_ZN7testing8internal12UnitTestImpl32SuppressTestEventsIfInSubprocessEv
FN:4400,_ZN7testing8internal12UnitTestImpl18ConfigureXmlOutputEv
FN:4415,_ZN7testing8internal12UnitTestImpl24ConfigureStreamingOutputEv
FN:4436,_ZN7testing8internal12UnitTestImpl19PostFlagParsingInitEv
FN:4475,_ZN7testing8internal14TestCaseNameIsD2Ev
FN:4475,_ZN7testing8internal14TestCaseNameIsC2ERKS1_
FN:4475,_ZN7testing8internal14TestCaseNameIsC2EOS1_
FN:4478,_ZN7testing8internal14TestCaseNameIsC2ERKNSt7__cxx1112basic_stringIcSt11char_traitsIcESaIcEEE
FN:4482,_ZNK7testing8internal14TestCaseNameIsclEPKNS_8TestCaseE
FN:4502,_ZN7testing8internal12UnitTestImpl11GetTestCaseEPKcS3_PFvvES5_
FN:4539,_ZN7testing8internalL16SetUpEnvironmentEPNS_11EnvironmentE
FN:4540,_ZN7testing8internalL19TearDownEnvironmentEPNS_11EnvironmentE
FN:4551,_ZN7testing8internal12UnitTestImpl11RunAllTestsEv
FN:4693,_ZN7testing8internal30WriteToShardStatusFileIfNeededEv
FN:4715,_ZN7testing8internal11ShouldShardEPKcS2_b
FN:4760,_ZN7testing8internal17Int32FromEnvOrDieEPKci
FN:4778,_ZN7testing8internal20ShouldRunTestOnShardEiii
FN:4789,_ZN7testing8internal12UnitTestImpl11FilterTestsENS1_18ReactionToShardingE
FN:4846,_ZN7testing8internalL14PrintOnOneLineEPKci
FN:4865,_ZN7testing8internal12UnitTestImpl23ListTestsMatchingFilterEv
FN:4907,_ZN7testing8internal12UnitTestImpl25set_os_stack_trace_getterEPNS0_27OsStackTraceGetterInterfaceE
FN:4918,_ZN7testing8internal12UnitTestImpl21os_stack_trace_getterEv
FN:4932,_ZN7testing8internal12UnitTestImpl19current_test_resultEv
FN:4939,_ZN7testing8internal12UnitTestImpl12ShuffleTestsEv
FN:4954,_ZN7testing8internal12UnitTestImpl14UnshuffleTestsEv
FN:4973,_ZN7testing8internal31GetCurrentOsStackTraceExceptTopB5cxx11EPNS_8UnitTestEi
FN:4986,_ZN7testing8internal6IsTrueEb
FN:4988,_ZN7testing8internal10AlwaysTrueEv
FN:5001,_ZN7testing8internal10SkipPrefixEPKcPS2_
FN:5015,_ZN7testing8internal14ParseFlagValueEPKcS2_b
FN:5053,_ZN7testing8internal13ParseBoolFlagEPKcS2_Pb
FN:5070,_ZN7testing8internal14ParseInt32FlagEPKcS2_Pi
FN:5087,_ZN7testing8internal15ParseStringFlagEPKcS2_PNSt7__cxx1112basic_stringIcSt11char_traitsIcESaIcEEE
FN:5105,_ZN7testing8internalL23HasGoogleTestFlagPrefixEPKc
FN:5125,_ZN7testing8internalL17PrintColorEncodedEPKc
FN:5223,_ZN7testing8internal19ParseGoogleTestFlagEPKc
FN:5253,_ZN7testing8internal17LoadFlagsFromFileERKNSt7__cxx1112basic_stringIcSt11char_traitsIcESaIcEEE
FN:5279,_ZN7testing8internal28ParseGoogleTestFlagsOnlyImplIcEEvPiPPT_
FN:5279,_ZN7testing8internal28ParseGoogleTestFlagsOnlyImplIwEEvPiPPT_
FN:5332,_ZN7testing8internal24ParseGoogleTestFlagsOnlyEPiPPc
FN:5335,_ZN7testing8internal24ParseGoogleTestFlagsOnlyEPiPPw
FN:5344,_ZN7testing8internal18InitGoogleTestImplIcEEvPiPPT_
FN:5344,_ZN7testing8internal18InitGoogleTestImplIwEEvPiPPT_
FN:5370,_ZN7testing14InitGoogleTestEPiPPc
FN:5380,_ZN7testing14InitGoogleTestEPiPPw
FNDA:1,_ZN7testingL16GetDefaultFilterEv
FNDA:0,_ZN7testing8internal6Random8GenerateEj
FNDA:2,_ZN7testing8internalL18GTestIsInitializedEv
FNDA:5,_ZN7testing8internalL19SumOverTestCaseListERKSt6vectorIPNS_8TestCaseESaIS3_EEMS2_KFivE
FNDA:0,_ZN7testing8internalL14TestCasePassedEPKNS_8TestCaseE
FNDA:6,_ZN7testing8internalL14TestCaseFailedEPKNS_8TestCaseE
FNDA:6,_ZN7testing8internalL17ShouldRunTestCaseEPKNS_8TestCaseE
FNDA:0,_ZN7testing8internal12AssertHelperC2ENS_14TestPartResult4TypeEPKciS5_
FNDA:0,_ZN7testing8internal12AssertHelperD2Ev
FNDA:0,_ZNK7testing8internal12AssertHelperaSERKNS_7MessageE
FNDA:2,_ZN7testing8internal8GetArgvsB5cxx11Ev
FNDA:0,_ZN7testing8internal24GetCurrentExecutableNameEv
FNDA:1,_ZN7testing8internal15UnitTestOptions15GetOutputFormatB5cxx11Ev
FNDA:0,_ZN7testing8internal15UnitTestOptions27GetAbsolutePathToOutputFileB5cxx11Ev
FNDA:505,_ZN7testing8internal15UnitTestOptions20PatternMatchesStringEPKcS3_
FNDA:15,_ZN7testing8internal15UnitTestOptions13MatchesFilterERKNSt7__cxx1112basic_stringIcSt11char_traitsIcESaIcEEEPKc
FNDA:3,_ZN7testing8internal15UnitTestOptions17FilterMatchesTestERKNSt7__cxx1112basic_stringIcSt11char_traitsIcESaIcEEES9_
FNDA:0,_ZN7testing32ScopedFakeTestPartResultReporterC2EPNS_19TestPartResultArrayE
FNDA:0,_ZN7testing32ScopedFakeTestPartResultReporterC2ENS0_13InterceptModeEPNS_19TestPartResultArrayE
FNDA:0,_ZN7testing32ScopedFakeTestPartResultReporter4InitEv
FNDA:0,_ZN7testing32ScopedFakeTestPartResultReporterD0Ev
FNDA:0,_ZN7testing32ScopedFakeTestPartResultReporterD2Ev
FNDA:0,_ZN7testing32ScopedFakeTestPartResultReporter20ReportTestPartResultERKNS_14TestPartResultE
FNDA:4,_ZN7testing8internal13GetTestTypeIdEv
FNDA:0,_ZN7testing8internal13HasOneFailureEPKcS2_S2_RKNS_19TestPartResultArrayENS_14TestPartResult4TypeERKNSt7__cxx1112basic_stringIcSt11char_traitsIcESaIcEEE
FNDA:0,_ZN7testing8internal20SingleFailureCheckerC2EPKNS_19TestPartResultArrayENS_14TestPartResult4TypeERKNSt7__cxx1112basic_stringIcSt11char_traitsIcESaIcEEE
FNDA:0,_ZN7testing8internal20SingleFailureCheckerD2Ev
FNDA:1,_ZN7testing8internal35DefaultGlobalTestPartResultReporterC2EPNS0_12UnitTestImplE
FNDA:0,_ZN7testing8internal35DefaultGlobalTestPartResultReporter20ReportTestPartResultERKNS_14TestPartResultE
FNDA:1,_ZN7testing8internal38DefaultPerThreadTestPartResultReporterC2EPNS0_12UnitTestImplE
FNDA:0,_ZN7testing8internal38DefaultPerThreadTestPartResultReporter20ReportTestPartResultERKNS_14TestPartResultE
FNDA:0,_ZN7testing8internal12UnitTestImpl31GetGlobalTestPartResultReporterEv
FNDA:0,_ZN7testing8internal12UnitTestImpl31SetGlobalTestPartResultReporterEPNS_31TestPartResultReporterInterfaceE
FNDA:0,_ZN7testing8internal12UnitTestImpl41GetTestPartResultReporterForCurrentThreadEv
FNDA:0,_ZN7testing8internal12UnitTestImpl41SetTestPartResultReporterForCurrentThreadEPNS_31TestPartResultReporterInterfaceE
FNDA:0,_ZNK7testing8internal12UnitTestImpl26successful_test_case_countEv
FNDA:2,_ZNK7testing8internal12UnitTestImpl22failed_test_case_countEv
FNDA:4,_ZNK7testing8internal12UnitTestImpl21total_test_case_countEv
FNDA:2,_ZNK7testing8internal12UnitTestImpl22test_case_to_run_countEv
FNDA:1,_ZNK7testing8internal12UnitTestImpl21successful_test_countEv
FNDA:1,_ZNK7testing8internal12UnitTestImpl17failed_test_countEv
FNDA:1,_ZNK7testing8internal12UnitTestImpl30reportable_disabled_test_countEv
FNDA:0,_ZNK7testing8internal12UnitTestImpl19disabled_test_countEv
FNDA:0,_ZNK7testing8internal12UnitTestImpl21reportable_test_countEv
FNDA:0,_ZNK7testing8internal12UnitTestImpl16total_test_countEv
FNDA:2,_ZNK7testing8internal12UnitTestImpl17test_to_run_countEv
FNDA:0,_ZN7testing8internal12UnitTestImpl28CurrentOsStackTraceExceptTopB5cxx11Ei
FNDA:15,_ZN7testing8internal15GetTimeInMillisEv
FNDA:4,_ZN7testing8internal6String13CStringEqualsEPKcS3_
FNDA:0,_ZN7testing8internalL24StreamWideCharsToMessageEPKwmPNS_7MessageE
FNDA:0,_ZN7testing8internal11SplitStringERKNSt7__cxx1112basic_stringIcSt11char_traitsIcESaIcEEEcPSt6vectorIS6_SaIS6_EE
FNDA:51,_ZN7testing7MessageC2Ev
FNDA:0,_ZN7testing7MessagelsEPKw
FNDA:0,_ZN7testing7MessagelsEPw
FNDA:0,_ZN7testing7MessagelsERKNSt7__cxx1112basic_stringIwSt11char_traitsIwESaIwEEE
FNDA:51,_ZNK7testing7Message9GetStringB5cxx11Ev
FNDA:0,_ZN7testing15AssertionResultC2ERKS0_
FNDA:0,_ZN7testing15AssertionResult4swapERS0_
FNDA:0,_ZNK7testing15AssertionResultntEv
FNDA:2,_ZN7testing16AssertionSuccessEv
FNDA:0,_ZN7testing16AssertionFailureEv
FNDA:0,_ZN7testing16AssertionFailureERKNS_7MessageE
FNDA:0,_ZN7testing8internal13edit_distance21CalculateOptimalEditsERKSt6vectorImSaImEES6_
FNDA:0,_ZN7testing8internal13edit_distance12_GLOBAL__N_115InternalStringsD2Ev
FNDA:0,_ZN7testing8internal13edit_distance12_GLOBAL__N_115InternalStringsC2Ev
FNDA:0,_ZN7testing8internal13edit_distance12_GLOBAL__N_115InternalStrings5GetIdERKNSt7__cxx1112basic_stringIcSt11char_traitsIcESaIcEEE
FNDA:0,_ZN7testing8internal13edit_distance21CalculateOptimalEditsERKSt6vectorINSt7__cxx1112basic_stringIcSt11char_traitsIcESaIcEEESaIS8_EESC_
FNDA:0,_ZN7testing8internal13edit_distance12_GLOBAL__N_14HunkD2Ev
FNDA:0,_ZN7testing8internal13edit_distance12_GLOBAL__N_14HunkC2Emm
FNDA:0,_ZN7testing8internal13edit_distance12_GLOBAL__N_14Hunk8PushLineEcPKc
FNDA:0,_ZN7testing8internal13edit_distance12_GLOBAL__N_14Hunk7PrintToEPSo
FNDA:0,_ZNK7testing8internal13edit_distance12_GLOBAL__N_14Hunk9has_editsEv
FNDA:0,_ZN7testing8internal13edit_distance12_GLOBAL__N_14Hunk10FlushEditsEv
FNDA:0,_ZNK7testing8internal13edit_distance12_GLOBAL__N_14Hunk11PrintHeaderEPSo
FNDA:0,_ZN7testing8internal13edit_distance17CreateUnifiedDiffERKSt6vectorINSt7__cxx1112basic_stringIcSt11char_traitsIcESaIcEEESaIS8_EESC_m
FNDA:0,_ZN7testing8internal12_GLOBAL__N_118SplitEscapedStringERKNSt7__cxx1112basic_stringIcSt11char_traitsIcESaIcEEE
FNDA:0,_ZN7testing8internal9EqFailureEPKcS2_RKNSt7__cxx1112basic_stringIcSt11char_traitsIcESaIcEEESA_b
FNDA:0,_ZN7testing8internal30GetBoolAssertionFailureMessageB5cxx11ERKNS_15AssertionResultEPKcS5_S5_
FNDA:0,_ZN7testing8internal20DoubleNearPredFormatEPKcS2_S2_ddd
FNDA:0,_ZN7testing8internal15FloatingPointLEIdEENS_15AssertionResultEPKcS4_T_S5_
FNDA:0,_ZN7testing8internal15FloatingPointLEIfEENS_15AssertionResultEPKcS4_T_S5_
FNDA:0,_ZN7testing7FloatLEEPKcS1_ff
FNDA:0,_ZN7testing8DoubleLEEPKcS1_dd
FNDA:0,_ZN7testing8internal11CmpHelperEQEPKcS2_xx
FNDA:0,_ZN7testing8internal11CmpHelperNEEPKcS2_xx
FNDA:0,_ZN7testing8internal11CmpHelperLEEPKcS2_xx
FNDA:0,_ZN7testing8internal11CmpHelperLTEPKcS2_xx
FNDA:0,_ZN7testing8internal11CmpHelperGEEPKcS2_xx
FNDA:0,_ZN7testing8internal11CmpHelperGTEPKcS2_xx
FNDA:0,_ZN7testing8internal14CmpHelperSTREQEPKcS2_S2_S2_
FNDA:0,_ZN7testing8internal18CmpHelperSTRCASEEQEPKcS2_S2_S2_
FNDA:0,_ZN7testing8internal14CmpHelperSTRNEEPKcS2_S2_S2_
FNDA:0,_ZN7testing8internal18CmpHelperSTRCASENEEPKcS2_S2_S2_
FNDA:0,_ZN7testing12_GLOBAL__N_115IsSubstringPredEPKcS2_
FNDA:0,_ZN7testing12_GLOBAL__N_115IsSubstringPredEPKwS2_
FNDA:0,_ZN7testing12_GLOBAL__N_115IsSubstringPredINSt7__cxx1112basic_stringIwSt11char_traitsIwESaIwEEEEEbRKT_SA_
FNDA:0,_ZN7testing12_GLOBAL__N_115IsSubstringPredINSt7__cxx1112basic_stringIcSt11char_traitsIcESaIcEEEEEbRKT_SA_
FNDA:0,_ZN7testing12_GLOBAL__N_115IsSubstringImplINSt7__cxx1112basic_stringIwSt11char_traitsIwESaIwEEEEENS_15AssertionResultEbPKcSA_RKT_SD_
FNDA:0,_ZN7testing12_GLOBAL__N_115IsSubstringImplINSt7__cxx1112basic_stringIcSt11char_traitsIcESaIcEEEEENS_15AssertionResultEbPKcSA_RKT_SD_
FNDA:0,_ZN7testing12_GLOBAL__N_115IsSubstringImplIPKwEENS_15AssertionResultEbPKcS6_RKT_S9_
FNDA:0,_ZN7testing12_GLOBAL__N_115IsSubstringImplIPKcEENS_15AssertionResultEbS3_S3_RKT_S7_
FNDA:0,_ZN7testing11IsSubstringEPKcS1_S1_S1_
FNDA:0,_ZN7testing11IsSubstringEPKcS1_PKwS3_
FNDA:0,_ZN7testing14IsNotSubstringEPKcS1_S1_S1_
FNDA:0,_ZN7testing14IsNotSubstringEPKcS1_PKwS3_
FNDA:0,_ZN7testing11IsSubstringEPKcS1_RKNSt7__cxx1112basic_stringIcSt11char_traitsIcESaIcEEES9_
FNDA:0,_ZN7testing14IsNotSubstringEPKcS1_RKNSt7__cxx1112basic_stringIcSt11char_traitsIcESaIcEEES9_
FNDA:0,_ZN7testing11IsSubstringEPKcS1_RKNSt7__cxx1112basic_stringIwSt11char_traitsIwESaIwEEES9_
FNDA:0,_ZN7testing14IsNotSubstringEPKcS1_RKNSt7__cxx1112basic_stringIwSt11char_traitsIwESaIwEEES9_
FNDA:0,_ZN7testing8internal11ChopLowBitsEPji
FNDA:0,_ZN7testing8internal15CodePointToUtf8B5cxx11Ej
FNDA:0,_ZN7testing8internal20IsUtf16SurrogatePairEww
FNDA:0,_ZN7testing8internal37CreateCodePointFromUtf16SurrogatePairEww
FNDA:0,_ZN7testing8internal16WideStringToUtf8B5cxx11EPKwi
FNDA:0,_ZN7testing8internal6String15ShowWideCStringB5cxx11EPKw
FNDA:0,_ZN7testing8internal6String17WideCStringEqualsEPKwS3_
FNDA:0,_ZN7testing8internal14CmpHelperSTREQEPKcS2_PKwS4_
FNDA:0,_ZN7testing8internal14CmpHelperSTRNEEPKcS2_PKwS4_
FNDA:1,_ZN7testing8internal6String28CaseInsensitiveCStringEqualsEPKcS3_
FNDA:0,_ZN7testing8internal6String32CaseInsensitiveWideCStringEqualsEPKwS3_
FNDA:0,_ZN7testing8internal6String23EndsWithCaseInsensitiveERKNSt7__cxx1112basic_stringIcSt11char_traitsIcESaIcEEES9_
FNDA:0,_ZN7testing8internal6String15FormatIntWidth2B5cxx11Ei
FNDA:0,_ZN7testing8internal6String12FormatHexIntB5cxx11Ei
FNDA:0,_ZN7testing8internal6String10FormatByteB5cxx11Eh
FNDA:51,_ZN7testing8internal20StringStreamToStringEPNSt7__cxx1118basic_stringstreamIcSt11char_traitsIcESaIcEEE
FNDA:0,_ZN7testing8internal17AppendUserMessageERKNSt7__cxx1112basic_stringIcSt11char_traitsIcESaIcEEERKNS_7MessageE
FNDA:7,_ZN7testing10TestResultC2Ev
FNDA:7,_ZN7testing10TestResultD2Ev
FNDA:0,_ZNK7testing10TestResult17GetTestPartResultEi
FNDA:0,_ZNK7testing10TestResult15GetTestPropertyEi
FNDA:0,_ZN7testing10TestResult20ClearTestPartResultsEv
FNDA:0,_ZN7testing10TestResult17AddTestPartResultERKNS_14TestPartResultE
FNDA:0,_ZN7testing10TestResult14RecordPropertyERKNSt7__cxx1112basic_stringIcSt11char_traitsIcESaIcEEERKNS_12TestPropertyE
FNDA:0,_ZN7testing13ArrayAsVectorILi6EEESt6vectorINSt7__cxx1112basic_stringIcSt11char_traitsIcESaIcEEESaIS7_EERAT__KPKc
FNDA:0,_ZN7testing13ArrayAsVectorILi8EEESt6vectorINSt7__cxx1112basic_stringIcSt11char_traitsIcESaIcEEESaIS7_EERAT__KPKc
FNDA:0,_ZN7testingL31GetReservedAttributesForElementERKNSt7__cxx1112basic_stringIcSt11char_traitsIcESaIcEEE
FNDA:0,_ZN7testingL14FormatWordListERKSt6vectorINSt7__cxx1112basic_stringIcSt11char_traitsIcESaIcEEESaIS6_EE
FNDA:0,_ZN7testing24ValidateTestPropertyNameERKNSt7__cxx1112basic_stringIcSt11char_traitsIcESaIcEEERKSt6vectorIS5_SaIS5_EE
FNDA:0,_ZN7testing10TestResult20ValidateTestPropertyERKNSt7__cxx1112basic_stringIcSt11char_traitsIcESaIcEEERKNS_12TestPropertyE
FNDA:6,_ZN7testing10TestResult5ClearEv
FNDA:20,_ZNK7testing10TestResult6FailedEv
FNDA:0,_ZN7testingL21TestPartFatallyFailedERKNS_14TestPartResultE
FNDA:7,_ZNK7testing10TestResult15HasFatalFailureEv
FNDA:0,_ZN7testingL24TestPartNonfatallyFailedERKNS_14TestPartResultE
FNDA:0,_ZNK7testing10TestResult18HasNonfatalFailureEv
FNDA:20,_ZNK7testing10TestResult16total_part_countEv
FNDA:0,_ZNK7testing10TestResult19test_property_countEv
FNDA:3,_ZN7testing4TestC2Ev
FNDA:0,_ZN7testing4TestD0Ev
FNDA:3,_ZN7testing4TestD2Ev
FNDA:3,_ZN7testing4Test5SetUpEv
FNDA:3,_ZN7testing4Test8TearDownEv
FNDA:0,_ZN7testing4Test14RecordPropertyERKNSt7__cxx1112basic_stringIcSt11char_traitsIcESaIcEEES8_
FNDA:0,_ZN7testing4Test14RecordPropertyERKNSt7__cxx1112basic_stringIcSt11char_traitsIcESaIcEEEi
FNDA:0,_ZN7testing8internal30ReportFailureInUnknownLocationENS_14TestPartResult4TypeERKNSt7__cxx1112basic_stringIcSt11char_traitsIcESaIcEEE
FNDA:3,_ZN7testing4Test19HasSameFixtureClassEv
FNDA:0,_ZN7testing8internalL25FormatCxxExceptionMessageEPKcS2_
FNDA:0,_ZN7testing8internal26GoogleTestFailureExceptionC2ERKNS_14TestPartResultE
FNDA:1,_ZN7testing8internal38HandleSehExceptionsInMethodIfSupportedINS0_12UnitTestImplEbEET0_PT_MS4_FS3_vEPKc
FNDA:6,_ZN7testing8internal38HandleSehExceptionsInMethodIfSupportedINS_8TestCaseEvEET0_PT_MS4_FS3_vEPKc
FNDA:3,_ZN7testing8internal38HandleSehExceptionsInMethodIfSupportedINS0_15TestFactoryBaseEPNS_4TestEEET0_PT_MS6_FS5_vEPKc
FNDA:12,_ZN7testing8internal38HandleSehExceptionsInMethodIfSupportedINS_4TestEvEET0_PT_MS4_FS3_vEPKc
FNDA:1,_ZN7testing8internal35HandleExceptionsInMethodIfSupportedINS0_12UnitTestImplEbEET0_PT_MS4_FS3_vEPKc
FNDA:6,_ZN7testing8internal35HandleExceptionsInMethodIfSupportedINS_8TestCaseEvEET0_PT_MS4_FS3_vEPKc
FNDA:3,_ZN7testing8internal35HandleExceptionsInMethodIfSupportedINS0_15TestFactoryBaseEPNS_4TestEEET0_PT_MS6_FS5_vEPKc
FNDA:12,_ZN7testing8internal35HandleExceptionsInMethodIfSupportedINS_4TestEvEET0_PT_MS4_FS3_vEPKc
FNDA:3,_ZN7testing4Test3RunEv
FNDA:7,_ZN7testing4Test15HasFatalFailureEv
FNDA:0,_ZN7testing4Test18HasNonfatalFailureEv
FNDA:3,_ZN7testing8TestInfoC2ERKNSt7__cxx1112basic_stringIcSt11char_traitsIcESaIcEEES8_PKcSA_NS_8internal12CodeLocationEPKvPNSB_15TestFactoryBaseE
FNDA:3,_ZN7testing8TestInfoD2Ev
FNDA:3,_ZN7testing8internal23MakeAndRegisterTestInfoEPKcS2_S2_S2_NS0_12CodeLocationEPKvPFvvES7_PNS0_15TestFactoryBaseE
FNDA:0,_ZN7testing8internal25ReportInvalidTestCaseTypeEPKcNS0_12CodeLocationE
FNDA:1,_ZN7testing8internal12UnitTestImpl26RegisterParameterizedTestsEv
FNDA:3,_ZN7testing8TestInfo3RunEv
FNDA:3,_ZNK7testing8TestCase21successful_test_countEv
FNDA:9,_ZNK7testing8TestCase17failed_test_countEv
FNDA:3,_ZNK7testing8TestCase30reportable_disabled_test_countEv
FNDA:0,_ZNK7testing8TestCase19disabled_test_countEv
FNDA:0,_ZNK7testing8TestCase21reportable_test_countEv
FNDA:12,_ZNK7testing8TestCase17test_to_run_countEv
FNDA:6,_ZNK7testing8TestCase16total_test_countEv
FNDA:3,_ZN7testing8TestCaseC2EPKcS2_PFvvES4_
FNDA:3,_ZN7testing8TestCaseD0Ev
FNDA:3,_ZN7testing8TestCaseD2Ev
FNDA:0,_ZNK7testing8TestCase11GetTestInfoEi
FNDA:3,_ZN7testing8TestCase18GetMutableTestInfoEi
FNDA:3,_ZN7testing8TestCase11AddTestInfoEPNS_8TestInfoE
FNDA:3,_ZN7testing8TestCase3RunEv
FNDA:3,_ZN7testing8TestCase11ClearResultEv
FNDA:0,_ZN7testing8TestCase12ShuffleTestsEPNS_8internal6RandomE
FNDA:3,_ZN7testing8TestCase14UnshuffleTestsEv
FNDA:11,_ZN7testingL19FormatCountableNounEiPKcS1_
FNDA:3,_ZN7testingL15FormatTestCountEi
FNDA:2,_ZN7testingL19FormatTestCaseCountEi
FNDA:0,_ZN7testingL26TestPartResultTypeToStringENS_14TestPartResult4TypeE
FNDA:0,_ZN7testing8internalL27PrintTestPartResultToStringERKNS_14TestPartResultE
FNDA:0,_ZN7testing8internalL19PrintTestPartResultERKNS_14TestPartResultE
FNDA:17,_ZN7testing8internal16GetAnsiColorCodeENS0_10GTestColorE
FNDA:1,_ZN7testing8internal14ShouldUseColorEb
FNDA:17,_ZN7testing8internal13ColoredPrintfENS0_10GTestColorEPKcz
FNDA:0,_ZN7testing8internal29PrintFullTestCommentIfPresentERKNS_8TestInfoE
FNDA:1,_ZN7testing8internal27PrettyUnitTestResultPrinterD0Ev
FNDA:1,_ZN7testing8internal27PrettyUnitTestResultPrinterD2Ev
FNDA:1,_ZN7testing8internal27PrettyUnitTestResultPrinterC2Ev
FNDA:6,_ZN7testing8internal27PrettyUnitTestResultPrinter13PrintTestNameEPKcS3_
FNDA:1,_ZN7testing8internal27PrettyUnitTestResultPrinter18OnTestProgramStartERKNS_8UnitTestE
FNDA:1,_ZN7testing8internal27PrettyUnitTestResultPrinter22OnEnvironmentsSetUpEndERKNS_8UnitTestE
FNDA:1,_ZN7testing8internal27PrettyUnitTestResultPrinter25OnEnvironmentsTearDownEndERKNS_8UnitTestE
FNDA:1,_ZN7testing8internal27PrettyUnitTestResultPrinter16OnTestProgramEndERKNS_8UnitTestE
FNDA:1,_ZN7testing8internal27PrettyUnitTestResultPrinter20OnTestIterationStartERKNS_8UnitTestEi
FNDA:1,_ZN7testing8internal27PrettyUnitTestResultPrinter24OnEnvironmentsSetUpStartERKNS_8UnitTestE
FNDA:3,_ZN7testing8internal27PrettyUnitTestResultPrinter15OnTestCaseStartERKNS_8TestCaseE
FNDA:3,_ZN7testing8internal27PrettyUnitTestResultPrinter11OnTestStartERKNS_8TestInfoE
FNDA:0,_ZN7testing8internal27PrettyUnitTestResultPrinter16OnTestPartResultERKNS_14TestPartResultE
FNDA:3,_ZN7testing8internal27PrettyUnitTestResultPrinter9OnTestEndERKNS_8TestInfoE
FNDA:3,_ZN7testing8internal27PrettyUnitTestResultPrinter13OnTestCaseEndERKNS_8TestCaseE
FNDA:1,_ZN7testing8internal27PrettyUnitTestResultPrinter27OnEnvironmentsTearDownStartERKNS_8UnitTestE
FNDA:0,_ZN7testing8internal27PrettyUnitTestResultPrinter16PrintFailedTestsERKNS_8UnitTestE
FNDA:1,_ZN7testing8internal27PrettyUnitTestResultPrinter18OnTestIterationEndERKNS_8UnitTestEi
FNDA:1,_ZN7testing8internal17TestEventRepeaterC2Ev
FNDA:0,_ZNK7testing8internal17TestEventRepeater18forwarding_enabledEv
FNDA:0,_ZN7testing8internal17TestEventRepeater22set_forwarding_enabledEb
FNDA:1,_ZN7testing8internal17TestEventRepeaterD0Ev
FNDA:1,_ZN7testing8internal17TestEventRepeaterD2Ev
FNDA:1,_ZN7testing8internal17TestEventRepeater6AppendEPNS_17TestEventListenerE
FNDA:1,_ZN7testing8internal17TestEventRepeater7ReleaseEPNS_17TestEventListenerE
FNDA:1,_ZN7testing8internal17TestEventRepeater18OnTestProgramStartERKNS_8UnitTestE
FNDA:1,_ZN7testing8internal17TestEventRepeater24OnEnvironmentsSetUpStartERKNS_8UnitTestE
FNDA:3,_ZN7testing8internal17TestEventRepeater15OnTestCaseStartERKNS_8TestCaseE
FNDA:3,_ZN7testing8internal17TestEventRepeater11OnTestStartERKNS_8TestInfoE
FNDA:0,_ZN7testing8internal17TestEventRepeater16OnTestPartResultERKNS_14TestPartResultE
FNDA:1,_ZN7testing8internal17TestEventRepeater27OnEnvironmentsTearDownStartERKNS_8UnitTestE
FNDA:1,_ZN7testing8internal17TestEventRepeater22OnEnvironmentsSetUpEndERKNS_8UnitTestE
FNDA:1,_ZN7testing8internal17TestEventRepeater25OnEnvironmentsTearDownEndERKNS_8UnitTestE
FNDA:3,_ZN7testing8internal17TestEventRepeater9OnTestEndERKNS_8TestInfoE
FNDA:3,_ZN7testing8internal17TestEventRepeater13OnTestCaseEndERKNS_8TestCaseE
FNDA:1,_ZN7testing8internal17TestEventRepeater16OnTestProgramEndERKNS_8UnitTestE
FNDA:1,_ZN7testing8internal17TestEventRepeater20OnTestIterationStartERKNS_8UnitTestEi
FNDA:1,_ZN7testing8internal17TestEventRepeater18OnTestIterationEndERKNS_8UnitTestEi
FNDA:0,_ZN7testing8internal24XmlUnitTestResultPrinterD0Ev
FNDA:0,_ZN7testing8internal24XmlUnitTestResultPrinterD2Ev
FNDA:0,_ZN7testing8internal24XmlUnitTestResultPrinter24IsNormalizableWhitespaceEc
FNDA:0,_ZN7testing8internal24XmlUnitTestResultPrinter19IsValidXmlCharacterEc
FNDA:0,_ZN7testing8internal24XmlUnitTestResultPrinter18EscapeXmlAttributeERKNSt7__cxx1112basic_stringIcSt11char_traitsIcESaIcEEE
FNDA:0,_ZN7testing8internal24XmlUnitTestResultPrinterC2EPKc
FNDA:0,_ZN7testing8internal24XmlUnitTestResultPrinter18OnTestIterationEndERKNS_8UnitTestEi
FNDA:0,_ZN7testing8internal24XmlUnitTestResultPrinter9EscapeXmlERKNSt7__cxx1112basic_stringIcSt11char_traitsIcESaIcEEEb
FNDA:0,_ZN7testing8internal24XmlUnitTestResultPrinter26RemoveInvalidXmlCharactersERKNSt7__cxx1112basic_stringIcSt11char_traitsIcESaIcEEE
FNDA:0,_ZN7testing8internal27FormatTimeInMillisAsSecondsB5cxx11Ex
FNDA:0,_ZN7testing8internalL17PortableLocaltimeElP2tm
FNDA:0,_ZN7testing8internal32FormatEpochTimeInMillisAsIso8601B5cxx11Ex
FNDA:0,_ZN7testing8internal24XmlUnitTestResultPrinter21OutputXmlCDataSectionEPSoPKc
FNDA:0,_ZN7testing8internal24XmlUnitTestResultPrinter18OutputXmlAttributeEPSoRKNSt7__cxx1112basic_stringIcSt11char_traitsIcESaIcEEESA_SA_
FNDA:0,_ZN7testing8internal24XmlUnitTestResultPrinter17OutputXmlTestInfoEPSoPKcRKNS_8TestInfoE
FNDA:0,_ZN7testing8internal24XmlUnitTestResultPrinter16PrintXmlTestCaseEPSoRKNS_8TestCaseE
FNDA:0,_ZN7testing8internal24XmlUnitTestResultPrinter16PrintXmlUnitTestEPSoRKNS_8UnitTestE
FNDA:0,_ZN7testing8internal24XmlUnitTestResultPrinter29TestPropertiesAsXmlAttributesB5cxx11ERKNS_10TestResultE
FNDA:0,_ZN7testing8internal17StreamingListener9UrlEncodeB5cxx11EPKc
FNDA:0,_ZN7testing8internal17StreamingListener12SocketWriter14MakeConnectionEv
FNDA:0,_ZN7testing8internal11ScopedTraceC2EPKciRKNS_7MessageE
FNDA:0,_ZN7testing8internal11ScopedTraceD2Ev
FNDA:0,_ZN7testing8internal18OsStackTraceGetter17CurrentStackTraceB5cxx11Eii
FNDA:21,_ZN7testing8internal18OsStackTraceGetter16UponLeavingGTestEv
FNDA:1,_ZN7testing8internal23ScopedPrematureExitFileC2EPKc
FNDA:1,_ZN7testing8internal23ScopedPrematureExitFileD2Ev
FNDA:1,_ZN7testing18TestEventListenersC2Ev
FNDA:1,_ZN7testing18TestEventListenersD2Ev
FNDA:1,_ZN7testing18TestEventListeners6AppendEPNS_17TestEventListenerE
FNDA:1,_ZN7testing18TestEventListeners7ReleaseEPNS_17TestEventListenerE
FNDA:7,_ZN7testing18TestEventListeners8repeaterEv
FNDA:1,_ZN7testing18TestEventListeners23SetDefaultResultPrinterEPNS_17TestEventListenerE
FNDA:0,_ZN7testing18TestEventListeners22SetDefaultXmlGeneratorEPNS_17TestEventListenerE
FNDA:0,_ZNK7testing18TestEventListeners22EventForwardingEnabledEv
FNDA:0,_ZN7testing18TestEventListeners23SuppressEventForwardingEv
FNDA:52,_ZN7testing8UnitTest11GetInstanceEv
FNDA:0,_ZNK7testing8UnitTest26successful_test_case_countEv
FNDA:0,_ZNK7testing8UnitTest22failed_test_case_countEv
FNDA:0,_ZNK7testing8UnitTest21total_test_case_countEv
FNDA:2,_ZNK7testing8UnitTest22test_case_to_run_countEv
FNDA:1,_ZNK7testing8UnitTest21successful_test_countEv
FNDA:1,_ZNK7testing8UnitTest17failed_test_countEv
FNDA:1,_ZNK7testing8UnitTest30reportable_disabled_test_countEv
FNDA:0,_ZNK7testing8UnitTest19disabled_test_countEv
FNDA:0,_ZNK7testing8UnitTest21reportable_test_countEv
FNDA:0,_ZNK7testing8UnitTest16total_test_countEv
FNDA:2,_ZNK7testing8UnitTest17test_to_run_countEv
FNDA:0,_ZNK7testing8UnitTest15start_timestampEv
FNDA:1,_ZNK7testing8UnitTest12elapsed_timeEv
FNDA:1,_ZNK7testing8UnitTest6PassedEv
FNDA:0,_ZNK7testing8UnitTest6FailedEv
FNDA:0,_ZNK7testing8UnitTest11GetTestCaseEi
FNDA:0,_ZNK7testing8UnitTest18ad_hoc_test_resultEv
FNDA:0,_ZN7testing8UnitTest18GetMutableTestCaseEi
FNDA:6,_ZN7testing8UnitTest9listenersEv
FNDA:0,_ZN7testing8UnitTest14AddEnvironmentEPNS_11EnvironmentE
FNDA:0,_ZN7testing8UnitTest17AddTestPartResultENS_14TestPartResult4TypeEPKciRKNSt7__cxx1112basic_stringIcSt11char_traitsIcESaIcEEESC_
FNDA:0,_ZN7testing8UnitTest14RecordPropertyERKNSt7__cxx1112basic_stringIcSt11char_traitsIcESaIcEEES8_
FNDA:1,_ZN7testing8UnitTest3RunEv
FNDA:0,_ZNK7testing8UnitTest20original_working_dirEv
FNDA:0,_ZNK7testing8UnitTest17current_test_caseEv
FNDA:0,_ZNK7testing8UnitTest17current_test_infoEv
FNDA:0,_ZNK7testing8UnitTest11random_seedEv
FNDA:0,_ZN7testing8UnitTest27parameterized_test_registryEv
FNDA:1,_ZN7testing8UnitTestC2Ev
FNDA:0,_ZN7testing8UnitTestD0Ev
FNDA:1,_ZN7testing8UnitTestD2Ev
FNDA:0,_ZN7testing8UnitTest14PushGTestTraceERKNS_8internal9TraceInfoE
FNDA:0,_ZN7testing8UnitTest13PopGTestTraceEv
FNDA:1,_ZN7testing8internal12UnitTestImplC2EPNS_8UnitTestE
FNDA:1,_ZN7testing8internal12UnitTestImplD0Ev
FNDA:1,_ZN7testing8internal12UnitTestImplD2Ev
FNDA:0,_ZN7testing8internal12UnitTestImpl14RecordPropertyERKNS_12TestPropertyE
FNDA:1,_ZN7testing8internal12UnitTestImpl32SuppressTestEventsIfInSubprocessEv
FNDA:1,_ZN7testing8internal12UnitTestImpl18ConfigureXmlOutputEv
FNDA:1,_ZN7testing8internal12UnitTestImpl24ConfigureStreamingOutputEv
FNDA:2,_ZN7testing8internal12UnitTestImpl19PostFlagParsingInitEv
FNDA:6,_ZN7testing8internal14TestCaseNameIsC2ERKS1_
FNDA:6,_ZN7testing8internal14TestCaseNameIsC2EOS1_
FNDA:15,_ZN7testing8internal14TestCaseNameIsD2Ev
FNDA:3,_ZN7testing8internal14TestCaseNameIsC2ERKNSt7__cxx1112basic_stringIcSt11char_traitsIcESaIcEEE
FNDA:3,_ZNK7testing8internal14TestCaseNameIsclEPKNS_8TestCaseE
FNDA:3,_ZN7testing8internal12UnitTestImpl11GetTestCaseEPKcS3_PFvvES5_
FNDA:0,_ZN7testing8internalL16SetUpEnvironmentEPNS_11EnvironmentE
FNDA:0,_ZN7testing8internalL19TearDownEnvironmentEPNS_11EnvironmentE
FNDA:1,_ZN7testing8internal12UnitTestImpl11RunAllTestsEv
FNDA:1,_ZN7testing8internal30WriteToShardStatusFileIfNeededEv
FNDA:2,_ZN7testing8internal11ShouldShardEPKcS2_b
FNDA:4,_ZN7testing8internal17Int32FromEnvOrDieEPKci
FNDA:0,_ZN7testing8internal20ShouldRunTestOnShardEiii
FNDA:1,_ZN7testing8internal12UnitTestImpl11FilterTestsENS1_18ReactionToShardingE
FNDA:0,_ZN7testing8internalL14PrintOnOneLineEPKci
FNDA:0,_ZN7testing8internal12UnitTestImpl23ListTestsMatchingFilterEv
FNDA:0,_ZN7testing8internal12UnitTestImpl25set_os_stack_trace_getterEPNS0_27OsStackTraceGetterInterfaceE
FNDA:21,_ZN7testing8internal12UnitTestImpl21os_stack_trace_getterEv
FNDA:7,_ZN7testing8internal12UnitTestImpl19current_test_resultEv
FNDA:0,_ZN7testing8internal12UnitTestImpl12ShuffleTestsEv
FNDA:1,_ZN7testing8internal12UnitTestImpl14UnshuffleTestsEv
FNDA:0,_ZN7testing8internal31GetCurrentOsStackTraceExceptTopB5cxx11EPNS_8UnitTestEi
FNDA:60,_ZN7testing8internal6IsTrueEb
FNDA:2,_ZN7testing8internal10AlwaysTrueEv
FNDA:0,_ZN7testing8internal10SkipPrefixEPKcPS2_
FNDA:0,_ZN7testing8internal14ParseFlagValueEPKcS2_b
FNDA:0,_ZN7testing8internal13ParseBoolFlagEPKcS2_Pb
FNDA:0,_ZN7testing8internal14ParseInt32FlagEPKcS2_Pi
FNDA:0,_ZN7testing8internal15ParseStringFlagEPKcS2_PNSt7__cxx1112basic_stringIcSt11char_traitsIcESaIcEEE
FNDA:0,_ZN7testing8internalL23HasGoogleTestFlagPrefixEPKc
FNDA:0,_ZN7testing8internalL17PrintColorEncodedEPKc
FNDA:0,_ZN7testing8internal19ParseGoogleTestFlagEPKc
FNDA:0,_ZN7testing8internal17LoadFlagsFromFileERKNSt7__cxx1112basic_stringIcSt11char_traitsIcESaIcEEE
FNDA:0,_ZN7testing8internal28ParseGoogleTestFlagsOnlyImplIwEEvPiPPT_
FNDA:1,_ZN7testing8internal28ParseGoogleTestFlagsOnlyImplIcEEvPiPPT_
FNDA:1,_ZN7testing8internal24ParseGoogleTestFlagsOnlyEPiPPc
FNDA:0,_ZN7testing8internal24ParseGoogleTestFlagsOnlyEPiPPw
FNDA:0,_ZN7testing8internal18InitGoogleTestImplIwEEvPiPPT_
FNDA:1,_ZN7testing8internal18InitGoogleTestImplIcEEvPiPPT_
FNDA:1,_ZN7testing14InitGoogleTestEPiPPc
FNDA:0,_ZN7testing14InitGoogleTestEPiPPw
FNF:358
FNH:153
DA:192,1
DA:199,1
DA:202,1
DA:207,1
DA:212,1
DA:218,1
DA:226,1
DA:238,1
DA:250,1
DA:256,1
DA:262,1
DA:273,1
DA:279,1
DA:285,1
DA:292,1
DA:300,1
DA:311,0
DA:313,0
DA:315,0
DA:316,0
DA:317,0
DA:318,0
DA:319,0
DA:324,0
DA:330,2
DA:335,5
DA:337,5
DA:338,20
DA:339,15
DA:341,5
DA:345,0
DA:346,0
DA:350,6
DA:351,6
DA:356,6
DA:357,6
DA:361,0
DA:364,0
DA:365,0
DA:366,0
DA:368,0
DA:369,0
DA:370,0
DA:373,0
DA:375,0
DA:376,0
DA:378,0
DA:381,0
DA:387,1
DA:389,2
DA:393,2
DA:399,0
DA:400,0
DA:405,0
DA:408,0
DA:414,1
DA:415,1
DA:416,1
DA:418,1
DA:421,1
DA:426,0
DA:427,0
DA:428,0
DA:429,0
DA:431,0
DA:432,0
DA:433,0
DA:434,0
DA:436,0
DA:438,0
DA:439,0
DA:444,0
DA:445,0
DA:446,0
DA:448,0
DA:449,0
DA:452,0
DA:453,0
DA:454,0
DA:462,505
DA:464,505
DA:465,6
DA:467,6
DA:468,0
DA:469,0
DA:470,292
DA:471,492
DA:472,492
DA:473,207
DA:474,211
DA:475,211
DA:479,15
DA:481,15
DA:483,33
DA:484,3
DA:488,21
DA:491,21
DA:492,12
DA:496,9
DA:502,3
DA:504,6
DA:508,3
DA:509,3
DA:510,6
DA:511,6
DA:512,3
DA:513,3
DA:514,3
DA:516,0
DA:517,0
DA:518,0
DA:520,0
DA:526,6
DA:527,9
DA:563,0
DA:564,0
DA:566,0
DA:567,0
DA:568,0
DA:573,0
DA:574,0
DA:576,0
DA:577,0
DA:578,0
DA:580,0
DA:581,0
DA:582,0
DA:583,0
DA:584,0
DA:586,0
DA:587,0
DA:589,0
DA:593,0
DA:594,0
DA:595,0
DA:596,0
DA:598,0
DA:600,0
DA:604,0
DA:606,0
DA:607,0
DA:620,4
DA:621,4
DA:626,1
DA:631,0
DA:639,0
DA:640,0
DA:641,0
DA:642,0
DA:643,0
DA:644,0
DA:645,0
DA:647,0
DA:650,0
DA:651,0
DA:652,0
DA:653,0
DA:654,0
DA:657,0
DA:658,0
DA:659,0
DA:660,0
DA:661,0
DA:664,0
DA:670,0
DA:673,0
DA:676,0
DA:682,0
DA:683,0
DA:684,0
DA:686,1
DA:687,1
DA:689,0
DA:691,0
DA:692,0
DA:693,0
DA:695,1
DA:696,1
DA:698,0
DA:700,0
DA:701,0
DA:705,0
DA:706,0
DA:707,0
DA:711,0
DA:713,0
DA:714,0
DA:715,0
DA:719,0
DA:720,0
DA:724,0
DA:726,0
DA:727,0
DA:730,0
DA:731,0
DA:735,2
DA:736,2
DA:740,4
DA:741,4
DA:746,2
DA:747,2
DA:751,1
DA:752,1
DA:756,1
DA:757,1
DA:761,1
DA:762,1
DA:763,1
DA:767,0
DA:768,0
DA:772,0
DA:773,0
DA:777,0
DA:778,0
DA:782,2
DA:783,2
DA:796,0
DA:797,0
DA:802,0
DA:806,15
DA:842,15
DA:843,15
DA:894,4
DA:895,4
DA:897,4
DA:899,4
DA:906,0
DA:908,0
DA:909,0
DA:910,0
DA:911,0
DA:912,0
DA:914,0
DA:915,0
DA:918,0
DA:922,0
DA:924,0
DA:925,0
DA:926,0
DA:927,0
DA:928,0
DA:929,0
DA:930,0
DA:932,0
DA:933,0
DA:936,0
DA:937,0
DA:946,102
DA:949,51
DA:950,51
DA:954,0
DA:955,0
DA:957,0
DA:958,0
DA:964,0
DA:965,0
DA:966,0
DA:981,51
DA:982,51
DA:987,0
DA:988,0
DA:989,0
DA:990,0
DA:991,0
DA:992,0
DA:995,0
DA:997,0
DA:998,0
DA:999,0
DA:1002,0
DA:1003,0
DA:1004,0
DA:1005,0
DA:1006,0
DA:1010,2
DA:1011,2
DA:1015,0
DA:1016,0
DA:1021,0
DA:1022,0
DA:1028,0
DA:1031,0
DA:1033,0
DA:1036,0
DA:1037,0
DA:1038,0
DA:1041,0
DA:1042,0
DA:1043,0
DA:1046,0
DA:1047,0
DA:1048,0
DA:1050,0
DA:1051,0
DA:1052,0
DA:1055,0
DA:1056,0
DA:1057,0
DA:1058,0
DA:1059,0
DA:1060,0
DA:1061,0
DA:1062,0
DA:1063,0
DA:1067,0
DA:1068,0
DA:1074,0
DA:1075,0
DA:1076,0
DA:1077,0
DA:1078,0
DA:1079,0
DA:1081,0
DA:1082,0
DA:1088,0
DA:1090,0
DA:1091,0
DA:1092,0
DA:1093,0
DA:1094,0
DA:1104,0
DA:1107,0
DA:1109,0
DA:1110,0
DA:1111,0
DA:1113,0
DA:1114,0
DA:1117,0
DA:1126,0
DA:1128,0
DA:1129,0
DA:1133,0
DA:1135,0
DA:1136,0
DA:1137,0
DA:1138,0
DA:1139,0
DA:1140,0
DA:1141,0
DA:1142,0
DA:1143,0
DA:1144,0
DA:1145,0
DA:1146,0
DA:1147,0
DA:1148,0
DA:1149,0
DA:1151,0
DA:1153,0
DA:1154,0
DA:1155,0
DA:1156,0
DA:1157,0
DA:1158,0
DA:1159,0
DA:1161,0
DA:1163,0
DA:1166,0
DA:1167,0
DA:1168,0
DA:1169,0
DA:1175,0
DA:1176,0
DA:1177,0
DA:1178,0
DA:1180,0
DA:1181,0
DA:1183,0
DA:1184,0
DA:1186,0
DA:1187,0
DA:1203,0
DA:1206,0
DA:1208,0
DA:1209,0
DA:1210,0
DA:1212,0
DA:1213,0
DA:1214,0
DA:1215,0
DA:1219,0
DA:1220,0
DA:1221,0
DA:1222,0
DA:1227,0
DA:1228,0
DA:1229,0
DA:1231,0
DA:1232,0
DA:1233,0
DA:1235,0
DA:1239,0
DA:1241,0
DA:1243,0
DA:1244,0
DA:1246,0
DA:1247,0
DA:1251,0
DA:1252,0
DA:1255,0
DA:1257,0
DA:1260,0
DA:1262,0
DA:1272,0
DA:1273,0
DA:1274,0
DA:1275,0
DA:1276,0
DA:1277,0
DA:1279,0
DA:1280,0
DA:1281,0
DA:1282,0
DA:1283,0
DA:1284,0
DA:1285,0
DA:1288,0
DA:1291,0
DA:1292,0
DA:1312,0
DA:1317,0
DA:1318,0
DA:1319,0
DA:1320,0
DA:1322,0
DA:1323,0
DA:1324,0
DA:1327,0
DA:1328,0
DA:1331,0
DA:1333,0
DA:1335,0
DA:1336,0
DA:1337,0
DA:1338,0
DA:1342,0
DA:1346,0
DA:1351,0
DA:1352,0
DA:1353,0
DA:1354,0
DA:1355,0
DA:1356,0
DA:1357,0
DA:1358,0
DA:1362,0
DA:1368,0
DA:1369,0
DA:1373,0
DA:1374,0
DA:1375,0
DA:1376,0
DA:1377,0
DA:1378,0
DA:1384,0
DA:1389,0
DA:1390,0
DA:1394,0
DA:1395,0
DA:1396,0
DA:1403,0
DA:1404,0
DA:1407,0
DA:1408,0
DA:1412,0
DA:1413,0
DA:1414,0
DA:1421,0
DA:1423,0
DA:1428,0
DA:1430,0
DA:1437,0
DA:1441,0
DA:1442,0
DA:1447,0
DA:1448,0
DA:1449,0
DA:1470,0
DA:1473,0
DA:1476,0
DA:1479,0
DA:1482,0
DA:1487,0
DA:1491,0
DA:1492,0
DA:1497,0
DA:1498,0
DA:1499,0
DA:1503,0
DA:1507,0
DA:1508,0
DA:1513,0
DA:1514,0
DA:1515,0
DA:1519,0
DA:1523,0
DA:1524,0
DA:1526,0
DA:1527,0
DA:1528,0
DA:1533,0
DA:1537,0
DA:1538,0
DA:1540,0
DA:1541,0
DA:1542,0
DA:1543,0
DA:1557,0
DA:1558,0
DA:1559,0
DA:1561,0
DA:1564,0
DA:1565,0
DA:1566,0
DA:1568,0
DA:1573,0
DA:1575,0
DA:1583,0
DA:1587,0
DA:1588,0
DA:1590,0
DA:1591,0
DA:1593,0
DA:1594,0
DA:1595,0
DA:1596,0
DA:1597,0
DA:1606,0
DA:1609,0
DA:1612,0
DA:1615,0
DA:1618,0
DA:1621,0
DA:1624,0
DA:1627,0
DA:1630,0
DA:1633,0
DA:1636,0
DA:1639,0
DA:1643,0
DA:1646,0
DA:1649,0
DA:1652,0
DA:1747,0
DA:1748,0
DA:1749,0
DA:1750,0
DA:1759,0
DA:1760,0
DA:1761,0
DA:1765,0
DA:1766,0
DA:1767,0
DA:1768,0
DA:1769,0
DA:1770,0
DA:1771,0
DA:1772,0
DA:1773,0
DA:1774,0
DA:1775,0
DA:1776,0
DA:1778,0
DA:1779,0
DA:1780,0
DA:1781,0
DA:1782,0
DA:1784,0
DA:1794,0
DA:1796,0
DA:1800,0
DA:1802,0
DA:1807,0
DA:1823,0
DA:1824,0
DA:1825,0
DA:1827,0
DA:1828,0
DA:1831,0
DA:1832,0
DA:1833,0
DA:1834,0
DA:1835,0
DA:1836,0
DA:1838,0
DA:1841,0
DA:1843,0
DA:1848,0
DA:1849,0
DA:1851,0
DA:1860,0
DA:1861,0
DA:1863,0
DA:1865,0
DA:1869,0
DA:1873,0
DA:1874,0
DA:1879,0
DA:1880,0
DA:1881,0
DA:1885,0
DA:1889,0
DA:1890,0
DA:1893,0
DA:1894,0
DA:1895,0
DA:1896,0
DA:1905,1
DA:1906,1
DA:1907,0
DA:1908,1
DA:1909,0
DA:1910,1
DA:1925,0
DA:1927,0
DA:1929,0
DA:1934,0
DA:1949,0
DA:1951,0
DA:1952,0
DA:1953,0
DA:1954,0
DA:1955,0
DA:1959,0
DA:1960,0
DA:1961,0
DA:1962,0
DA:1966,0
DA:1967,0
DA:1968,0
DA:1969,0
DA:1973,0
DA:1974,0
DA:1975,0
DA:1976,0
DA:1977,0
DA:1982,51
DA:1983,102
DA:1984,51
DA:1985,51
DA:1987,51
DA:1988,51
DA:1989,739
DA:1990,688
DA:1991,0
DA:1993,688
DA:1997,102
DA:2001,0
DA:2004,0
DA:2005,0
DA:2006,0
DA:2009,0
DA:2017,7
DA:2019,7
DA:2020,7
DA:2023,7
DA:2024,7
DA:2029,0
DA:2030,0
DA:2031,0
DA:2032,0
DA:2038,0
DA:2039,0
DA:2040,0
DA:2041,0
DA:2045,0
DA:2046,0
DA:2047,0
DA:2050,0
DA:2051,0
DA:2052,0
DA:2057,0
DA:2059,0
DA:2060,0
DA:2062,0
DA:2065,0
DA:2066,0
DA:2067,0
DA:2068,0
DA:2070,0
DA:2108,0
DA:2109,0
DA:2112,0
DA:2114,0
DA:2115,0
DA:2116,0
DA:2117,0
DA:2118,0
DA:2119,0
DA:2121,0
DA:2124,0
DA:2127,0
DA:2128,0
DA:2129,0
DA:2130,0
DA:2131,0
DA:2133,0
DA:2134,0
DA:2136,0
DA:2138,0
DA:2141,0
DA:2143,0
DA:2144,0
DA:2145,0
DA:2146,0
DA:2147,0
DA:2148,0
DA:2150,0
DA:2155,0
DA:2157,0
DA:2158,0
DA:2162,6
DA:2163,6
DA:2164,6
DA:2165,6
DA:2166,6
DA:2167,6
DA:2170,20
DA:2171,20
DA:2172,0
DA:2173,0
DA:2175,20
DA:2179,0
DA:2180,0
DA:2184,7
DA:2185,7
DA:2189,0
DA:2190,0
DA:2194,0
DA:2195,0
DA:2200,20
DA:2201,20
DA:2205,0
DA:2206,0
DA:2214,3
DA:2215,3
DA:2216,3
DA:2221,3
DA:2222,3
DA:2227,3
DA:2228,3
DA:2233,3
DA:2234,3
DA:2237,0
DA:2238,0
DA:2239,0
DA:2242,0
DA:2243,0
DA:2244,0
DA:2245,0
DA:2246,0
DA:2250,0
DA:2254,0
DA:2260,0
DA:2269,3
DA:2270,3
DA:2271,3
DA:2274,3
DA:2275,3
DA:2276,3
DA:2279,3
DA:2280,3
DA:2281,3
DA:2283,3
DA:2285,0
DA:2287,0
DA:2289,0
DA:2296,0
DA:2298,0
DA:2301,0
DA:2302,0
DA:2303,0
DA:2304,0
DA:2305,0
DA:2306,0
DA:2307,0
DA:2308,0
DA:2309,0
DA:2313,0
DA:2314,0
DA:2315,0
DA:2316,0
DA:2317,0
DA:2318,0
DA:2319,0
DA:2320,0
DA:2321,0
DA:2322,0
DA:2324,0
DA:2327,3
DA:2352,0
DA:2354,0
DA:2355,0
DA:2356,0
DA:2358,0
DA:2360,0
DA:2362,0
DA:2368,0
DA:2369,0
DA:2370,0
DA:2383,22
DA:2402,22
DA:2410,22
DA:2435,22
DA:2438,22
DA:2439,0
DA:2443,0
DA:2444,0
DA:2445,0
DA:2447,0
DA:2448,0
DA:2449,0
DA:2453,0
DA:2458,0
DA:2465,3
DA:2466,3
DA:2468,3
DA:2469,3
DA:2470,3
DA:2472,3
DA:2473,3
DA:2474,3
DA:2481,3
DA:2482,3
DA:2487,7
DA:2488,7
DA:2492,0
DA:2494,0
DA:2501,3
DA:2507,3
DA:2510,0
DA:2511,0
DA:2518,3
DA:2521,3
DA:2543,3
DA:2555,3
DA:2556,3
DA:2557,3
DA:2561,0
DA:2563,0
DA:2565,0
DA:2566,0
DA:2567,0
DA:2568,0
DA:2569,0
DA:2570,0
DA:2571,0
DA:2572,0
DA:2574,0
DA:2575,0
DA:2577,0
DA:2578,0
DA:2617,1
DA:2619,1
DA:2620,1
DA:2621,1
DA:2624,1
DA:2630,3
DA:2631,3
DA:2634,3
DA:2635,3
DA:2637,3
DA:2640,3
DA:2642,3
DA:2644,3
DA:2647,3
DA:2648,3
DA:2649,3
DA:2653,3
DA:2656,3
DA:2660,3
DA:2661,3
DA:2664,3
DA:2667,3
DA:2671,3
DA:2677,3
DA:2678,3
DA:2682,9
DA:2683,9
DA:2687,3
DA:2688,3
DA:2692,0
DA:2693,0
DA:2697,0
DA:2698,0
DA:2702,12
DA:2703,12
DA:2707,6
DA:2708,6
DA:2720,3
DA:2722,3
DA:2724,0
DA:2728,3
DA:2729,3
DA:2732,9
DA:2734,3
DA:2735,6
DA:2739,0
DA:2740,0
DA:2741,0
DA:2746,3
DA:2747,3
DA:2748,3
DA:2753,3
DA:2754,3
DA:2755,3
DA:2756,3
DA:2759,3
DA:2760,3
DA:2762,3
DA:2763,3
DA:2765,3
DA:2767,3
DA:2768,3
DA:2769,3
DA:2772,3
DA:2773,6
DA:2774,3
DA:2776,3
DA:2778,3
DA:2779,3
DA:2782,3
DA:2783,3
DA:2787,3
DA:2788,3
DA:2789,3
DA:2790,3
DA:2793,0
DA:2794,0
DA:2795,0
DA:2798,3
DA:2799,6
DA:2800,3
DA:2802,3
DA:2809,11
DA:2812,22
DA:2813,33
DA:2817,3
DA:2818,3
DA:2822,2
DA:2823,2
DA:2830,0
DA:2831,0
DA:2832,0
DA:2833,0
DA:2835,0
DA:2840,0
DA:2842,0
DA:2843,0
DA:2850,0
DA:2852,0
DA:2853,0
DA:2854,0
DA:2855,0
DA:2856,0
DA:2860,0
DA:2862,0
DA:2863,0
DA:2864,0
DA:2876,0
DA:2904,17
DA:2905,17
DA:2906,0
DA:2907,17
DA:2908,0
DA:2909,0
DA:2916,1
DA:2917,1
DA:2919,1
DA:2926,1
DA:2928,2
DA:2929,2
DA:2930,1
DA:2931,0
DA:2932,0
DA:2933,0
DA:2934,0
DA:2935,0
DA:2936,0
DA:2937,1
DA:2938,1
DA:2939,1
DA:2943,0
DA:2944,0
DA:2945,0
DA:2946,0
DA:2956,17
DA:2958,17
DA:2965,17
DA:2966,17
DA:2970,17
DA:2971,0
DA:2972,0
DA:2973,0
DA:2997,17
DA:2998,17
DA:2999,17
DA:3001,17
DA:3009,0
DA:3010,0
DA:3011,0
DA:3013,0
DA:3014,0
DA:3015,0
DA:3016,0
DA:3017,0
DA:3018,0
DA:3020,0
DA:3021,0
DA:3024,0
DA:3029,2
DA:3031,1
DA:3032,6
DA:3033,6
DA:3034,6
DA:3037,1
DA:3040,1
DA:3047,1
DA:3049,1
DA:3056,1
DA:3058,1
DA:3059,0
DA:3061,1
DA:3065,1
DA:3066,0
DA:3070,1
DA:3071,0
DA:3072,0
DA:3078,1
DA:3079,0
DA:3084,1
DA:3085,2
DA:3086,2
DA:3087,2
DA:3088,1
DA:3089,1
DA:3091,1
DA:3093,1
DA:3094,1
DA:3095,1
DA:3096,1
DA:3098,3
DA:3100,6
DA:3101,3
DA:3102,3
DA:3103,3
DA:3104,3
DA:3106,0
DA:3108,3
DA:3109,3
DA:3111,3
DA:3112,3
DA:3113,3
DA:3114,3
DA:3115,3
DA:3116,3
DA:3119,0
DA:3122,0
DA:3123,0
DA:3126,0
DA:3127,0
DA:3130,3
DA:3131,3
DA:3132,3
DA:3134,0
DA:3136,3
DA:3137,3
DA:3138,0
DA:3140,3
DA:3141,3
DA:3142,6
DA:3144,0
DA:3146,3
DA:3147,3
DA:3149,3
DA:3150,3
DA:3153,6
DA:3154,3
DA:3155,3
DA:3157,6
DA:3158,3
DA:3161,1
DA:3163,1
DA:3164,1
DA:3165,1
DA:3166,1
DA:3169,0
DA:3170,0
DA:3171,0
DA:3172,0
DA:3175,0
DA:3176,0
DA:3177,0
DA:3178,0
DA:3180,0
DA:3181,0
DA:3182,0
DA:3183,0
DA:3185,0
DA:3186,0
DA:3187,0
DA:3188,0
DA:3193,1
DA:3195,1
DA:3196,2
DA:3197,2
DA:3198,2
DA:3199,1
DA:3200,1
DA:3201,2
DA:3203,1
DA:3204,1
DA:3205,1
DA:3207,1
DA:3208,1
DA:3209,0
DA:3210,0
DA:3211,0
DA:3212,0
DA:3213,0
DA:3217,1
DA:3218,1
DA:3219,0
DA:3220,0
DA:3222,0
DA:3228,1
DA:3229,1
DA:3238,1
DA:3245,0
DA:3246,0
DA:3272,3
DA:3273,1
DA:3274,2
DA:3276,1
DA:3277,1
DA:3278,1
DA:3281,1
DA:3282,1
DA:3283,0
DA:3284,0
DA:3285,0
DA:3289,1
DA:3313,1
DA:3314,1
DA:3315,3
DA:3316,3
DA:3317,0
DA:3318,1
DA:3319,1
DA:3320,1
DA:3321,3
DA:3322,3
DA:3323,1
DA:3328,1
DA:3330,1
DA:3331,2
DA:3332,1
DA:3335,1
DA:3337,1
DA:3339,1
DA:3340,2
DA:3341,1
DA:3344,1
DA:3349,0
DA:3358,0
DA:3359,0
DA:3363,0
DA:3364,0
DA:3377,0
DA:3378,0
DA:3422,0
DA:3423,0
DA:3424,0
DA:3425,0
DA:3426,0
DA:3427,0
DA:3429,0
DA:3432,0
DA:3434,0
DA:3435,0
DA:3436,0
DA:3438,0
DA:3439,0
DA:3441,0
DA:3452,0
DA:3455,0
DA:3456,0
DA:3458,0
DA:3459,0
DA:3460,0
DA:3461,0
DA:3462,0
DA:3476,0
DA:3478,0
DA:3480,0
DA:3481,0
DA:3482,0
DA:3483,0
DA:3484,0
DA:3485,0
DA:3486,0
DA:3487,0
DA:3488,0
DA:3489,0
DA:3490,0
DA:3491,0
DA:3492,0
DA:3493,0
DA:3494,0
DA:3496,0
DA:3497,0
DA:3498,0
DA:3499,0
DA:3500,0
DA:3502,0
DA:3503,0
DA:3504,0
DA:3505,0
DA:3506,0
DA:3507,0
DA:3508,0
DA:3510,0
DA:3512,0
DA:3516,0
DA:3522,0
DA:3524,0
DA:3525,0
DA:3526,0
DA:3527,0
DA:3528,0
DA:3530,0
DA:3550,0
DA:3551,0
DA:3552,0
DA:3553,0
DA:3556,0
DA:3568,0
DA:3574,0
DA:3576,0
DA:3577,0
DA:3579,0
DA:3580,0
DA:3581,0
DA:3582,0
DA:3583,0
DA:3584,0
DA:3588,0
DA:3590,0
DA:3591,0
DA:3593,0
DA:3594,0
DA:3595,0
DA:3596,0
DA:3597,0
DA:3598,0
DA:3600,0
DA:3601,0
DA:3603,0
DA:3604,0
DA:3605,0
DA:3607,0
DA:3613,0
DA:3615,0
DA:3618,0
DA:3620,0
DA:3621,0
DA:3625,0
DA:3628,0
DA:3629,0
DA:3631,0
DA:3632,0
DA:3634,0
DA:3635,0
DA:3638,0
DA:3639,0
DA:3642,0
DA:3643,0
DA:3644,0
DA:3645,0
DA:3646,0
DA:3647,0
DA:3649,0
DA:3650,0
DA:3651,0
DA:3652,0
DA:3653,0
DA:3654,0
DA:3657,0
DA:3658,0
DA:3660,0
DA:3661,0
DA:3662,0
DA:3663,0
DA:3664,0
DA:3668,0
DA:3669,0
DA:3671,0
DA:3672,0
DA:3675,0
DA:3677,0
DA:3678,0
DA:3679,0
DA:3680,0
DA:3681,0
DA:3682,0
DA:3683,0
DA:3684,0
DA:3686,0
DA:3687,0
DA:3688,0
DA:3689,0
DA:3690,0
DA:3691,0
DA:3693,0
DA:3694,0
DA:3695,0
DA:3697,0
DA:3698,0
DA:3701,0
DA:3703,0
DA:3705,0
DA:3706,0
DA:3708,0
DA:3709,0
DA:3710,0
DA:3711,0
DA:3712,0
DA:3714,0
DA:3715,0
DA:3716,0
DA:3718,0
DA:3719,0
DA:3720,0
DA:3722,0
DA:3723,0
DA:3724,0
DA:3727,0
DA:3729,0
DA:3730,0
DA:3732,0
DA:3733,0
DA:3734,0
DA:3736,0
DA:3737,0
DA:3741,0
DA:3743,0
DA:3744,0
DA:3745,0
DA:3746,0
DA:3747,0
DA:3749,0
DA:3761,0
DA:3762,0
DA:3763,0
DA:3764,0
DA:3765,0
DA:3766,0
DA:3770,0
DA:3771,0
DA:3772,0
DA:3773,0
DA:3774,0
DA:3777,0
DA:3780,0
DA:3781,0
DA:3782,0
DA:3785,0
DA:3786,0
DA:3787,0
DA:3788,0
DA:3792,0
DA:3793,0
DA:3794,0
DA:3795,0
DA:3796,0
DA:3800,0
DA:3801,0
DA:3802,0
DA:3804,0
DA:3806,0
DA:3807,0
DA:3808,0
DA:3813,0
DA:3815,0
DA:3816,0
DA:3817,0
DA:3819,0
DA:3828,0
DA:3830,0
DA:3831,0
DA:3832,0
DA:3833,0
DA:3835,0
DA:3836,0
DA:3839,0
DA:3841,0
DA:3842,0
DA:3850,0
DA:3852,0
DA:3855,21
DA:3861,1
DA:3862,1
DA:3864,1
DA:3868,0
DA:3869,0
DA:3870,0
DA:3872,1
DA:3874,2
DA:3875,1
DA:3876,0
DA:3878,1
DA:3890,1
DA:3891,1
DA:3893,1
DA:3894,1
DA:3896,1
DA:3902,1
DA:3903,1
DA:3904,1
DA:3909,1
DA:3910,1
DA:3911,1
DA:3912,0
DA:3913,0
DA:3914,1
DA:3919,7
DA:3926,1
DA:3927,1
DA:3930,1
DA:3931,1
DA:3932,1
DA:3933,1
DA:3935,1
DA:3942,0
DA:3943,0
DA:3946,0
DA:3947,0
DA:3948,0
DA:3949,0
DA:3951,0
DA:3955,0
DA:3956,0
DA:3959,0
DA:3960,0
DA:3961,0
DA:3972,52
DA:3988,52
DA:3989,52
DA:3994,0
DA:3995,0
DA:3999,0
DA:4000,0
DA:4004,0
DA:4005,0
DA:4010,2
DA:4011,2
DA:4015,1
DA:4016,1
DA:4020,1
DA:4023,1
DA:4024,1
DA:4028,0
DA:4029,0
DA:4033,0
DA:4034,0
DA:4038,0
DA:4041,2
DA:4045,0
DA:4046,0
DA:4050,1
DA:4051,1
DA:4055,1
DA:4059,0
DA:4063,0
DA:4064,0
DA:4069,0
DA:4070,0
DA:4075,0
DA:4076,0
DA:4081,6
DA:4082,6
DA:4095,0
DA:4096,0
DA:4097,0
DA:4100,0
DA:4101,0
DA:4108,0
DA:4114,0
DA:4115,0
DA:4117,0
DA:4118,0
DA:4119,0
DA:4121,0
DA:4122,0
DA:4123,0
DA:4124,0
DA:4125,0
DA:4129,0
DA:4130,0
DA:4135,0
DA:4136,0
DA:4137,0
DA:4139,0
DA:4145,0
DA:4156,0
DA:4158,0
DA:4160,0
DA:4168,0
DA:4175,0
DA:4177,0
DA:4178,0
DA:4185,1
DA:4187,1
DA:4212,2
DA:4216,1
DA:4257,1
DA:4260,2
DA:4265,0
DA:4266,0
DA:4271,0
DA:4273,0
DA:4274,0
DA:4279,0
DA:4281,0
DA:4282,0
DA:4286,0
DA:4292,0
DA:4294,0
DA:4299,1
DA:4300,1
DA:4301,1
DA:4304,2
DA:4305,1
DA:4306,1
DA:4310,0
DA:4312,0
DA:4313,0
DA:4314,0
DA:4317,0
DA:4319,0
DA:4320,0
DA:4321,0
DA:4325,1
DA:4350,1
DA:4353,2
DA:4354,1
DA:4355,1
DA:4357,3
DA:4359,1
DA:4362,1
DA:4364,1
DA:4365,2
DA:4372,0
DA:4373,0
DA:4376,0
DA:4377,0
DA:4378,0
DA:4379,0
DA:4380,0
DA:4381,0
DA:4383,0
DA:4384,0
DA:4386,0
DA:4387,0
DA:4392,1
DA:4393,1
DA:4394,0
DA:4395,1
DA:4400,1
DA:4401,2
DA:4402,1
DA:4403,0
DA:4404,0
DA:4405,1
DA:4406,0
DA:4408,0
DA:4410,1
DA:4415,1
DA:4416,1
DA:4417,1
DA:4418,0
DA:4419,0
DA:4420,0
DA:4421,0
DA:4423,0
DA:4425,0
DA:4428,1
DA:4436,2
DA:4438,2
DA:4439,1
DA:4447,1
DA:4448,1
DA:4454,1
DA:4458,1
DA:4462,1
DA:4465,2
DA:4475,27
DA:4478,3
DA:4479,3
DA:4482,3
DA:4483,3
DA:4502,3
DA:4508,6
DA:4509,9
DA:4511,3
DA:4512,0
DA:4516,3
DA:4519,3
DA:4525,0
DA:4526,0
DA:4527,0
DA:4530,3
DA:4533,3
DA:4534,3
DA:4539,0
DA:4540,0
DA:4551,1
DA:4553,1
DA:4554,0
DA:4557,0
DA:4561,1
DA:4562,0
DA:4566,1
DA:4571,1
DA:4575,1
DA:4578,1
DA:4586,1
DA:4587,1
DA:4591,1
DA:4593,1
DA:4596,1
DA:4598,0
DA:4599,0
DA:4602,1
DA:4603,0
DA:4606,1
DA:4608,1
DA:4610,1
DA:4611,1
DA:4615,1
DA:4617,1
DA:4618,2
DA:4621,1
DA:4623,1
DA:4626,1
DA:4627,0
DA:4631,0
DA:4635,1
DA:4638,1
DA:4640,1
DA:4641,1
DA:4642,1
DA:4646,1
DA:4647,4
DA:4649,3
DA:4654,1
DA:4655,1
DA:4657,1
DA:4660,1
DA:4663,1
DA:4666,1
DA:4667,0
DA:4676,1
DA:4678,1
DA:4680,0
DA:4684,1
DA:4686,1
DA:4693,1
DA:4694,1
DA:4695,1
DA:4696,0
DA:4697,0
DA:4698,0
DA:4702,0
DA:4703,0
DA:4705,0
DA:4707,1
DA:4715,2
DA:4718,2
DA:4719,0
DA:4722,2
DA:4723,2
DA:4725,2
DA:4726,2
DA:4727,0
DA:4728,0
DA:4729,0
DA:4730,0
DA:4731,0
DA:4732,0
DA:4733,0
DA:4734,0
DA:4735,0
DA:4736,0
DA:4737,0
DA:4738,0
DA:4739,0
DA:4740,0
DA:4741,0
DA:4742,0
DA:4743,0
DA:4744,0
DA:4745,0
DA:4746,0
DA:4747,0
DA:4748,0
DA:4749,0
DA:4750,0
DA:4751,0
DA:4754,0
DA:4760,4
DA:4761,4
DA:4762,4
DA:4763,4
DA:4767,0
DA:4769,0
DA:4771,0
DA:4778,0
DA:4779,0
DA:4789,1
DA:4790,1
DA:4791,1
DA:4792,1
DA:4793,1
DA:4799,1
DA:4800,1
DA:4801,4
DA:4802,3
DA:4803,6
DA:4804,3
DA:4806,6
DA:4807,3
DA:4808,6
DA:4812,3
DA:4813,6
DA:4814,3
DA:4815,3
DA:4816,3
DA:4820,3
DA:4821,3
DA:4823,3
DA:4824,3
DA:4827,6
DA:4828,0
DA:4829,0
DA:4830,3
DA:4832,3
DA:4833,3
DA:4835,3
DA:4836,3
DA:4839,1
DA:4846,0
DA:4847,0
DA:4848,0
DA:4849,0
DA:4850,0
DA:4851,0
DA:4853,0
DA:4854,0
DA:4855,0
DA:4857,0
DA:4858,0
DA:4862,0
DA:4865,0
DA:4867,0
DA:4869,0
DA:4870,0
DA:4871,0
DA:4873,0
DA:4875,0
DA:4876,0
DA:4877,0
DA:4878,0
DA:4879,0
DA:4880,0
DA:4881,0
DA:4884,0
DA:4886,0
DA:4888,0
DA:4889,0
DA:4890,0
DA:4893,0
DA:4895,0
DA:4899,0
DA:4900,0
DA:4907,0
DA:4909,0
DA:4910,0
DA:4911,0
DA:4913,0
DA:4918,21
DA:4919,21
DA:4923,1
DA:4927,21
DA:4932,7
DA:4933,13
DA:4934,13
DA:4939,0
DA:4941,0
DA:4944,0
DA:4945,0
DA:4948,0
DA:4949,0
DA:4951,0
DA:4954,1
DA:4955,4
DA:4957,3
DA:4959,3
DA:4961,1
DA:4973,0
DA:4977,0
DA:4986,60
DA:4988,2
DA:4992,2
DA:4993,0
DA:4995,2
DA:5001,0
DA:5002,0
DA:5003,0
DA:5004,0
DA:5005,0
DA:5007,0
DA:5015,0
DA:5019,0
DA:5022,0
DA:5023,0
DA:5024,0
DA:5027,0
DA:5030,0
DA:5031,0
DA:5037,0
DA:5040,0
DA:5053,0
DA:5055,0
DA:5058,0
DA:5061,0
DA:5062,0
DA:5070,0
DA:5072,0
DA:5075,0
DA:5078,0
DA:5079,0
DA:5087,0
DA:5089,0
DA:5092,0
DA:5095,0
DA:5096,0
DA:5105,0
DA:5106,0
DA:5107,0
DA:5108,0
DA:5109,0
DA:5110,0
DA:5111,0
DA:5125,0
DA:5126,0
DA:5133,0
DA:5134,0
DA:5135,0
DA:5136,0
DA:5139,0
DA:5141,0
DA:5142,0
DA:5143,0
DA:5144,0
DA:5145,0
DA:5146,0
DA:5147,0
DA:5148,0
DA:5149,0
DA:5150,0
DA:5151,0
DA:5152,0
DA:5154,0
DA:5156,0
DA:5223,0
DA:5224,0
DA:5225,0
DA:5226,0
DA:5227,0
DA:5228,0
DA:5229,0
DA:5230,0
DA:5231,0
DA:5232,0
DA:5233,0
DA:5234,0
DA:5235,0
DA:5236,0
DA:5237,0
DA:5238,0
DA:5239,0
DA:5240,0
DA:5241,0
DA:5242,0
DA:5243,0
DA:5244,0
DA:5245,0
DA:5246,0
DA:5247,0
DA:5248,0
DA:5249,0
DA:5253,0
DA:5254,0
DA:5255,0
DA:5256,0
DA:5259,0
DA:5260,0
DA:5262,0
DA:5263,0
DA:5264,0
DA:5265,0
DA:5266,0
DA:5267,0
DA:5268,0
DA:5269,0
DA:5270,0
DA:5272,0
DA:5279,1
DA:5280,1
DA:5281,0
DA:5282,0
DA:5288,0
DA:5289,0
DA:5290,0
DA:5292,0
DA:5293,0
DA:5294,0
DA:5296,0
DA:5297,0
DA:5298,0
DA:5301,0
DA:5304,0
DA:5309,0
DA:5310,0
DA:5314,0
DA:5318,0
DA:5322,1
DA:5326,0
DA:5328,1
DA:5332,1
DA:5333,1
DA:5334,1
DA:5335,0
DA:5336,0
DA:5337,0
DA:5344,1
DA:5346,1
DA:5348,1
DA:5350,1
DA:5351,2
DA:5352,1
DA:5355,1
DA:5356,1
DA:5370,1
DA:5374,1
DA:5376,1
DA:5380,0
DA:5384,0
DA:5386,0
LF:1960
LH:605
end_of_record
SF:/usr/local/include/c++/7.1.0/bits/alloc_traits.h
FN:435,_ZNSt16allocator_traitsISaIN7testing14TestPartResultEEE8allocateERS2_m
FN:435,_ZNSt16allocator_traitsISaISt13_Rb_tree_nodeISt4pairIKNSt7__cxx1112basic_stringIcSt11char_traitsIcESaIcEEEmEEEE8allocateERSB_m
FN:435,_ZNSt16allocator_traitsISaISt10_List_nodeISt4pairIcPKcEEEE8allocateERS6_m
FN:435,_ZNSt16allocator_traitsISaIdEE8allocateERS0_m
FN:435,_ZNSt16allocator_traitsISaIPN7testing8TestCaseEEE8allocateERS3_m
FN:435,_ZNSt16allocator_traitsISaISt6vectorIdSaIdEEEE8allocateERS3_m
FN:435,_ZNSt16allocator_traitsISaIPN7testing17TestEventListenerEEE8allocateERS3_m
FN:435,_ZNSt16allocator_traitsISaISt6vectorIN7testing8internal13edit_distance8EditTypeESaIS4_EEEE8allocateERS7_m
FN:435,_ZNSt16allocator_traitsISaIPN7testing11EnvironmentEEE8allocateERS3_m
FN:435,_ZNSt16allocator_traitsISaImEE8allocateERS0_m
FN:435,_ZNSt16allocator_traitsISaIPN7testing8TestInfoEEE8allocateERS3_m
FN:435,_ZNSt16allocator_traitsISaIN7testing8internal9TraceInfoEEE8allocateERS3_m
FN:435,_ZNSt16allocator_traitsISaIiEE8allocateERS0_m
FN:435,_ZNSt16allocator_traitsISaIN7testing8internal13edit_distance8EditTypeEEE8allocateERS4_m
FN:435,_ZNSt16allocator_traitsISaINSt7__cxx1112basic_stringIcSt11char_traitsIcESaIcEEEEE8allocateERS6_m
FN:435,_ZNSt16allocator_traitsISaISt13_Rb_tree_nodeINSt7__cxx1112basic_stringIcSt11char_traitsIcESaIcEEEEEE8allocateERS8_m
FN:435,_ZNSt16allocator_traitsISaIN7testing12TestPropertyEEE8allocateERS2_m
FN:435,_ZNSt16allocator_traitsISaIPcEE8allocateERS1_m
FN:461,_ZNSt16allocator_traitsISaINSt7__cxx1112basic_stringIcSt11char_traitsIcESaIcEEEEE10deallocateERS6_PS5_m
FN:461,_ZNSt16allocator_traitsISaISt6vectorIN7testing8internal13edit_distance8EditTypeESaIS4_EEEE10deallocateERS7_PS6_m
FN:461,_ZNSt16allocator_traitsISaIPN7testing11EnvironmentEEE10deallocateERS3_PS2_m
FN:461,_ZNSt16allocator_traitsISaISt10_List_nodeISt4pairIcPKcEEEE10deallocateERS6_PS5_m
FN:461,_ZNSt16allocator_traitsISaIPcEE10deallocateERS1_PS0_m
FN:461,_ZNSt16allocator_traitsISaIiEE10deallocateERS0_Pim
FN:461,_ZNSt16allocator_traitsISaIN7testing14TestPartResultEEE10deallocateERS2_PS1_m
FN:461,_ZNSt16allocator_traitsISaIPN7testing8internal29ParameterizedTestCaseInfoBaseEEE10deallocateERS4_PS3_m
FN:461,_ZNSt16allocator_traitsISaImEE10deallocateERS0_Pmm
FN:461,_ZNSt16allocator_traitsISaIN7testing8internal13edit_distance8EditTypeEEE10deallocateERS4_PS3_m
FN:461,_ZNSt16allocator_traitsISaIdEE10deallocateERS0_Pdm
FN:461,_ZNSt16allocator_traitsISaIPN7testing8TestCaseEEE10deallocateERS3_PS2_m
FN:461,_ZNSt16allocator_traitsISaIN7testing12TestPropertyEEE10deallocateERS2_PS1_m
FN:461,_ZNSt16allocator_traitsISaISt13_Rb_tree_nodeINSt7__cxx1112basic_stringIcSt11char_traitsIcESaIcEEEEEE10deallocateERS8_PS7_m
FN:461,_ZNSt16allocator_traitsISaIN7testing8internal9TraceInfoEEE10deallocateERS3_PS2_m
FN:461,_ZNSt16allocator_traitsISaIPN7testing17TestEventListenerEEE10deallocateERS3_PS2_m
FN:461,_ZNSt16allocator_traitsISaISt6vectorIdSaIdEEEE10deallocateERS3_PS2_m
FN:461,_ZNSt16allocator_traitsISaIPN7testing8TestInfoEEE10deallocateERS3_PS2_m
FN:461,_ZNSt16allocator_traitsISaISt13_Rb_tree_nodeISt4pairIKNSt7__cxx1112basic_stringIcSt11char_traitsIcESaIcEEEmEEEE10deallocateERSB_PSA_m
FN:474,_ZNSt16allocator_traitsISaIPN7testing17TestEventListenerEEE9constructIS2_JRKS2_EEEvRS3_PT_DpOT0_
FN:474,_ZNSt16allocator_traitsISaIiEE9constructIiJiEEEvRS0_PT_DpOT0_
FN:474,_ZNSt16allocator_traitsISaISt10_List_nodeISt4pairIcPKcEEEE9constructIS4_JS4_EEEvRS6_PT_DpOT0_
FN:474,_ZNSt16allocator_traitsISaIPcEE9constructIS0_JS0_EEEvRS1_PT_DpOT0_
FN:474,_ZNSt16allocator_traitsISaIPN7testing8TestCaseEEE9constructIS2_JS2_EEEvRS3_PT_DpOT0_
FN:474,_ZNSt16allocator_traitsISaImEE9constructImJmEEEvRS0_PT_DpOT0_
FN:474,_ZNSt16allocator_traitsISaIPN7testing11EnvironmentEEE9constructIS2_JRKS2_EEEvRS3_PT_DpOT0_
FN:474,_ZNSt16allocator_traitsISaIN7testing8internal9TraceInfoEEE9constructIS2_JRKS2_EEEvRS3_PT_DpOT0_
FN:474,_ZNSt16allocator_traitsISaIN7testing12TestPropertyEEE9constructIS1_JRKS1_EEEvRS2_PT_DpOT0_
FN:474,_ZNSt16allocator_traitsISaISt13_Rb_tree_nodeISt4pairIKNSt7__cxx1112basic_stringIcSt11char_traitsIcESaIcEEEmEEEE9constructIS9_JRKSt21piecewise_construct_tSt5tupleIJRS8_EESH_IJEEEEEvRSB_PT_DpOT0_
FN:474,_ZNSt16allocator_traitsISaIPN7testing8TestInfoEEE9constructIS2_JRKS2_EEEvRS3_PT_DpOT0_
FN:474,_ZNSt16allocator_traitsISaIN7testing8internal13edit_distance8EditTypeEEE9constructIS3_JRKS3_EEEvRS4_PT_DpOT0_
FN:474,_ZNSt16allocator_traitsISaIN7testing14TestPartResultEEE9constructIS1_JRKS1_EEEvRS2_PT_DpOT0_
FN:474,_ZNSt16allocator_traitsISaIPN7testing8TestCaseEEE9constructIS2_JRKS2_EEEvRS3_PT_DpOT0_
FN:474,_ZNSt16allocator_traitsISaINSt7__cxx1112basic_stringIcSt11char_traitsIcESaIcEEEEE9constructIS5_JS5_EEEvRS6_PT_DpOT0_
FN:474,_ZNSt16allocator_traitsISaISt13_Rb_tree_nodeINSt7__cxx1112basic_stringIcSt11char_traitsIcESaIcEEEEEE9constructIS6_JRKS6_EEEvRS8_PT_DpOT0_
FN:486,_ZNSt16allocator_traitsISaImEE7destroyImEEvRS0_PT_
FN:486,_ZNSt16allocator_traitsISaIN7testing8internal13edit_distance8EditTypeEEE7destroyIS3_EEvRS4_PT_
FN:486,_ZNSt16allocator_traitsISaIPN7testing17TestEventListenerEEE7destroyIS2_EEvRS3_PT_
FN:486,_ZNSt16allocator_traitsISaISt13_Rb_tree_nodeISt4pairIKNSt7__cxx1112basic_stringIcSt11char_traitsIcESaIcEEEmEEEE7destroyIS9_EEvRSB_PT_
FN:486,_ZNSt16allocator_traitsISaIPcEE7destroyIS0_EEvRS1_PT_
FN:486,_ZNSt16allocator_traitsISaIPN7testing8TestCaseEEE7destroyIS2_EEvRS3_PT_
FN:486,_ZNSt16allocator_traitsISaIN7testing14TestPartResultEEE7destroyIS1_EEvRS2_PT_
FN:486,_ZNSt16allocator_traitsISaISt10_List_nodeISt4pairIcPKcEEEE7destroyIS4_EEvRS6_PT_
FN:486,_ZNSt16allocator_traitsISaIPN7testing11EnvironmentEEE7destroyIS2_EEvRS3_PT_
FN:486,_ZNSt16allocator_traitsISaINSt7__cxx1112basic_stringIcSt11char_traitsIcESaIcEEEEE7destroyIS5_EEvRS6_PT_
FN:486,_ZNSt16allocator_traitsISaIPN7testing8TestInfoEEE7destroyIS2_EEvRS3_PT_
FN:486,_ZNSt16allocator_traitsISaIN7testing8internal9TraceInfoEEE7destroyIS2_EEvRS3_PT_
FN:486,_ZNSt16allocator_traitsISaIN7testing12TestPropertyEEE7destroyIS1_EEvRS2_PT_
FN:486,_ZNSt16allocator_traitsISaIiEE7destroyIiEEvRS0_PT_
FN:486,_ZNSt16allocator_traitsISaISt13_Rb_tree_nodeINSt7__cxx1112basic_stringIcSt11char_traitsIcESaIcEEEEEE7destroyIS6_EEvRS8_PT_
FN:495,_ZNSt16allocator_traitsISaIiEE8max_sizeERKS0_
FN:495,_ZNSt16allocator_traitsISaIPN7testing8TestCaseEEE8max_sizeERKS3_
FN:495,_ZNSt16allocator_traitsISaIPN7testing8TestInfoEEE8max_sizeERKS3_
FN:495,_ZNSt16allocator_traitsISaIPN7testing17TestEventListenerEEE8max_sizeERKS3_
FN:495,_ZNSt16allocator_traitsISaIPcEE8max_sizeERKS1_
FN:495,_ZNSt16allocator_traitsISaIN7testing12TestPropertyEEE8max_sizeERKS2_
FN:495,_ZNSt16allocator_traitsISaIN7testing14TestPartResultEEE8max_sizeERKS2_
FN:495,_ZNSt16allocator_traitsISaIN7testing8internal9TraceInfoEEE8max_sizeERKS3_
FN:495,_ZNSt16allocator_traitsISaIN7testing8internal13edit_distance8EditTypeEEE8max_sizeERKS4_
FN:495,_ZNSt16allocator_traitsISaINSt7__cxx1112basic_stringIcSt11char_traitsIcESaIcEEEEE8max_sizeERKS6_
FN:495,_ZNSt16allocator_traitsISaImEE8max_sizeERKS0_
FN:495,_ZNSt16allocator_traitsISaIPN7testing11EnvironmentEEE8max_sizeERKS3_
FN:504,_ZNSt16allocator_traitsISaIdEE37select_on_container_copy_constructionERKS0_
FN:504,_ZNSt16allocator_traitsISaIN7testing8internal13edit_distance8EditTypeEEE37select_on_container_copy_constructionERKS4_
FN:504,_ZNSt16allocator_traitsISaINSt7__cxx1112basic_stringIcSt11char_traitsIcESaIcEEEEE37select_on_container_copy_constructionERKS6_
FN:558,_ZSt18__do_alloc_on_swapISaINSt7__cxx1112basic_stringIcSt11char_traitsIcESaIcEEEEEvRT_S8_St17integral_constantIbLb0EE
FN:562,_ZSt15__alloc_on_swapISaINSt7__cxx1112basic_stringIcSt11char_traitsIcESaIcEEEEEvRT_S8_
FNDA:0,_ZNSt16allocator_traitsISaISt13_Rb_tree_nodeINSt7__cxx1112basic_stringIcSt11char_traitsIcESaIcEEEEEE8allocateERS8_m
FNDA:0,_ZNSt16allocator_traitsISaIPcEE8allocateERS1_m
FNDA:6,_ZNSt16allocator_traitsISaIiEE8allocateERS0_m
FNDA:0,_ZNSt16allocator_traitsISaISt10_List_nodeISt4pairIcPKcEEEE8allocateERS6_m
FNDA:0,_ZNSt16allocator_traitsISaImEE8allocateERS0_m
FNDA:0,_ZNSt16allocator_traitsISaISt13_Rb_tree_nodeISt4pairIKNSt7__cxx1112basic_stringIcSt11char_traitsIcESaIcEEEmEEEE8allocateERSB_m
FNDA:0,_ZNSt16allocator_traitsISaISt6vectorIN7testing8internal13edit_distance8EditTypeESaIS4_EEEE8allocateERS7_m
FNDA:0,_ZNSt16allocator_traitsISaISt6vectorIdSaIdEEEE8allocateERS3_m
FNDA:0,_ZNSt16allocator_traitsISaIdEE8allocateERS0_m
FNDA:1,_ZNSt16allocator_traitsISaINSt7__cxx1112basic_stringIcSt11char_traitsIcESaIcEEEEE8allocateERS6_m
FNDA:3,_ZNSt16allocator_traitsISaIPN7testing8TestCaseEEE8allocateERS3_m
FNDA:0,_ZNSt16allocator_traitsISaIN7testing8internal9TraceInfoEEE8allocateERS3_m
FNDA:0,_ZNSt16allocator_traitsISaIPN7testing11EnvironmentEEE8allocateERS3_m
FNDA:1,_ZNSt16allocator_traitsISaIPN7testing17TestEventListenerEEE8allocateERS3_m
FNDA:3,_ZNSt16allocator_traitsISaIPN7testing8TestInfoEEE8allocateERS3_m
FNDA:0,_ZNSt16allocator_traitsISaIN7testing12TestPropertyEEE8allocateERS2_m
FNDA:0,_ZNSt16allocator_traitsISaIN7testing14TestPartResultEEE8allocateERS2_m
FNDA:0,_ZNSt16allocator_traitsISaIN7testing8internal13edit_distance8EditTypeEEE8allocateERS4_m
FNDA:0,_ZNSt16allocator_traitsISaISt13_Rb_tree_nodeINSt7__cxx1112basic_stringIcSt11char_traitsIcESaIcEEEEEE10deallocateERS8_PS7_m
FNDA:0,_ZNSt16allocator_traitsISaISt13_Rb_tree_nodeISt4pairIKNSt7__cxx1112basic_stringIcSt11char_traitsIcESaIcEEEmEEEE10deallocateERSB_PSA_m
FNDA:0,_ZNSt16allocator_traitsISaIPcEE10deallocateERS1_PS0_m
FNDA:3,_ZNSt16allocator_traitsISaIPN7testing8TestCaseEEE10deallocateERS3_PS2_m
FNDA:0,_ZNSt16allocator_traitsISaIN7testing8internal9TraceInfoEEE10deallocateERS3_PS2_m
FNDA:0,_ZNSt16allocator_traitsISaIPN7testing11EnvironmentEEE10deallocateERS3_PS2_m
FNDA:1,_ZNSt16allocator_traitsISaIPN7testing17TestEventListenerEEE10deallocateERS3_PS2_m
FNDA:6,_ZNSt16allocator_traitsISaIiEE10deallocateERS0_Pim
FNDA:3,_ZNSt16allocator_traitsISaIPN7testing8TestInfoEEE10deallocateERS3_PS2_m
FNDA:0,_ZNSt16allocator_traitsISaIN7testing12TestPropertyEEE10deallocateERS2_PS1_m
FNDA:0,_ZNSt16allocator_traitsISaISt10_List_nodeISt4pairIcPKcEEEE10deallocateERS6_PS5_m
FNDA:0,_ZNSt16allocator_traitsISaImEE10deallocateERS0_Pmm
FNDA:0,_ZNSt16allocator_traitsISaISt6vectorIN7testing8internal13edit_distance8EditTypeESaIS4_EEEE10deallocateERS7_PS6_m
FNDA:0,_ZNSt16allocator_traitsISaIN7testing8internal13edit_distance8EditTypeEEE10deallocateERS4_PS3_m
FNDA:0,_ZNSt16allocator_traitsISaISt6vectorIdSaIdEEEE10deallocateERS3_PS2_m
FNDA:0,_ZNSt16allocator_traitsISaIdEE10deallocateERS0_Pdm
FNDA:1,_ZNSt16allocator_traitsISaINSt7__cxx1112basic_stringIcSt11char_traitsIcESaIcEEEEE10deallocateERS6_PS5_m
FNDA:0,_ZNSt16allocator_traitsISaIN7testing14TestPartResultEEE10deallocateERS2_PS1_m
FNDA:0,_ZNSt16allocator_traitsISaIPN7testing8internal29ParameterizedTestCaseInfoBaseEEE10deallocateERS4_PS3_m
FNDA:0,_ZNSt16allocator_traitsISaISt13_Rb_tree_nodeINSt7__cxx1112basic_stringIcSt11char_traitsIcESaIcEEEEEE9constructIS6_JRKS6_EEEvRS8_PT_DpOT0_
FNDA:0,_ZNSt16allocator_traitsISaISt13_Rb_tree_nodeISt4pairIKNSt7__cxx1112basic_stringIcSt11char_traitsIcESaIcEEEmEEEE9constructIS9_JRKSt21piecewise_construct_tSt5tupleIJRS8_EESH_IJEEEEEvRSB_PT_DpOT0_
FNDA:0,_ZNSt16allocator_traitsISaISt10_List_nodeISt4pairIcPKcEEEE9constructIS4_JS4_EEEvRS6_PT_DpOT0_
FNDA:0,_ZNSt16allocator_traitsISaIPcEE9constructIS0_JS0_EEEvRS1_PT_DpOT0_
FNDA:0,_ZNSt16allocator_traitsISaIPN7testing8TestCaseEEE9constructIS2_JS2_EEEvRS3_PT_DpOT0_
FNDA:6,_ZNSt16allocator_traitsISaIiEE9constructIiJiEEEvRS0_PT_DpOT0_
FNDA:0,_ZNSt16allocator_traitsISaImEE9constructImJmEEEvRS0_PT_DpOT0_
FNDA:1,_ZNSt16allocator_traitsISaINSt7__cxx1112basic_stringIcSt11char_traitsIcESaIcEEEEE9constructIS5_JS5_EEEvRS6_PT_DpOT0_
FNDA:3,_ZNSt16allocator_traitsISaIPN7testing8TestCaseEEE9constructIS2_JRKS2_EEEvRS3_PT_DpOT0_
FNDA:0,_ZNSt16allocator_traitsISaIN7testing8internal9TraceInfoEEE9constructIS2_JRKS2_EEEvRS3_PT_DpOT0_
FNDA:0,_ZNSt16allocator_traitsISaIPN7testing11EnvironmentEEE9constructIS2_JRKS2_EEEvRS3_PT_DpOT0_
FNDA:1,_ZNSt16allocator_traitsISaIPN7testing17TestEventListenerEEE9constructIS2_JRKS2_EEEvRS3_PT_DpOT0_
FNDA:3,_ZNSt16allocator_traitsISaIPN7testing8TestInfoEEE9constructIS2_JRKS2_EEEvRS3_PT_DpOT0_
FNDA:0,_ZNSt16allocator_traitsISaIN7testing12TestPropertyEEE9constructIS1_JRKS1_EEEvRS2_PT_DpOT0_
FNDA:0,_ZNSt16allocator_traitsISaIN7testing14TestPartResultEEE9constructIS1_JRKS1_EEEvRS2_PT_DpOT0_
FNDA:0,_ZNSt16allocator_traitsISaIN7testing8internal13edit_distance8EditTypeEEE9constructIS3_JRKS3_EEEvRS4_PT_DpOT0_
FNDA:0,_ZNSt16allocator_traitsISaISt13_Rb_tree_nodeINSt7__cxx1112basic_stringIcSt11char_traitsIcESaIcEEEEEE7destroyIS6_EEvRS8_PT_
FNDA:0,_ZNSt16allocator_traitsISaISt13_Rb_tree_nodeISt4pairIKNSt7__cxx1112basic_stringIcSt11char_traitsIcESaIcEEEmEEEE7destroyIS9_EEvRSB_PT_
FNDA:0,_ZNSt16allocator_traitsISaIPcEE7destroyIS0_EEvRS1_PT_
FNDA:0,_ZNSt16allocator_traitsISaIiEE7destroyIiEEvRS0_PT_
FNDA:0,_ZNSt16allocator_traitsISaImEE7destroyImEEvRS0_PT_
FNDA:0,_ZNSt16allocator_traitsISaINSt7__cxx1112basic_stringIcSt11char_traitsIcESaIcEEEEE7destroyIS5_EEvRS6_PT_
FNDA:0,_ZNSt16allocator_traitsISaIPN7testing8TestCaseEEE7destroyIS2_EEvRS3_PT_
FNDA:0,_ZNSt16allocator_traitsISaIPN7testing11EnvironmentEEE7destroyIS2_EEvRS3_PT_
FNDA:0,_ZNSt16allocator_traitsISaIPN7testing17TestEventListenerEEE7destroyIS2_EEvRS3_PT_
FNDA:0,_ZNSt16allocator_traitsISaIPN7testing8TestInfoEEE7destroyIS2_EEvRS3_PT_
FNDA:0,_ZNSt16allocator_traitsISaIN7testing12TestPropertyEEE7destroyIS1_EEvRS2_PT_
FNDA:0,_ZNSt16allocator_traitsISaIN7testing14TestPartResultEEE7destroyIS1_EEvRS2_PT_
FNDA:0,_ZNSt16allocator_traitsISaISt10_List_nodeISt4pairIcPKcEEEE7destroyIS4_EEvRS6_PT_
FNDA:0,_ZNSt16allocator_traitsISaIN7testing8internal13edit_distance8EditTypeEEE7destroyIS3_EEvRS4_PT_
FNDA:0,_ZNSt16allocator_traitsISaIN7testing8internal9TraceInfoEEE7destroyIS2_EEvRS3_PT_
FNDA:0,_ZNSt16allocator_traitsISaIPcEE8max_sizeERKS1_
FNDA:12,_ZNSt16allocator_traitsISaIiEE8max_sizeERKS0_
FNDA:0,_ZNSt16allocator_traitsISaImEE8max_sizeERKS0_
FNDA:2,_ZNSt16allocator_traitsISaINSt7__cxx1112basic_stringIcSt11char_traitsIcESaIcEEEEE8max_sizeERKS6_
FNDA:6,_ZNSt16allocator_traitsISaIPN7testing8TestCaseEEE8max_sizeERKS3_
FNDA:0,_ZNSt16allocator_traitsISaIN7testing8internal9TraceInfoEEE8max_sizeERKS3_
FNDA:0,_ZNSt16allocator_traitsISaIPN7testing11EnvironmentEEE8max_sizeERKS3_
FNDA:2,_ZNSt16allocator_traitsISaIPN7testing17TestEventListenerEEE8max_sizeERKS3_
FNDA:6,_ZNSt16allocator_traitsISaIPN7testing8TestInfoEEE8max_sizeERKS3_
FNDA:0,_ZNSt16allocator_traitsISaIN7testing12TestPropertyEEE8max_sizeERKS2_
FNDA:0,_ZNSt16allocator_traitsISaIN7testing14TestPartResultEEE8max_sizeERKS2_
FNDA:0,_ZNSt16allocator_traitsISaIN7testing8internal13edit_distance8EditTypeEEE8max_sizeERKS4_
FNDA:0,_ZNSt16allocator_traitsISaIN7testing8internal13edit_distance8EditTypeEEE37select_on_container_copy_constructionERKS4_
FNDA:0,_ZNSt16allocator_traitsISaIdEE37select_on_container_copy_constructionERKS0_
FNDA:0,_ZNSt16allocator_traitsISaINSt7__cxx1112basic_stringIcSt11char_traitsIcESaIcEEEEE37select_on_container_copy_constructionERKS6_
FNDA:0,_ZSt18__do_alloc_on_swapISaINSt7__cxx1112basic_stringIcSt11char_traitsIcESaIcEEEEEvRT_S8_St17integral_constantIbLb0EE
FNDA:0,_ZSt15__alloc_on_swapISaINSt7__cxx1112basic_stringIcSt11char_traitsIcESaIcEEEEEvRT_S8_
FNF:85
FNH:20
DA:435,14
DA:436,14
DA:461,14
DA:462,14
DA:474,14
DA:475,14
DA:486,0
DA:487,0
DA:495,28
DA:496,28
DA:504,0
DA:505,0
DA:558,0
DA:559,0
DA:562,0
DA:566,0
DA:567,0
LF:17
LH:8
end_of_record
SF:/usr/local/include/c++/7.1.0/bits/allocated_ptr.h
FN:52,_ZNSt15__allocated_ptrISaISt10_List_nodeISt4pairIcPKcEEEEC2ERS6_PS5_
FN:70,_ZNSt15__allocated_ptrISaISt10_List_nodeISt4pairIcPKcEEEED2Ev
FN:78,_ZNSt15__allocated_ptrISaISt10_List_nodeISt4pairIcPKcEEEEaSEDn
FNDA:0,_ZNSt15__allocated_ptrISaISt10_List_nodeISt4pairIcPKcEEEEC2ERS6_PS5_
FNDA:0,_ZNSt15__allocated_ptrISaISt10_List_nodeISt4pairIcPKcEEEED2Ev
FNDA:0,_ZNSt15__allocated_ptrISaISt10_List_nodeISt4pairIcPKcEEEEaSEDn
FNF:3
FNH:0
DA:52,0
DA:53,0
DA:54,0
DA:70,0
DA:72,0
DA:73,0
DA:74,0
DA:78,0
DA:80,0
DA:81,0
LF:10
LH:0
end_of_record
SF:/usr/local/include/c++/7.1.0/bits/allocator.h
FN:131,_ZNSaIN7testing8internal9TraceInfoEEC2Ev
FN:131,_ZNSaIdEC2Ev
FN:131,_ZNSaINSt7__cxx1112basic_stringIcSt11char_traitsIcESaIcEEEEC2Ev
FN:131,_ZNSaIPN7testing8TestInfoEEC2Ev
FN:131,_ZNSaIiEC2Ev
FN:131,_ZNSaISt13_Rb_tree_nodeINSt7__cxx1112basic_stringIcSt11char_traitsIcESaIcEEEEEC2Ev
FN:131,_ZNSaIN7testing12TestPropertyEEC2Ev
FN:131,_ZNSaIPN7testing8TestCaseEEC2Ev
FN:131,_ZNSaImEC2Ev
FN:131,_ZNSaISt6vectorIN7testing8internal13edit_distance8EditTypeESaIS3_EEEC2Ev
FN:131,_ZNSaIPN7testing17TestEventListenerEEC2Ev
FN:131,_ZNSaIPN7testing8internal29ParameterizedTestCaseInfoBaseEEC2Ev
FN:131,_ZNSaISt6vectorIdSaIdEEEC2Ev
FN:131,_ZNSaISt10_List_nodeISt4pairIcPKcEEEC2Ev
FN:131,_ZNSaIPcEC2Ev
FN:131,_ZNSaIN7testing14TestPartResultEEC2Ev
FN:131,_ZNSaISt13_Rb_tree_nodeISt4pairIKNSt7__cxx1112basic_stringIcSt11char_traitsIcESaIcEEEmEEEC2Ev
FN:131,_ZNSaIPN7testing11EnvironmentEEC2Ev
FN:131,_ZNSaIN7testing8internal13edit_distance8EditTypeEEC2Ev
FN:133,_ZNSaINSt7__cxx1112basic_stringIcSt11char_traitsIcESaIcEEEEC2ERKS5_
FN:133,_ZNSaIdEC2ERKS_
FN:133,_ZNSaIN7testing8internal13edit_distance8EditTypeEEC2ERKS3_
FN:133,_ZNSaISt6vectorIdSaIdEEEC2ERKS2_
FN:133,_ZNSaISt6vectorIN7testing8internal13edit_distance8EditTypeESaIS3_EEEC2ERKS6_
FN:139,_ZNSaIN7testing8internal9TraceInfoEED2Ev
FN:139,_ZNSaISt13_Rb_tree_nodeISt4pairIKNSt7__cxx1112basic_stringIcSt11char_traitsIcESaIcEEEmEEED2Ev
FN:139,_ZNSaIN7testing8internal13edit_distance8EditTypeEED2Ev
FN:139,_ZNSaIN7testing12TestPropertyEED2Ev
FN:139,_ZNSaISt6vectorIN7testing8internal13edit_distance8EditTypeESaIS3_EEED2Ev
FN:139,_ZNSaISt6vectorIdSaIdEEED2Ev
FN:139,_ZNSaIPN7testing17TestEventListenerEED2Ev
FN:139,_ZNSaIiED2Ev
FN:139,_ZNSaISt13_Rb_tree_nodeINSt7__cxx1112basic_stringIcSt11char_traitsIcESaIcEEEEED2Ev
FN:139,_ZNSaIPcED2Ev
FN:139,_ZNSaImED2Ev
FN:139,_ZNSaIPN7testing8TestCaseEED2Ev
FN:139,_ZNSaIN7testing14TestPartResultEED2Ev
FN:139,_ZNSaIPN7testing11EnvironmentEED2Ev
FN:139,_ZNSaIdED2Ev
FN:139,_ZNSaINSt7__cxx1112basic_stringIcSt11char_traitsIcESaIcEEEED2Ev
FN:139,_ZNSaISt10_List_nodeISt4pairIcPKcEEED2Ev
FN:139,_ZNSaIPN7testing8TestInfoEED2Ev
FN:139,_ZNSaIPN7testing8internal29ParameterizedTestCaseInfoBaseEED2Ev
FN:202,_ZNSt11__alloc_neqISaISt10_List_nodeISt4pairIcPKcEEELb1EE8_S_do_itERKS6_S9_
FNDA:0,_ZNSaIN7testing8internal9TraceInfoEEC2Ev
FNDA:0,_ZNSaIPcEC2Ev
FNDA:1,_ZNSaIPN7testing8TestCaseEEC2Ev
FNDA:1,_ZNSaIPN7testing11EnvironmentEEC2Ev
FNDA:1,_ZNSaIPN7testing17TestEventListenerEEC2Ev
FNDA:4,_ZNSaIiEC2Ev
FNDA:3,_ZNSaIPN7testing8TestInfoEEC2Ev
FNDA:7,_ZNSaIN7testing12TestPropertyEEC2Ev
FNDA:0,_ZNSaISt10_List_nodeISt4pairIcPKcEEEC2Ev
FNDA:0,_ZNSaImEC2Ev
FNDA:7,_ZNSaIN7testing14TestPartResultEEC2Ev
FNDA:1,_ZNSaIPN7testing8internal29ParameterizedTestCaseInfoBaseEEC2Ev
FNDA:1,_ZNSaINSt7__cxx1112basic_stringIcSt11char_traitsIcESaIcEEEEC2Ev
FNDA:0,_ZNSaISt13_Rb_tree_nodeINSt7__cxx1112basic_stringIcSt11char_traitsIcESaIcEEEEEC2Ev
FNDA:0,_ZNSaISt13_Rb_tree_nodeISt4pairIKNSt7__cxx1112basic_stringIcSt11char_traitsIcESaIcEEEmEEEC2Ev
FNDA:0,_ZNSaISt6vectorIN7testing8internal13edit_distance8EditTypeESaIS3_EEEC2Ev
FNDA:0,_ZNSaIN7testing8internal13edit_distance8EditTypeEEC2Ev
FNDA:0,_ZNSaISt6vectorIdSaIdEEEC2Ev
FNDA:0,_ZNSaIdEC2Ev
FNDA:0,_ZNSaISt6vectorIN7testing8internal13edit_distance8EditTypeESaIS3_EEEC2ERKS6_
FNDA:0,_ZNSaIN7testing8internal13edit_distance8EditTypeEEC2ERKS3_
FNDA:0,_ZNSaISt6vectorIdSaIdEEEC2ERKS2_
FNDA:0,_ZNSaIdEC2ERKS_
FNDA:0,_ZNSaINSt7__cxx1112basic_stringIcSt11char_traitsIcESaIcEEEEC2ERKS5_
FNDA:0,_ZNSaIN7testing8internal9TraceInfoEED2Ev
FNDA:0,_ZNSaIPcED2Ev
FNDA:1,_ZNSaIPN7testing8TestCaseEED2Ev
FNDA:1,_ZNSaIPN7testing11EnvironmentEED2Ev
FNDA:1,_ZNSaIPN7testing17TestEventListenerEED2Ev
FNDA:4,_ZNSaIiED2Ev
FNDA:3,_ZNSaIPN7testing8TestInfoEED2Ev
FNDA:7,_ZNSaIN7testing12TestPropertyEED2Ev
FNDA:0,_ZNSaImED2Ev
FNDA:7,_ZNSaIN7testing14TestPartResultEED2Ev
FNDA:1,_ZNSaIPN7testing8internal29ParameterizedTestCaseInfoBaseEED2Ev
FNDA:1,_ZNSaINSt7__cxx1112basic_stringIcSt11char_traitsIcESaIcEEEED2Ev
FNDA:0,_ZNSaISt10_List_nodeISt4pairIcPKcEEED2Ev
FNDA:0,_ZNSaISt13_Rb_tree_nodeINSt7__cxx1112basic_stringIcSt11char_traitsIcESaIcEEEEED2Ev
FNDA:0,_ZNSaISt13_Rb_tree_nodeISt4pairIKNSt7__cxx1112basic_stringIcSt11char_traitsIcESaIcEEEmEEED2Ev
FNDA:0,_ZNSaISt6vectorIN7testing8internal13edit_distance8EditTypeESaIS3_EEED2Ev
FNDA:0,_ZNSaIN7testing8internal13edit_distance8EditTypeEED2Ev
FNDA:0,_ZNSaISt6vectorIdSaIdEEED2Ev
FNDA:0,_ZNSaIdED2Ev
FNDA:0,_ZNSt11__alloc_neqISaISt10_List_nodeISt4pairIcPKcEEELb1EE8_S_do_itERKS6_S9_
FNF:44
FNH:18
DA:131,26
DA:133,0
DA:134,0
DA:139,26
DA:202,0
DA:203,0
LF:6
LH:2
end_of_record
SF:/usr/local/include/c++/7.1.0/bits/basic_string.h
FN:123,_ZNSt7__cxx1112basic_stringIcSt11char_traitsIcESaIcEE12_Alloc_hiderD2Ev
FN:216,_ZNSt7__cxx1112basic_stringIcSt11char_traitsIcESaIcEE16_M_construct_auxIPKcEEvT_S8_St12__false_type
FN:236,_ZNSt7__cxx1112basic_stringIcSt11char_traitsIcESaIcEE12_M_constructIPKcEEvT_S8_
FN:588,_ZNSt7__cxx1112basic_stringIcSt11char_traitsIcESaIcEEC2IPKcvEET_S8_RKS3_
FN:5723,_ZStplIcSt11char_traitsIcESaIcEENSt7__cxx1112basic_stringIT_T0_T1_EERKS8_PKS5_
FN:5739,_ZStplIcSt11char_traitsIcESaIcEENSt7__cxx1112basic_stringIT_T0_T1_EERKS8_S5_
FN:5751,_ZStplIcSt11char_traitsIcESaIcEENSt7__cxx1112basic_stringIT_T0_T1_EEOS8_RKS8_
FN:5763,_ZStplIcSt11char_traitsIcESaIcEENSt7__cxx1112basic_stringIT_T0_T1_EEOS8_S9_
FN:5775,_ZStplIcSt11char_traitsIcESaIcEENSt7__cxx1112basic_stringIT_T0_T1_EEPKS5_OS8_
FN:5787,_ZStplIcSt11char_traitsIcESaIcEENSt7__cxx1112basic_stringIT_T0_T1_EEOS8_PKS5_
FN:5815,_ZSteqIcEN9__gnu_cxx11__enable_ifIXsrSt9__is_charIT_E7__valueEbE6__typeERKNSt7__cxx1112basic_stringIS3_St11char_traitsIS3_ESaIS3_EEESE_
FN:5829,_ZSteqIcSt11char_traitsIcESaIcEEbPKT_RKNSt7__cxx1112basic_stringIS3_T0_T1_EE
FN:5841,_ZSteqIcSt11char_traitsIcESaIcEEbRKNSt7__cxx1112basic_stringIT_T0_T1_EEPKS5_
FN:5879,_ZStneIcSt11char_traitsIcESaIcEEbRKNSt7__cxx1112basic_stringIT_T0_T1_EEPKS5_
FN:5892,_ZStltIcSt11char_traitsIcESaIcEEbRKNSt7__cxx1112basic_stringIT_T0_T1_EESA_
FNDA:0,_ZNSt7__cxx1112basic_stringIcSt11char_traitsIcESaIcEE12_Alloc_hiderD2Ev
FNDA:0,_ZNSt7__cxx1112basic_stringIcSt11char_traitsIcESaIcEE16_M_construct_auxIPKcEEvT_S8_St12__false_type
FNDA:0,_ZNSt7__cxx1112basic_stringIcSt11char_traitsIcESaIcEE12_M_constructIPKcEEvT_S8_
FNDA:0,_ZNSt7__cxx1112basic_stringIcSt11char_traitsIcESaIcEEC2IPKcvEET_S8_RKS3_
FNDA:3,_ZStplIcSt11char_traitsIcESaIcEENSt7__cxx1112basic_stringIT_T0_T1_EERKS8_PKS5_
FNDA:0,_ZStplIcSt11char_traitsIcESaIcEENSt7__cxx1112basic_stringIT_T0_T1_EERKS8_S5_
FNDA:0,_ZStplIcSt11char_traitsIcESaIcEENSt7__cxx1112basic_stringIT_T0_T1_EEOS8_RKS8_
FNDA:0,_ZStplIcSt11char_traitsIcESaIcEENSt7__cxx1112basic_stringIT_T0_T1_EEOS8_S9_
FNDA:0,_ZStplIcSt11char_traitsIcESaIcEENSt7__cxx1112basic_stringIT_T0_T1_EEPKS5_OS8_
FNDA:25,_ZStplIcSt11char_traitsIcESaIcEENSt7__cxx1112basic_stringIT_T0_T1_EEOS8_PKS5_
FNDA:0,_ZSteqIcEN9__gnu_cxx11__enable_ifIXsrSt9__is_charIT_E7__valueEbE6__typeERKNSt7__cxx1112basic_stringIS3_St11char_traitsIS3_ESaIS3_EEESE_
FNDA:0,_ZSteqIcSt11char_traitsIcESaIcEEbPKT_RKNSt7__cxx1112basic_stringIS3_T0_T1_EE
FNDA:3,_ZSteqIcSt11char_traitsIcESaIcEEbRKNSt7__cxx1112basic_stringIT_T0_T1_EEPKS5_
FNDA:1,_ZStneIcSt11char_traitsIcESaIcEEbRKNSt7__cxx1112basic_stringIT_T0_T1_EEPKS5_
FNDA:0,_ZStltIcSt11char_traitsIcESaIcEEbRKNSt7__cxx1112basic_stringIT_T0_T1_EESA_
FNF:15
FNH:4
DA:123,0
DA:216,0
DA:220,0
DA:221,0
DA:236,0
DA:239,0
DA:240,0
DA:588,0
DA:590,0
DA:591,0
DA:5723,3
DA:5726,3
DA:5727,3
DA:5728,3
DA:5739,0
DA:5743,0
DA:5744,0
DA:5745,0
DA:5751,0
DA:5753,0
DA:5763,0
DA:5766,0
DA:5767,0
DA:5768,0
DA:5769,0
DA:5770,0
DA:5775,0
DA:5777,0
DA:5787,25
DA:5789,25
DA:5815,0
DA:5817,0
DA:5818,0
DA:5819,0
DA:5829,0
DA:5831,0
DA:5841,3
DA:5843,3
DA:5879,1
DA:5881,1
DA:5892,0
DA:5895,0
LF:42
LH:10
end_of_record
SF:/usr/local/include/c++/7.1.0/bits/basic_string.tcc
FN:206,_ZNSt7__cxx1112basic_stringIcSt11char_traitsIcESaIcEE12_M_constructIPKcEEvT_S8_St20forward_iterator_tag
FN:1157,_ZStplIcSt11char_traitsIcESaIcEENSt7__cxx1112basic_stringIT_T0_T1_EEPKS5_RKS8_
FNDA:35,_ZNSt7__cxx1112basic_stringIcSt11char_traitsIcESaIcEE12_M_constructIPKcEEvT_S8_St20forward_iterator_tag
FNDA:0,_ZStplIcSt11char_traitsIcESaIcEENSt7__cxx1112basic_stringIT_T0_T1_EEPKS5_RKS8_
FNF:2
FNH:1
DA:206,35
DA:211,35
DA:212,0
DA:215,35
DA:217,35
DA:219,16
DA:220,16
DA:225,35
DA:226,0
DA:228,0
DA:229,0
DA:232,35
DA:233,35
DA:1157,0
DA:1163,0
DA:1164,0
DA:1165,0
DA:1166,0
DA:1167,0
DA:1168,0
LF:20
LH:9
end_of_record
SF:/usr/local/include/c++/7.1.0/bits/char_traits.h
FN:260,_ZNSt11char_traitsIcE7compareEPKcS2_m
FN:268,_ZNSt11char_traitsIcE6lengthEPKc
FNDA:0,_ZNSt11char_traitsIcE7compareEPKcS2_m
FNDA:0,_ZNSt11char_traitsIcE6lengthEPKc
FNF:2
FNH:0
DA:260,0
DA:262,0
DA:263,0
DA:264,0
DA:268,0
DA:269,0
LF:6
LH:0
end_of_record
SF:/usr/local/include/c++/7.1.0/bits/cpp_type_traits.h
FN:408,_ZSt12__miter_baseIPmET_S1_
FN:408,_ZSt12__miter_baseIPPN7testing17TestEventListenerEET_S4_
FN:408,_ZSt12__miter_baseIN9__gnu_cxx17__normal_iteratorIPKdSt6vectorIdSaIdEEEEET_S8_
FN:408,_ZSt12__miter_baseIN9__gnu_cxx17__normal_iteratorIPKN7testing8internal13edit_distance8EditTypeESt6vectorIS5_SaIS5_EEEEET_SC_
FN:408,_ZSt12__miter_baseIPPN7testing8TestCaseEET_S4_
FN:408,_ZSt12__miter_baseIPiET_S1_
FN:408,_ZSt12__miter_baseIPN7testing8internal13edit_distance8EditTypeEET_S5_
FN:408,_ZSt12__miter_baseIN9__gnu_cxx17__normal_iteratorIPPN7testing17TestEventListenerESt6vectorIS4_SaIS4_EEEEET_SA_
FN:408,_ZSt12__miter_baseIPPcET_S2_
FN:408,_ZSt12__miter_baseIPPN7testing8TestInfoEET_S4_
FN:408,_ZSt12__miter_baseIPPN7testing11EnvironmentEET_S4_
FNDA:0,_ZSt12__miter_baseIN9__gnu_cxx17__normal_iteratorIPKN7testing8internal13edit_distance8EditTypeESt6vectorIS5_SaIS5_EEEEET_SC_
FNDA:0,_ZSt12__miter_baseIN9__gnu_cxx17__normal_iteratorIPKdSt6vectorIdSaIdEEEEET_S8_
FNDA:24,_ZSt12__miter_baseIPiET_S1_
FNDA:0,_ZSt12__miter_baseIPmET_S1_
FNDA:0,_ZSt12__miter_baseIPPN7testing11EnvironmentEET_S4_
FNDA:4,_ZSt12__miter_baseIPPN7testing17TestEventListenerEET_S4_
FNDA:12,_ZSt12__miter_baseIPPN7testing8TestInfoEET_S4_
FNDA:0,_ZSt12__miter_baseIPN7testing8internal13edit_distance8EditTypeEET_S5_
FNDA:0,_ZSt12__miter_baseIPPcET_S2_
FNDA:12,_ZSt12__miter_baseIPPN7testing8TestCaseEET_S4_
FNDA:0,_ZSt12__miter_baseIN9__gnu_cxx17__normal_iteratorIPPN7testing17TestEventListenerESt6vectorIS4_SaIS4_EEEEET_SA_
FNF:11
FNH:4
DA:408,52
DA:409,52
LF:2
LH:2
end_of_record
SF:/usr/local/include/c++/7.1.0/bits/ios_base.h
FN:83,_ZStanSt13_Ios_FmtflagsS_
FN:87,_ZStorSt13_Ios_FmtflagsS_
FN:95,_ZStcoSt13_Ios_Fmtflags
FN:99,_ZStoRRSt13_Ios_FmtflagsS_
FN:103,_ZStaNRSt13_Ios_FmtflagsS_
FN:129,_ZStorSt13_Ios_OpenmodeS_
FN:646,_ZNSt8ios_base4setfESt13_Ios_Fmtflags
FN:663,_ZNSt8ios_base4setfESt13_Ios_FmtflagsS0_
FN:958,_ZSt9uppercaseRSt8ios_base
FN:1024,_ZSt3hexRSt8ios_base
FNDA:0,_ZStanSt13_Ios_FmtflagsS_
FNDA:0,_ZStorSt13_Ios_FmtflagsS_
FNDA:0,_ZStcoSt13_Ios_Fmtflags
FNDA:0,_ZStoRRSt13_Ios_FmtflagsS_
FNDA:0,_ZStaNRSt13_Ios_FmtflagsS_
FNDA:0,_ZStorSt13_Ios_OpenmodeS_
FNDA:0,_ZNSt8ios_base4setfESt13_Ios_Fmtflags
FNDA:0,_ZNSt8ios_base4setfESt13_Ios_FmtflagsS0_
FNDA:0,_ZSt9uppercaseRSt8ios_base
FNDA:0,_ZSt3hexRSt8ios_base
FNF:10
FNH:0
DA:83,0
DA:84,0
DA:87,0
DA:88,0
DA:95,0
DA:96,0
DA:99,0
DA:100,0
DA:103,0
DA:104,0
DA:129,0
DA:130,0
DA:646,0
DA:648,0
DA:649,0
DA:650,0
DA:663,0
DA:665,0
DA:666,0
DA:667,0
DA:668,0
DA:958,0
DA:960,0
DA:961,0
DA:1024,0
DA:1026,0
DA:1027,0
LF:27
LH:0
end_of_record
SF:/usr/local/include/c++/7.1.0/bits/list.tcc
FN:65,_ZNSt7__cxx1110_List_baseISt4pairIcPKcESaIS4_EE8_M_clearEv
FNDA:0,_ZNSt7__cxx1110_List_baseISt4pairIcPKcESaIS4_EE8_M_clearEv
FNF:1
FNH:0
DA:65,0
DA:69,0
DA:70,0
DA:72,0
DA:73,0
DA:74,0
DA:76,0
DA:80,0
DA:82,0
LF:9
LH:0
end_of_record
SF:/usr/local/include/c++/7.1.0/bits/move.h
FN:47,_ZSt11__addressofINSt7__cxx1112basic_stringIcSt11char_traitsIcESaIcEEEEPT_RS6_
FN:47,_ZSt11__addressofIN7testing14TestPartResultEEPT_RS2_
FN:47,_ZSt11__addressofISt6vectorIN7testing8internal13edit_distance8EditTypeESaIS4_EEEPT_RS7_
FN:47,_ZSt11__addressofISt6vectorIdSaIdEEEPT_RS3_
FN:47,_ZSt11__addressofIN7testing12TestPropertyEEPT_RS2_
FN:47,_ZSt11__addressofISaISt10_List_nodeISt4pairIcPKcEEEEPT_RS7_
FN:47,_ZSt11__addressofIN7testing8internal9TraceInfoEEPT_RS3_
FN:47,_ZSt11__addressofIPN7testing8TestCaseEEPT_RS3_
FN:73,_ZSt7forwardISt17_Rb_tree_iteratorINSt7__cxx1112basic_stringIcSt11char_traitsIcESaIcEEEEEOT_RNSt16remove_referenceIS8_E4typeE
FN:73,_ZSt7forwardIN7testing12TestPropertyEEOT_RNSt16remove_referenceIS2_E4typeE
FN:73,_ZSt7forwardIcEOT_RNSt16remove_referenceIS0_E4typeE
FN:73,_ZSt7forwardIRKPKcEOT_RNSt16remove_referenceIS4_E4typeE
FN:73,_ZSt7forwardISt5tupleIJEEEOT_RNSt16remove_referenceIS2_E4typeE
FN:73,_ZSt7forwardIRbEOT_RNSt16remove_referenceIS1_E4typeE
FN:73,_ZSt7forwardIbEOT_RNSt16remove_referenceIS0_E4typeE
FN:73,_ZSt7forwardIRKPN7testing8TestCaseEEOT_RNSt16remove_referenceIS5_E4typeE
FN:73,_ZSt7forwardIPcEOT_RNSt16remove_referenceIS1_E4typeE
FN:73,_ZSt7forwardIPN7testing8TestCaseEEOT_RNSt16remove_referenceIS3_E4typeE
FN:73,_ZSt7forwardIRKN7testing8internal9TraceInfoEEOT_RNSt16remove_referenceIS5_E4typeE
FN:73,_ZSt7forwardISt4pairIcPKcEEOT_RNSt16remove_referenceIS4_E4typeE
FN:73,_ZSt7forwardIRKN7testing8internal13edit_distance8EditTypeEEOT_RNSt16remove_referenceIS6_E4typeE
FN:73,_ZSt7forwardIRPKcEOT_RNSt16remove_referenceIS3_E4typeE
FN:73,_ZSt7forwardIRSt17_Rb_tree_iteratorINSt7__cxx1112basic_stringIcSt11char_traitsIcESaIcEEEEEOT_RNSt16remove_referenceIS9_E4typeE
FN:73,_ZSt7forwardIRPSt18_Rb_tree_node_baseEOT_RNSt16remove_referenceIS3_E4typeE
FN:73,_ZSt7forwardIRKN7testing12TestPropertyEEOT_RNSt16remove_referenceIS4_E4typeE
FN:73,_ZSt7forwardIRKN7testing14TestPartResultEEOT_RNSt16remove_referenceIS4_E4typeE
FN:73,_ZSt7forwardIRKPN7testing11EnvironmentEEOT_RNSt16remove_referenceIS5_E4typeE
FN:73,_ZSt7forwardIRKNSt7__cxx1112basic_stringIcSt11char_traitsIcESaIcEEEEOT_RNSt16remove_referenceIS8_E4typeE
FN:73,_ZSt7forwardIiEOT_RNSt16remove_referenceIS0_E4typeE
FN:73,_ZSt7forwardIRKSt6vectorIN7testing8internal13edit_distance8EditTypeESaIS4_EEEOT_RNSt16remove_referenceIS9_E4typeE
FN:73,_ZSt7forwardIRKSt21piecewise_construct_tEOT_RNSt16remove_referenceIS3_E4typeE
FN:73,_ZSt7forwardIRKSt6vectorIdSaIdEEEOT_RNSt16remove_referenceIS5_E4typeE
FN:73,_ZSt7forwardIRKPN7testing17TestEventListenerEEOT_RNSt16remove_referenceIS5_E4typeE
FN:73,_ZSt7forwardINSt7__cxx1112basic_stringIcSt11char_traitsIcESaIcEEEEOT_RNSt16remove_referenceIS6_E4typeE
FN:73,_ZSt7forwardIRKPN7testing8TestInfoEEOT_RNSt16remove_referenceIS5_E4typeE
FN:73,_ZSt7forwardIRPSt13_Rb_tree_nodeISt4pairIKNSt7__cxx1112basic_stringIcSt11char_traitsIcESaIcEEEmEEEOT_RNSt16remove_referenceISD_E4typeE
FN:73,_ZSt7forwardIN7testing8internal9TraceInfoEEOT_RNSt16remove_referenceIS3_E4typeE
FN:73,_ZSt7forwardISt5tupleIJRKNSt7__cxx1112basic_stringIcSt11char_traitsIcESaIcEEEEEEOT_RNSt16remove_referenceISA_E4typeE
FN:73,_ZSt7forwardIN7testing14TestPartResultEEOT_RNSt16remove_referenceIS2_E4typeE
FN:73,_ZSt7forwardIRPSt13_Rb_tree_nodeINSt7__cxx1112basic_stringIcSt11char_traitsIcESaIcEEEEEOT_RNSt16remove_referenceISA_E4typeE
FN:73,_ZSt7forwardImEOT_RNSt16remove_referenceIS0_E4typeE
FN:98,_ZSt4moveIRN7testing8internal17TestPropertyKeyIsEEONSt16remove_referenceIT_E4typeEOS5_
FN:98,_ZSt4moveIRPN7testing8TestCaseEEONSt16remove_referenceIT_E4typeEOS5_
FN:98,_ZSt4moveIRN7testing8internal14TestCaseNameIsEEONSt16remove_referenceIT_E4typeEOS5_
FN:98,_ZSt4moveIRPcEONSt16remove_referenceIT_E4typeEOS3_
FN:98,_ZSt4moveIRPNSt7__cxx1112basic_stringIcSt11char_traitsIcESaIcEEEEONSt16remove_referenceIT_E4typeEOS9_
FN:98,_ZSt4moveIRNSt7__cxx114listISt4pairIcPKcESaIS5_EEEEONSt16remove_referenceIT_E4typeEOSA_
FN:98,_ZSt4moveIRN7testing8internal13edit_distance8EditTypeEEONSt16remove_referenceIT_E4typeEOS6_
FN:98,_ZSt4moveIRiEONSt16remove_referenceIT_E4typeEOS2_
FN:98,_ZSt4moveIRmEONSt16remove_referenceIT_E4typeEOS2_
FN:98,_ZSt4moveIRNSt7__cxx1112basic_stringIcSt11char_traitsIcESaIcEEEEONSt16remove_referenceIT_E4typeEOS8_
FN:98,_ZSt4moveIRSt4pairIcPKcEEONSt16remove_referenceIT_E4typeEOS6_
FN:98,_ZSt4moveIRbEONSt16remove_referenceIT_E4typeEOS2_
FN:137,_ZSt9addressofIPN7testing8TestCaseEEPT_RS3_
FN:187,_ZSt4swapIiENSt9enable_ifIXsrSt6__and_IJSt6__not_ISt15__is_tuple_likeIT_EESt21is_move_constructibleIS4_ESt18is_move_assignableIS4_EEE5valueEvE4typeERS4_SE_
FN:187,_ZSt4swapIPNSt7__cxx1112basic_stringIcSt11char_traitsIcESaIcEEEENSt9enable_ifIXsrSt6__and_IJSt6__not_ISt15__is_tuple_likeIT_EESt21is_move_constructibleISB_ESt18is_move_assignableISB_EEE5valueEvE4typeERSB_SL_
FN:187,_ZSt4swapIbENSt9enable_ifIXsrSt6__and_IJSt6__not_ISt15__is_tuple_likeIT_EESt21is_move_constructibleIS4_ESt18is_move_assignableIS4_EEE5valueEvE4typeERS4_SE_
FN:187,_ZSt4swapIN7testing8internal13edit_distance8EditTypeEENSt9enable_ifIXsrSt6__and_IJSt6__not_ISt15__is_tuple_likeIT_EESt21is_move_constructibleIS8_ESt18is_move_assignableIS8_EEE5valueEvE4typeERS8_SI_
FNDA:0,_ZSt11__addressofIPN7testing8TestCaseEEPT_RS3_
FNDA:0,_ZSt11__addressofIN7testing8internal9TraceInfoEEPT_RS3_
FNDA:0,_ZSt11__addressofIN7testing12TestPropertyEEPT_RS2_
FNDA:0,_ZSt11__addressofISaISt10_List_nodeISt4pairIcPKcEEEEPT_RS7_
FNDA:0,_ZSt11__addressofISt6vectorIN7testing8internal13edit_distance8EditTypeESaIS4_EEEPT_RS7_
FNDA:0,_ZSt11__addressofISt6vectorIdSaIdEEEPT_RS3_
FNDA:1,_ZSt11__addressofINSt7__cxx1112basic_stringIcSt11char_traitsIcESaIcEEEEPT_RS6_
FNDA:0,_ZSt11__addressofIN7testing14TestPartResultEEPT_RS2_
FNDA:0,_ZSt7forwardIRKPKcEOT_RNSt16remove_referenceIS4_E4typeE
FNDA:0,_ZSt7forwardIN7testing8internal9TraceInfoEEOT_RNSt16remove_referenceIS3_E4typeE
FNDA:0,_ZSt7forwardIN7testing12TestPropertyEEOT_RNSt16remove_referenceIS2_E4typeE
FNDA:0,_ZSt7forwardIN7testing14TestPartResultEEOT_RNSt16remove_referenceIS2_E4typeE
FNDA:0,_ZSt7forwardIRKSt6vectorIN7testing8internal13edit_distance8EditTypeESaIS4_EEEOT_RNSt16remove_referenceIS9_E4typeE
FNDA:0,_ZSt7forwardIRKSt6vectorIdSaIdEEEOT_RNSt16remove_referenceIS5_E4typeE
FNDA:0,_ZSt7forwardIRPSt13_Rb_tree_nodeISt4pairIKNSt7__cxx1112basic_stringIcSt11char_traitsIcESaIcEEEmEEEOT_RNSt16remove_referenceISD_E4typeE
FNDA:0,_ZSt7forwardIRPSt13_Rb_tree_nodeINSt7__cxx1112basic_stringIcSt11char_traitsIcESaIcEEEEEOT_RNSt16remove_referenceISA_E4typeE
FNDA:0,_ZSt7forwardIRPSt18_Rb_tree_node_baseEOT_RNSt16remove_referenceIS3_E4typeE
FNDA:0,_ZSt7forwardISt17_Rb_tree_iteratorINSt7__cxx1112basic_stringIcSt11char_traitsIcESaIcEEEEEOT_RNSt16remove_referenceIS8_E4typeE
FNDA:0,_ZSt7forwardIbEOT_RNSt16remove_referenceIS0_E4typeE
FNDA:0,_ZSt7forwardIRbEOT_RNSt16remove_referenceIS1_E4typeE
FNDA:0,_ZSt7forwardIRSt17_Rb_tree_iteratorINSt7__cxx1112basic_stringIcSt11char_traitsIcESaIcEEEEEOT_RNSt16remove_referenceIS9_E4typeE
FNDA:0,_ZSt7forwardIRKNSt7__cxx1112basic_stringIcSt11char_traitsIcESaIcEEEEOT_RNSt16remove_referenceIS8_E4typeE
FNDA:0,_ZSt7forwardIPcEOT_RNSt16remove_referenceIS1_E4typeE
FNDA:0,_ZSt7forwardIPN7testing8TestCaseEEOT_RNSt16remove_referenceIS3_E4typeE
FNDA:9,_ZSt7forwardIRKPN7testing8TestCaseEEOT_RNSt16remove_referenceIS5_E4typeE
FNDA:0,_ZSt7forwardIRKN7testing8internal9TraceInfoEEOT_RNSt16remove_referenceIS5_E4typeE
FNDA:0,_ZSt7forwardIRKPN7testing11EnvironmentEEOT_RNSt16remove_referenceIS5_E4typeE
FNDA:3,_ZSt7forwardIRKPN7testing17TestEventListenerEEOT_RNSt16remove_referenceIS5_E4typeE
FNDA:24,_ZSt7forwardIiEOT_RNSt16remove_referenceIS0_E4typeE
FNDA:9,_ZSt7forwardIRKPN7testing8TestInfoEEOT_RNSt16remove_referenceIS5_E4typeE
FNDA:0,_ZSt7forwardIRKN7testing12TestPropertyEEOT_RNSt16remove_referenceIS4_E4typeE
FNDA:0,_ZSt7forwardIRKN7testing14TestPartResultEEOT_RNSt16remove_referenceIS4_E4typeE
FNDA:0,_ZSt7forwardISt4pairIcPKcEEOT_RNSt16remove_referenceIS4_E4typeE
FNDA:0,_ZSt7forwardImEOT_RNSt16remove_referenceIS0_E4typeE
FNDA:0,_ZSt7forwardISt5tupleIJEEEOT_RNSt16remove_referenceIS2_E4typeE
FNDA:0,_ZSt7forwardISt5tupleIJRKNSt7__cxx1112basic_stringIcSt11char_traitsIcESaIcEEEEEEOT_RNSt16remove_referenceISA_E4typeE
FNDA:0,_ZSt7forwardIRKSt21piecewise_construct_tEOT_RNSt16remove_referenceIS3_E4typeE
FNDA:0,_ZSt7forwardIRKN7testing8internal13edit_distance8EditTypeEEOT_RNSt16remove_referenceIS6_E4typeE
FNDA:4,_ZSt7forwardINSt7__cxx1112basic_stringIcSt11char_traitsIcESaIcEEEEOT_RNSt16remove_referenceIS6_E4typeE
FNDA:0,_ZSt7forwardIcEOT_RNSt16remove_referenceIS0_E4typeE
FNDA:0,_ZSt7forwardIRPKcEOT_RNSt16remove_referenceIS3_E4typeE
FNDA:0,_ZSt4moveIRN7testing8internal13edit_distance8EditTypeEEONSt16remove_referenceIT_E4typeEOS6_
FNDA:6,_ZSt4moveIRN7testing8internal14TestCaseNameIsEEONSt16remove_referenceIT_E4typeEOS5_
FNDA:0,_ZSt4moveIRN7testing8internal17TestPropertyKeyIsEEONSt16remove_referenceIT_E4typeEOS5_
FNDA:0,_ZSt4moveIRPcEONSt16remove_referenceIT_E4typeEOS3_
FNDA:0,_ZSt4moveIRPN7testing8TestCaseEEONSt16remove_referenceIT_E4typeEOS5_
FNDA:6,_ZSt4moveIRiEONSt16remove_referenceIT_E4typeEOS2_
FNDA:0,_ZSt4moveIRNSt7__cxx114listISt4pairIcPKcESaIS5_EEEEONSt16remove_referenceIT_E4typeEOSA_
FNDA:0,_ZSt4moveIRSt4pairIcPKcEEONSt16remove_referenceIT_E4typeEOS6_
FNDA:0,_ZSt4moveIRmEONSt16remove_referenceIT_E4typeEOS2_
FNDA:0,_ZSt4moveIRPNSt7__cxx1112basic_stringIcSt11char_traitsIcESaIcEEEEONSt16remove_referenceIT_E4typeEOS9_
FNDA:26,_ZSt4moveIRNSt7__cxx1112basic_stringIcSt11char_traitsIcESaIcEEEEONSt16remove_referenceIT_E4typeEOS8_
FNDA:0,_ZSt4moveIRbEONSt16remove_referenceIT_E4typeEOS2_
FNDA:0,_ZSt9addressofIPN7testing8TestCaseEEPT_RS3_
FNDA:0,_ZSt4swapIN7testing8internal13edit_distance8EditTypeEENSt9enable_ifIXsrSt6__and_IJSt6__not_ISt15__is_tuple_likeIT_EESt21is_move_constructibleIS8_ESt18is_move_assignableIS8_EEE5valueEvE4typeERS8_SI_
FNDA:0,_ZSt4swapIiENSt9enable_ifIXsrSt6__and_IJSt6__not_ISt15__is_tuple_likeIT_EESt21is_move_constructibleIS4_ESt18is_move_assignableIS4_EEE5valueEvE4typeERS4_SE_
FNDA:0,_ZSt4swapIPNSt7__cxx1112basic_stringIcSt11char_traitsIcESaIcEEEENSt9enable_ifIXsrSt6__and_IJSt6__not_ISt15__is_tuple_likeIT_EESt21is_move_constructibleISB_ESt18is_move_assignableISB_EEE5valueEvE4typeERSB_SL_
FNDA:0,_ZSt4swapIbENSt9enable_ifIXsrSt6__and_IJSt6__not_ISt15__is_tuple_likeIT_EESt21is_move_constructibleIS4_ESt18is_move_assignableIS4_EEE5valueEvE4typeERS4_SE_
FNF:58
FNH:9
DA:47,1
DA:48,1
DA:73,49
DA:74,49
DA:98,38
DA:99,38
DA:137,0
DA:138,0
DA:187,0
DA:198,0
DA:199,0
DA:200,0
DA:201,0
LF:13
LH:6
end_of_record
SF:/usr/local/include/c++/7.1.0/bits/predefined_ops.h
FN:234,_ZN9__gnu_cxx5__ops16_Iter_equals_valIKNSt7__cxx1112basic_stringIcSt11char_traitsIcESaIcEEEEC2ERS8_
FN:240,_ZN9__gnu_cxx5__ops16_Iter_equals_valIKNSt7__cxx1112basic_stringIcSt11char_traitsIcESaIcEEEEclINS_17__normal_iteratorIPS8_St6vectorIS7_SaIS7_EEEEEEbT_
FN:246,_ZN9__gnu_cxx5__ops17__iter_equals_valIKNSt7__cxx1112basic_stringIcSt11char_traitsIcESaIcEEEEENS0_16_Iter_equals_valIT_EERSA_
FN:271,_ZN9__gnu_cxx5__ops10_Iter_predIN7testing8internal17TestPropertyKeyIsEED2Ev
FN:271,_ZN9__gnu_cxx5__ops10_Iter_predIN7testing8internal14TestCaseNameIsEEC2ERKS5_
FN:271,_ZN9__gnu_cxx5__ops10_Iter_predIN7testing8internal14TestCaseNameIsEED2Ev
FN:271,_ZN9__gnu_cxx5__ops10_Iter_predIN7testing8internal17TestPropertyKeyIsEEC2ERKS5_
FN:276,_ZN9__gnu_cxx5__ops10_Iter_predIN7testing8internal17TestPropertyKeyIsEEC2ES4_
FN:276,_ZN9__gnu_cxx5__ops10_Iter_predIN7testing8internal14TestCaseNameIsEEC2ES4_
FN:282,_ZN9__gnu_cxx5__ops10_Iter_predIN7testing8internal14TestCaseNameIsEEclINS_17__normal_iteratorIPPNS2_8TestCaseESt6vectorIS9_SaIS9_EEEEEEbT_
FN:282,_ZN9__gnu_cxx5__ops10_Iter_predIN7testing8internal17TestPropertyKeyIsEEclINS_17__normal_iteratorIPNS2_12TestPropertyESt6vectorIS8_SaIS8_EEEEEEbT_
FN:288,_ZN9__gnu_cxx5__ops11__pred_iterIN7testing8internal14TestCaseNameIsEEENS0_10_Iter_predIT_EES6_
FN:288,_ZN9__gnu_cxx5__ops11__pred_iterIN7testing8internal17TestPropertyKeyIsEEENS0_10_Iter_predIT_EES6_
FNDA:0,_ZN9__gnu_cxx5__ops16_Iter_equals_valIKNSt7__cxx1112basic_stringIcSt11char_traitsIcESaIcEEEEC2ERS8_
FNDA:0,_ZN9__gnu_cxx5__ops16_Iter_equals_valIKNSt7__cxx1112basic_stringIcSt11char_traitsIcESaIcEEEEclINS_17__normal_iteratorIPS8_St6vectorIS7_SaIS7_EEEEEEbT_
FNDA:0,_ZN9__gnu_cxx5__ops17__iter_equals_valIKNSt7__cxx1112basic_stringIcSt11char_traitsIcESaIcEEEEENS0_16_Iter_equals_valIT_EERSA_
FNDA:3,_ZN9__gnu_cxx5__ops10_Iter_predIN7testing8internal14TestCaseNameIsEEC2ERKS5_
FNDA:0,_ZN9__gnu_cxx5__ops10_Iter_predIN7testing8internal17TestPropertyKeyIsEEC2ERKS5_
FNDA:6,_ZN9__gnu_cxx5__ops10_Iter_predIN7testing8internal14TestCaseNameIsEED2Ev
FNDA:0,_ZN9__gnu_cxx5__ops10_Iter_predIN7testing8internal17TestPropertyKeyIsEED2Ev
FNDA:3,_ZN9__gnu_cxx5__ops10_Iter_predIN7testing8internal14TestCaseNameIsEEC2ES4_
FNDA:0,_ZN9__gnu_cxx5__ops10_Iter_predIN7testing8internal17TestPropertyKeyIsEEC2ES4_
FNDA:3,_ZN9__gnu_cxx5__ops10_Iter_predIN7testing8internal14TestCaseNameIsEEclINS_17__normal_iteratorIPPNS2_8TestCaseESt6vectorIS9_SaIS9_EEEEEEbT_
FNDA:0,_ZN9__gnu_cxx5__ops10_Iter_predIN7testing8internal17TestPropertyKeyIsEEclINS_17__normal_iteratorIPNS2_12TestPropertyESt6vectorIS8_SaIS8_EEEEEEbT_
FNDA:3,_ZN9__gnu_cxx5__ops11__pred_iterIN7testing8internal14TestCaseNameIsEEENS0_10_Iter_predIT_EES6_
FNDA:0,_ZN9__gnu_cxx5__ops11__pred_iterIN7testing8internal17TestPropertyKeyIsEEENS0_10_Iter_predIT_EES6_
FNF:13
FNH:5
DA:234,0
DA:235,0
DA:236,0
DA:240,0
DA:241,0
DA:246,0
DA:247,0
DA:271,9
DA:276,3
DA:277,3
DA:278,3
DA:282,3
DA:283,3
DA:288,3
DA:289,3
LF:15
LH:8
end_of_record
SF:/usr/local/include/c++/7.1.0/bits/ptr_traits.h
FN:141,_ZNSt14pointer_traitsIPPN7testing8TestCaseEE10pointer_toERS2_
FNDA:0,_ZNSt14pointer_traitsIPPN7testing8TestCaseEE10pointer_toERS2_
FNF:1
FNH:0
DA:141,0
DA:142,0
LF:2
LH:0
end_of_record
SF:/usr/local/include/c++/7.1.0/bits/stl_algo.h
FN:112,_ZSt9__find_ifIN9__gnu_cxx17__normal_iteratorIPKNSt7__cxx1112basic_stringIcSt11char_traitsIcESaIcEEESt6vectorIS7_SaIS7_EEEENS0_5__ops16_Iter_equals_valIS8_EEET_SH_SH_T0_St26random_access_iterator_tag
FN:112,_ZSt9__find_ifIN9__gnu_cxx17__normal_iteratorIPPN7testing8TestCaseESt6vectorIS4_SaIS4_EEEENS0_5__ops10_Iter_predINS2_8internal14TestCaseNameIsEEEET_SF_SF_T0_St26random_access_iterator_tag
FN:112,_ZSt9__find_ifIN9__gnu_cxx17__normal_iteratorIPN7testing12TestPropertyESt6vectorIS3_SaIS3_EEEENS0_5__ops10_Iter_predINS2_8internal17TestPropertyKeyIsEEEET_SE_SE_T0_St26random_access_iterator_tag
FN:159,_ZSt9__find_ifIN9__gnu_cxx17__normal_iteratorIPKNSt7__cxx1112basic_stringIcSt11char_traitsIcESaIcEEESt6vectorIS7_SaIS7_EEEENS0_5__ops16_Iter_equals_valIS8_EEET_SH_SH_T0_
FN:159,_ZSt9__find_ifIN9__gnu_cxx17__normal_iteratorIPN7testing12TestPropertyESt6vectorIS3_SaIS3_EEEENS0_5__ops10_Iter_predINS2_8internal17TestPropertyKeyIsEEEET_SE_SE_T0_
FN:159,_ZSt9__find_ifIN9__gnu_cxx17__normal_iteratorIPPN7testing8TestCaseESt6vectorIS4_SaIS4_EEEENS0_5__ops10_Iter_predINS2_8internal14TestCaseNameIsEEEET_SF_SF_T0_
FN:1152,_ZSt9__reverseIN9__gnu_cxx17__normal_iteratorIPN7testing8internal13edit_distance8EditTypeESt6vectorIS5_SaIS5_EEEEEvT_SB_St26random_access_iterator_tag
FN:1180,_ZSt7reverseIN9__gnu_cxx17__normal_iteratorIPN7testing8internal13edit_distance8EditTypeESt6vectorIS5_SaIS5_EEEEEvT_SB_
FN:3878,_ZSt8for_eachIN9__gnu_cxx17__normal_iteratorIPKPN7testing11EnvironmentESt6vectorIS4_SaIS4_EEEEPFvS4_EET0_T_SE_SD_
FN:3878,_ZSt8for_eachIN9__gnu_cxx17__normal_iteratorIPKPN7testing17TestEventListenerESt6vectorIS4_SaIS4_EEEEPFvS4_EET0_T_SE_SD_
FN:3878,_ZSt8for_eachIN9__gnu_cxx17__normal_iteratorIPKPN7testing8TestCaseESt6vectorIS4_SaIS4_EEEEPFvS4_EET0_T_SE_SD_
FN:3878,_ZSt8for_eachISt16reverse_iteratorIN9__gnu_cxx17__normal_iteratorIPPN7testing11EnvironmentESt6vectorIS5_SaIS5_EEEEEPFvS5_EET0_T_SF_SE_
FN:3878,_ZSt8for_eachIN9__gnu_cxx17__normal_iteratorIPKPN7testing8TestInfoESt6vectorIS4_SaIS4_EEEEPFvS4_EET0_T_SE_SD_
FN:3899,_ZSt4findIN9__gnu_cxx17__normal_iteratorIPKNSt7__cxx1112basic_stringIcSt11char_traitsIcESaIcEEESt6vectorIS7_SaIS7_EEEES7_ET_SE_SE_RKT0_
FN:3923,_ZSt7find_ifIN9__gnu_cxx17__normal_iteratorIPN7testing12TestPropertyESt6vectorIS3_SaIS3_EEEENS2_8internal17TestPropertyKeyIsEET_SB_SB_T0_
FN:3923,_ZSt7find_ifIN9__gnu_cxx17__normal_iteratorIPPN7testing8TestCaseESt6vectorIS4_SaIS4_EEEENS2_8internal14TestCaseNameIsEET_SC_SC_T0_
FNDA:3,_ZSt9__find_ifIN9__gnu_cxx17__normal_iteratorIPPN7testing8TestCaseESt6vectorIS4_SaIS4_EEEENS0_5__ops10_Iter_predINS2_8internal14TestCaseNameIsEEEET_SF_SF_T0_St26random_access_iterator_tag
FNDA:0,_ZSt9__find_ifIN9__gnu_cxx17__normal_iteratorIPKNSt7__cxx1112basic_stringIcSt11char_traitsIcESaIcEEESt6vectorIS7_SaIS7_EEEENS0_5__ops16_Iter_equals_valIS8_EEET_SH_SH_T0_St26random_access_iterator_tag
FNDA:0,_ZSt9__find_ifIN9__gnu_cxx17__normal_iteratorIPN7testing12TestPropertyESt6vectorIS3_SaIS3_EEEENS0_5__ops10_Iter_predINS2_8internal17TestPropertyKeyIsEEEET_SE_SE_T0_St26random_access_iterator_tag
FNDA:3,_ZSt9__find_ifIN9__gnu_cxx17__normal_iteratorIPPN7testing8TestCaseESt6vectorIS4_SaIS4_EEEENS0_5__ops10_Iter_predINS2_8internal14TestCaseNameIsEEEET_SF_SF_T0_
FNDA:0,_ZSt9__find_ifIN9__gnu_cxx17__normal_iteratorIPKNSt7__cxx1112basic_stringIcSt11char_traitsIcESaIcEEESt6vectorIS7_SaIS7_EEEENS0_5__ops16_Iter_equals_valIS8_EEET_SH_SH_T0_
FNDA:0,_ZSt9__find_ifIN9__gnu_cxx17__normal_iteratorIPN7testing12TestPropertyESt6vectorIS3_SaIS3_EEEENS0_5__ops10_Iter_predINS2_8internal17TestPropertyKeyIsEEEET_SE_SE_T0_
FNDA:0,_ZSt9__reverseIN9__gnu_cxx17__normal_iteratorIPN7testing8internal13edit_distance8EditTypeESt6vectorIS5_SaIS5_EEEEEvT_SB_St26random_access_iterator_tag
FNDA:0,_ZSt7reverseIN9__gnu_cxx17__normal_iteratorIPN7testing8internal13edit_distance8EditTypeESt6vectorIS5_SaIS5_EEEEEvT_SB_
FNDA:2,_ZSt8for_eachIN9__gnu_cxx17__normal_iteratorIPKPN7testing11EnvironmentESt6vectorIS4_SaIS4_EEEEPFvS4_EET0_T_SE_SD_
FNDA:1,_ZSt8for_eachIN9__gnu_cxx17__normal_iteratorIPKPN7testing17TestEventListenerESt6vectorIS4_SaIS4_EEEEPFvS4_EET0_T_SE_SD_
FNDA:6,_ZSt8for_eachIN9__gnu_cxx17__normal_iteratorIPKPN7testing8TestInfoESt6vectorIS4_SaIS4_EEEEPFvS4_EET0_T_SE_SD_
FNDA:2,_ZSt8for_eachIN9__gnu_cxx17__normal_iteratorIPKPN7testing8TestCaseESt6vectorIS4_SaIS4_EEEEPFvS4_EET0_T_SE_SD_
FNDA:1,_ZSt8for_eachISt16reverse_iteratorIN9__gnu_cxx17__normal_iteratorIPPN7testing11EnvironmentESt6vectorIS5_SaIS5_EEEEEPFvS5_EET0_T_SF_SE_
FNDA:0,_ZSt4findIN9__gnu_cxx17__normal_iteratorIPKNSt7__cxx1112basic_stringIcSt11char_traitsIcESaIcEEESt6vectorIS7_SaIS7_EEEES7_ET_SE_SE_RKT0_
FNDA:3,_ZSt7find_ifIN9__gnu_cxx17__normal_iteratorIPPN7testing8TestCaseESt6vectorIS4_SaIS4_EEEENS2_8internal14TestCaseNameIsEET_SC_SC_T0_
FNDA:0,_ZSt7find_ifIN9__gnu_cxx17__normal_iteratorIPN7testing12TestPropertyESt6vectorIS3_SaIS3_EEEENS2_8internal17TestPropertyKeyIsEET_SB_SB_T0_
FNF:16
FNH:8
DA:112,3
DA:116,3
DA:118,3
DA:120,0
DA:121,0
DA:122,0
DA:124,0
DA:125,0
DA:126,0
DA:128,0
DA:129,0
DA:130,0
DA:132,0
DA:133,0
DA:134,0
DA:137,3
DA:139,0
DA:140,0
DA:141,0
DA:142,0
DA:143,1
DA:144,1
DA:145,0
DA:146,1
DA:147,2
DA:148,2
DA:149,0
DA:150,2
DA:151,3
DA:153,3
DA:159,3
DA:161,6
DA:162,9
DA:1152,0
DA:1155,0
DA:1156,0
DA:1157,0
DA:1158,0
DA:1160,0
DA:1161,0
DA:1162,0
DA:1180,0
DA:1186,0
DA:1187,0
DA:3878,25
DA:3883,38
DA:3884,13
DA:3885,12
DA:3899,0
DA:3907,0
DA:3908,0
DA:3923,3
DA:3932,6
DA:3933,6
LF:54
LH:22
end_of_record
SF:/usr/local/include/c++/7.1.0/bits/stl_algobase.h
FN:120,_ZSt9iter_swapIN9__gnu_cxx17__normal_iteratorIPN7testing8internal13edit_distance8EditTypeESt6vectorIS5_SaIS5_EEEESA_EvT_T0_
FN:195,_ZSt3minImERKT_S2_S2_
FN:219,_ZSt3maxImERKT_S2_S2_
FN:277,_ZSt12__niter_baseIPPN7testing11EnvironmentEET_S4_
FN:277,_ZSt12__niter_baseIPiET_S1_
FN:277,_ZSt12__niter_baseIPPN7testing8TestCaseEET_S4_
FN:277,_ZSt12__niter_baseIPN7testing8internal13edit_distance8EditTypeEET_S5_
FN:277,_ZSt12__niter_baseIPPN7testing17TestEventListenerEET_S4_
FN:277,_ZSt12__niter_baseIPPN7testing8TestInfoEET_S4_
FN:277,_ZSt12__niter_baseIPmET_S1_
FN:277,_ZSt12__niter_baseIPPcET_S2_
FN:277,_ZSt12__niter_baseIPdET_S1_
FN:357,_ZNSt11__copy_moveILb1ELb1ESt26random_access_iterator_tagE8__copy_mIiEEPT_PKS3_S6_S4_
FN:357,_ZNSt11__copy_moveILb0ELb1ESt26random_access_iterator_tagE8__copy_mIN7testing8internal13edit_distance8EditTypeEEEPT_PKS7_SA_S8_
FN:357,_ZNSt11__copy_moveILb1ELb1ESt26random_access_iterator_tagE8__copy_mIPN7testing8TestInfoEEEPT_PKS6_S9_S7_
FN:357,_ZNSt11__copy_moveILb1ELb1ESt26random_access_iterator_tagE8__copy_mIPN7testing17TestEventListenerEEEPT_PKS6_S9_S7_
FN:357,_ZNSt11__copy_moveILb0ELb1ESt26random_access_iterator_tagE8__copy_mIdEEPT_PKS3_S6_S4_
FN:357,_ZNSt11__copy_moveILb1ELb1ESt26random_access_iterator_tagE8__copy_mIPN7testing8TestCaseEEEPT_PKS6_S9_S7_
FN:357,_ZNSt11__copy_moveILb1ELb1ESt26random_access_iterator_tagE8__copy_mIN7testing8internal13edit_distance8EditTypeEEEPT_PKS7_SA_S8_
FN:357,_ZNSt11__copy_moveILb1ELb1ESt26random_access_iterator_tagE8__copy_mIPN7testing11EnvironmentEEEPT_PKS6_S9_S7_
FN:357,_ZNSt11__copy_moveILb1ELb1ESt26random_access_iterator_tagE8__copy_mImEEPT_PKS3_S6_S4_
FN:357,_ZNSt11__copy_moveILb1ELb1ESt26random_access_iterator_tagE8__copy_mIPcEEPT_PKS4_S7_S5_
FN:375,_ZSt13__copy_move_aILb1EPPN7testing17TestEventListenerES3_ET1_T0_S5_S4_
FN:375,_ZSt13__copy_move_aILb1EPPN7testing8TestInfoES3_ET1_T0_S5_S4_
FN:375,_ZSt13__copy_move_aILb1EPPN7testing8TestCaseES3_ET1_T0_S5_S4_
FN:375,_ZSt13__copy_move_aILb1EPN7testing8internal13edit_distance8EditTypeES4_ET1_T0_S6_S5_
FN:375,_ZSt13__copy_move_aILb1EPPcS1_ET1_T0_S3_S2_
FN:375,_ZSt13__copy_move_aILb0EPKdPdET1_T0_S4_S3_
FN:375,_ZSt13__copy_move_aILb0EPKN7testing8internal13edit_distance8EditTypeEPS3_ET1_T0_S8_S7_
FN:375,_ZSt13__copy_move_aILb1EPiS0_ET1_T0_S2_S1_
FN:375,_ZSt13__copy_move_aILb1EPPN7testing11EnvironmentES3_ET1_T0_S5_S4_
FN:375,_ZSt13__copy_move_aILb1EPmS0_ET1_T0_S2_S1_
FN:420,_ZSt14__copy_move_a2ILb1EPPN7testing8TestCaseES3_ET1_T0_S5_S4_
FN:420,_ZSt14__copy_move_a2ILb1EPN7testing8internal13edit_distance8EditTypeES4_ET1_T0_S6_S5_
FN:420,_ZSt14__copy_move_a2ILb1EN9__gnu_cxx17__normal_iteratorIPPN7testing17TestEventListenerESt6vectorIS4_SaIS4_EEEES9_ET1_T0_SB_SA_
FN:420,_ZSt14__copy_move_a2ILb1EPPN7testing11EnvironmentES3_ET1_T0_S5_S4_
FN:420,_ZSt14__copy_move_a2ILb1EPiS0_ET1_T0_S2_S1_
FN:420,_ZSt14__copy_move_a2ILb1EPPN7testing8TestInfoES3_ET1_T0_S5_S4_
FN:420,_ZSt14__copy_move_a2ILb1EPPN7testing17TestEventListenerES3_ET1_T0_S5_S4_
FN:420,_ZSt14__copy_move_a2ILb0EN9__gnu_cxx17__normal_iteratorIPKN7testing8internal13edit_distance8EditTypeESt6vectorIS5_SaIS5_EEEEPS5_ET1_T0_SE_SD_
FN:420,_ZSt14__copy_move_a2ILb1EPmS0_ET1_T0_S2_S1_
FN:420,_ZSt14__copy_move_a2ILb1EPPcS1_ET1_T0_S3_S2_
FN:420,_ZSt14__copy_move_a2ILb0EN9__gnu_cxx17__normal_iteratorIPKdSt6vectorIdSaIdEEEEPdET1_T0_SA_S9_
FN:446,_ZSt4copyISt13move_iteratorIPN7testing8internal13edit_distance8EditTypeEES5_ET0_T_S8_S7_
FN:446,_ZSt4copyISt13move_iteratorIPPN7testing8TestCaseEES4_ET0_T_S7_S6_
FN:446,_ZSt4copyISt13move_iteratorIPiES1_ET0_T_S4_S3_
FN:446,_ZSt4copyISt13move_iteratorIPPcES2_ET0_T_S5_S4_
FN:446,_ZSt4copyIN9__gnu_cxx17__normal_iteratorIPKN7testing8internal13edit_distance8EditTypeESt6vectorIS5_SaIS5_EEEEPS5_ET0_T_SE_SD_
FN:446,_ZSt4copyISt13move_iteratorIPmES1_ET0_T_S4_S3_
FN:446,_ZSt4copyISt13move_iteratorIPPN7testing11EnvironmentEES4_ET0_T_S7_S6_
FN:446,_ZSt4copyISt13move_iteratorIPPN7testing8TestInfoEES4_ET0_T_S7_S6_
FN:446,_ZSt4copyIN9__gnu_cxx17__normal_iteratorIPKdSt6vectorIdSaIdEEEEPdET0_T_SA_S9_
FN:446,_ZSt4copyISt13move_iteratorIPPN7testing17TestEventListenerEES4_ET0_T_S7_S6_
FN:479,_ZSt4moveIN9__gnu_cxx17__normal_iteratorIPPN7testing17TestEventListenerESt6vectorIS4_SaIS4_EEEES9_ET0_T_SB_SA_
FN:559,_ZNSt20__copy_move_backwardILb1ELb1ESt26random_access_iterator_tagE13__copy_move_bIPcEEPT_PKS4_S7_S5_
FN:559,_ZNSt20__copy_move_backwardILb1ELb1ESt26random_access_iterator_tagE13__copy_move_bIPN7testing8TestCaseEEEPT_PKS6_S9_S7_
FN:577,_ZSt22__copy_move_backward_aILb1EPPcS1_ET1_T0_S3_S2_
FN:577,_ZSt22__copy_move_backward_aILb1EPPN7testing8TestCaseES3_ET1_T0_S5_S4_
FN:595,_ZSt23__copy_move_backward_a2ILb1EPPcS1_ET1_T0_S3_S2_
FN:595,_ZSt23__copy_move_backward_a2ILb1EPPN7testing8TestCaseES3_ET1_T0_S5_S4_
FN:658,_ZSt13move_backwardIPPN7testing8TestCaseES3_ET0_T_S5_S4_
FN:658,_ZSt13move_backwardIPPcS1_ET0_T_S3_S2_
FN:738,_ZSt10__fill_n_aIPN7testing8internal13edit_distance8EditTypeEmS3_EN9__gnu_cxx11__enable_ifIXntsrSt11__is_scalarIT1_E7__valueET_E6__typeESA_T0_RKS8_
FN:749,_ZSt10__fill_n_aIPdmdEN9__gnu_cxx11__enable_ifIXsrSt11__is_scalarIT1_E7__valueET_E6__typeES6_T0_RKS4_
FN:784,_ZSt6fill_nIPdmdET_S1_T0_RKT1_
FN:784,_ZSt6fill_nIPN7testing8internal13edit_distance8EditTypeEmS3_ET_S5_T0_RKT1_
FNDA:0,_ZSt9iter_swapIN9__gnu_cxx17__normal_iteratorIPN7testing8internal13edit_distance8EditTypeESt6vectorIS5_SaIS5_EEEESA_EvT_T0_
FNDA:0,_ZSt3minImERKT_S2_S2_
FNDA:14,_ZSt3maxImERKT_S2_S2_
FNDA:36,_ZSt12__niter_baseIPiET_S1_
FNDA:0,_ZSt12__niter_baseIPPN7testing11EnvironmentEET_S4_
FNDA:6,_ZSt12__niter_baseIPPN7testing17TestEventListenerEET_S4_
FNDA:18,_ZSt12__niter_baseIPPN7testing8TestInfoEET_S4_
FNDA:0,_ZSt12__niter_baseIPN7testing8internal13edit_distance8EditTypeEET_S5_
FNDA:0,_ZSt12__niter_baseIPdET_S1_
FNDA:0,_ZSt12__niter_baseIPPcET_S2_
FNDA:18,_ZSt12__niter_baseIPPN7testing8TestCaseEET_S4_
FNDA:0,_ZSt12__niter_baseIPmET_S1_
FNDA:0,_ZNSt11__copy_moveILb0ELb1ESt26random_access_iterator_tagE8__copy_mIN7testing8internal13edit_distance8EditTypeEEEPT_PKS7_SA_S8_
FNDA:0,_ZNSt11__copy_moveILb0ELb1ESt26random_access_iterator_tagE8__copy_mIdEEPT_PKS3_S6_S4_
FNDA:0,_ZNSt11__copy_moveILb1ELb1ESt26random_access_iterator_tagE8__copy_mIPcEEPT_PKS4_S7_S5_
FNDA:12,_ZNSt11__copy_moveILb1ELb1ESt26random_access_iterator_tagE8__copy_mIiEEPT_PKS3_S6_S4_
FNDA:0,_ZNSt11__copy_moveILb1ELb1ESt26random_access_iterator_tagE8__copy_mImEEPT_PKS3_S6_S4_
FNDA:6,_ZNSt11__copy_moveILb1ELb1ESt26random_access_iterator_tagE8__copy_mIPN7testing8TestCaseEEEPT_PKS6_S9_S7_
FNDA:0,_ZNSt11__copy_moveILb1ELb1ESt26random_access_iterator_tagE8__copy_mIPN7testing11EnvironmentEEEPT_PKS6_S9_S7_
FNDA:6,_ZNSt11__copy_moveILb1ELb1ESt26random_access_iterator_tagE8__copy_mIPN7testing8TestInfoEEEPT_PKS6_S9_S7_
FNDA:0,_ZNSt11__copy_moveILb1ELb1ESt26random_access_iterator_tagE8__copy_mIN7testing8internal13edit_distance8EditTypeEEEPT_PKS7_SA_S8_
FNDA:2,_ZNSt11__copy_moveILb1ELb1ESt26random_access_iterator_tagE8__copy_mIPN7testing17TestEventListenerEEEPT_PKS6_S9_S7_
FNDA:0,_ZSt13__copy_move_aILb0EPKN7testing8internal13edit_distance8EditTypeEPS3_ET1_T0_S8_S7_
FNDA:0,_ZSt13__copy_move_aILb0EPKdPdET1_T0_S4_S3_
FNDA:0,_ZSt13__copy_move_aILb1EPPcS1_ET1_T0_S3_S2_
FNDA:12,_ZSt13__copy_move_aILb1EPiS0_ET1_T0_S2_S1_
FNDA:0,_ZSt13__copy_move_aILb1EPmS0_ET1_T0_S2_S1_
FNDA:6,_ZSt13__copy_move_aILb1EPPN7testing8TestCaseES3_ET1_T0_S5_S4_
FNDA:0,_ZSt13__copy_move_aILb1EPPN7testing11EnvironmentES3_ET1_T0_S5_S4_
FNDA:6,_ZSt13__copy_move_aILb1EPPN7testing8TestInfoES3_ET1_T0_S5_S4_
FNDA:0,_ZSt13__copy_move_aILb1EPN7testing8internal13edit_distance8EditTypeES4_ET1_T0_S6_S5_
FNDA:2,_ZSt13__copy_move_aILb1EPPN7testing17TestEventListenerES3_ET1_T0_S5_S4_
FNDA:0,_ZSt14__copy_move_a2ILb0EN9__gnu_cxx17__normal_iteratorIPKN7testing8internal13edit_distance8EditTypeESt6vectorIS5_SaIS5_EEEEPS5_ET1_T0_SE_SD_
FNDA:0,_ZSt14__copy_move_a2ILb0EN9__gnu_cxx17__normal_iteratorIPKdSt6vectorIdSaIdEEEEPdET1_T0_SA_S9_
FNDA:0,_ZSt14__copy_move_a2ILb1EPPcS1_ET1_T0_S3_S2_
FNDA:12,_ZSt14__copy_move_a2ILb1EPiS0_ET1_T0_S2_S1_
FNDA:0,_ZSt14__copy_move_a2ILb1EPmS0_ET1_T0_S2_S1_
FNDA:6,_ZSt14__copy_move_a2ILb1EPPN7testing8TestCaseES3_ET1_T0_S5_S4_
FNDA:0,_ZSt14__copy_move_a2ILb1EPPN7testing11EnvironmentES3_ET1_T0_S5_S4_
FNDA:2,_ZSt14__copy_move_a2ILb1EPPN7testing17TestEventListenerES3_ET1_T0_S5_S4_
FNDA:6,_ZSt14__copy_move_a2ILb1EPPN7testing8TestInfoES3_ET1_T0_S5_S4_
FNDA:0,_ZSt14__copy_move_a2ILb1EPN7testing8internal13edit_distance8EditTypeES4_ET1_T0_S6_S5_
FNDA:0,_ZSt14__copy_move_a2ILb1EN9__gnu_cxx17__normal_iteratorIPPN7testing17TestEventListenerESt6vectorIS4_SaIS4_EEEES9_ET1_T0_SB_SA_
FNDA:0,_ZSt4copyIN9__gnu_cxx17__normal_iteratorIPKN7testing8internal13edit_distance8EditTypeESt6vectorIS5_SaIS5_EEEEPS5_ET0_T_SE_SD_
FNDA:0,_ZSt4copyIN9__gnu_cxx17__normal_iteratorIPKdSt6vectorIdSaIdEEEEPdET0_T_SA_S9_
FNDA:0,_ZSt4copyISt13move_iteratorIPPcES2_ET0_T_S5_S4_
FNDA:12,_ZSt4copyISt13move_iteratorIPiES1_ET0_T_S4_S3_
FNDA:0,_ZSt4copyISt13move_iteratorIPmES1_ET0_T_S4_S3_
FNDA:6,_ZSt4copyISt13move_iteratorIPPN7testing8TestCaseEES4_ET0_T_S7_S6_
FNDA:0,_ZSt4copyISt13move_iteratorIPPN7testing11EnvironmentEES4_ET0_T_S7_S6_
FNDA:2,_ZSt4copyISt13move_iteratorIPPN7testing17TestEventListenerEES4_ET0_T_S7_S6_
FNDA:6,_ZSt4copyISt13move_iteratorIPPN7testing8TestInfoEES4_ET0_T_S7_S6_
FNDA:0,_ZSt4copyISt13move_iteratorIPN7testing8internal13edit_distance8EditTypeEES5_ET0_T_S8_S7_
FNDA:0,_ZSt4moveIN9__gnu_cxx17__normal_iteratorIPPN7testing17TestEventListenerESt6vectorIS4_SaIS4_EEEES9_ET0_T_SB_SA_
FNDA:0,_ZNSt20__copy_move_backwardILb1ELb1ESt26random_access_iterator_tagE13__copy_move_bIPcEEPT_PKS4_S7_S5_
FNDA:0,_ZNSt20__copy_move_backwardILb1ELb1ESt26random_access_iterator_tagE13__copy_move_bIPN7testing8TestCaseEEEPT_PKS6_S9_S7_
FNDA:0,_ZSt22__copy_move_backward_aILb1EPPcS1_ET1_T0_S3_S2_
FNDA:0,_ZSt22__copy_move_backward_aILb1EPPN7testing8TestCaseES3_ET1_T0_S5_S4_
FNDA:0,_ZSt23__copy_move_backward_a2ILb1EPPcS1_ET1_T0_S3_S2_
FNDA:0,_ZSt23__copy_move_backward_a2ILb1EPPN7testing8TestCaseES3_ET1_T0_S5_S4_
FNDA:0,_ZSt13move_backwardIPPcS1_ET0_T_S3_S2_
FNDA:0,_ZSt13move_backwardIPPN7testing8TestCaseES3_ET0_T_S5_S4_
FNDA:0,_ZSt10__fill_n_aIPN7testing8internal13edit_distance8EditTypeEmS3_EN9__gnu_cxx11__enable_ifIXntsrSt11__is_scalarIT1_E7__valueET_E6__typeESA_T0_RKS8_
FNDA:0,_ZSt10__fill_n_aIPdmdEN9__gnu_cxx11__enable_ifIXsrSt11__is_scalarIT1_E7__valueET_E6__typeES6_T0_RKS4_
FNDA:0,_ZSt6fill_nIPN7testing8internal13edit_distance8EditTypeEmS3_ET_S5_T0_RKT1_
FNDA:0,_ZSt6fill_nIPdmdET_S1_T0_RKT1_
FNF:66
FNH:21
DA:120,0
DA:148,0
DA:150,0
DA:195,0
DA:200,0
DA:201,0
DA:202,0
DA:219,14
DA:224,14
DA:225,10
DA:226,4
DA:277,78
DA:278,78
DA:357,26
DA:366,26
DA:367,26
DA:368,4
DA:369,26
DA:375,26
DA:380,26
DA:386,26
DA:420,26
DA:422,26
DA:424,26
DA:446,26
DA:455,26
DA:456,26
DA:479,0
DA:487,0
DA:488,0
DA:559,0
DA:568,0
DA:569,0
DA:570,0
DA:571,0
DA:577,0
DA:582,0
DA:590,0
DA:595,0
DA:598,0
DA:599,0
DA:658,0
DA:668,0
DA:670,0
DA:738,0
DA:740,0
DA:741,0
DA:742,0
DA:743,0
DA:749,0
DA:751,0
DA:752,0
DA:753,0
DA:754,0
DA:755,0
DA:784,0
DA:789,0
LF:57
LH:20
end_of_record
SF:/usr/local/include/c++/7.1.0/bits/stl_construct.h
FN:74,_ZSt10_ConstructIN7testing12TestPropertyEJS1_EEvPT_DpOT0_
FN:74,_ZSt10_ConstructINSt7__cxx1112basic_stringIcSt11char_traitsIcESaIcEEEJRKPKcEEvPT_DpOT0_
FN:74,_ZSt10_ConstructISt6vectorIN7testing8internal13edit_distance8EditTypeESaIS4_EEJRKS6_EEvPT_DpOT0_
FN:74,_ZSt10_ConstructIN7testing14TestPartResultEJS1_EEvPT_DpOT0_
FN:74,_ZSt10_ConstructINSt7__cxx1112basic_stringIcSt11char_traitsIcESaIcEEEJS5_EEvPT_DpOT0_
FN:74,_ZSt10_ConstructIN7testing8internal9TraceInfoEJS2_EEvPT_DpOT0_
FN:74,_ZSt10_ConstructINSt7__cxx1112basic_stringIcSt11char_traitsIcESaIcEEEJRKS5_EEvPT_DpOT0_
FN:74,_ZSt10_ConstructISt6vectorIdSaIdEEJRKS2_EEvPT_DpOT0_
FN:97,_ZSt8_DestroyIN7testing8internal9TraceInfoEEvPT_
FN:97,_ZSt8_DestroyIN7testing14TestPartResultEEvPT_
FN:97,_ZSt8_DestroyINSt7__cxx1112basic_stringIcSt11char_traitsIcESaIcEEEEvPT_
FN:97,_ZSt8_DestroyIN7testing12TestPropertyEEvPT_
FN:97,_ZSt8_DestroyISt6vectorIdSaIdEEEvPT_
FN:97,_ZSt8_DestroyISt6vectorIN7testing8internal13edit_distance8EditTypeESaIS4_EEEvPT_
FN:105,_ZNSt12_Destroy_auxILb0EE9__destroyIPNSt7__cxx1112basic_stringIcSt11char_traitsIcESaIcEEEEEvT_S9_
FN:105,_ZNSt12_Destroy_auxILb0EE9__destroyIPSt6vectorIdSaIdEEEEvT_S6_
FN:105,_ZNSt12_Destroy_auxILb0EE9__destroyIPN7testing14TestPartResultEEEvT_S5_
FN:105,_ZNSt12_Destroy_auxILb0EE9__destroyIPN7testing8internal9TraceInfoEEEvT_S6_
FN:105,_ZNSt12_Destroy_auxILb0EE9__destroyIPSt6vectorIN7testing8internal13edit_distance8EditTypeESaIS6_EEEEvT_SA_
FN:105,_ZNSt12_Destroy_auxILb0EE9__destroyIPN7testing12TestPropertyEEEvT_S5_
FN:117,_ZNSt12_Destroy_auxILb1EE9__destroyIPPN7testing8TestInfoEEEvT_S6_
FN:117,_ZNSt12_Destroy_auxILb1EE9__destroyIPiEEvT_S3_
FN:117,_ZNSt12_Destroy_auxILb1EE9__destroyIPmEEvT_S3_
FN:117,_ZNSt12_Destroy_auxILb1EE9__destroyIPN7testing8internal13edit_distance8EditTypeEEEvT_S7_
FN:117,_ZNSt12_Destroy_auxILb1EE9__destroyIPPN7testing8internal29ParameterizedTestCaseInfoBaseEEEvT_S7_
FN:117,_ZNSt12_Destroy_auxILb1EE9__destroyIPPN7testing17TestEventListenerEEEvT_S6_
FN:117,_ZNSt12_Destroy_auxILb1EE9__destroyIPPN7testing11EnvironmentEEEvT_S6_
FN:117,_ZNSt12_Destroy_auxILb1EE9__destroyIPdEEvT_S3_
FN:117,_ZNSt12_Destroy_auxILb1EE9__destroyIPPN7testing8TestCaseEEEvT_S6_
FN:117,_ZNSt12_Destroy_auxILb1EE9__destroyIPPcEEvT_S4_
FN:127,_ZSt8_DestroyIPPN7testing17TestEventListenerEEvT_S4_
FN:127,_ZSt8_DestroyIPiEvT_S1_
FN:127,_ZSt8_DestroyIPmEvT_S1_
FN:127,_ZSt8_DestroyIPN7testing8internal13edit_distance8EditTypeEEvT_S5_
FN:127,_ZSt8_DestroyIPN7testing8internal9TraceInfoEEvT_S4_
FN:127,_ZSt8_DestroyIPSt6vectorIdSaIdEEEvT_S4_
FN:127,_ZSt8_DestroyIPNSt7__cxx1112basic_stringIcSt11char_traitsIcESaIcEEEEvT_S7_
FN:127,_ZSt8_DestroyIPdEvT_S1_
FN:127,_ZSt8_DestroyIPPN7testing8TestCaseEEvT_S4_
FN:127,_ZSt8_DestroyIPN7testing14TestPartResultEEvT_S3_
FN:127,_ZSt8_DestroyIPPcEvT_S2_
FN:127,_ZSt8_DestroyIPN7testing12TestPropertyEEvT_S3_
FN:127,_ZSt8_DestroyIPPN7testing11EnvironmentEEvT_S4_
FN:127,_ZSt8_DestroyIPSt6vectorIN7testing8internal13edit_distance8EditTypeESaIS4_EEEvT_S8_
FN:127,_ZSt8_DestroyIPPN7testing8TestInfoEEvT_S4_
FN:127,_ZSt8_DestroyIPPN7testing8internal29ParameterizedTestCaseInfoBaseEEvT_S5_
FN:193,_ZSt8_DestroyIPPN7testing8TestCaseES2_EvT_S4_RSaIT0_E
FN:193,_ZSt8_DestroyIPiiEvT_S1_RSaIT0_E
FN:193,_ZSt8_DestroyIPPN7testing11EnvironmentES2_EvT_S4_RSaIT0_E
FN:193,_ZSt8_DestroyIPSt6vectorIdSaIdEES2_EvT_S4_RSaIT0_E
FN:193,_ZSt8_DestroyIPN7testing14TestPartResultES1_EvT_S3_RSaIT0_E
FN:193,_ZSt8_DestroyIPPN7testing17TestEventListenerES2_EvT_S4_RSaIT0_E
FN:193,_ZSt8_DestroyIPPN7testing8TestInfoES2_EvT_S4_RSaIT0_E
FN:193,_ZSt8_DestroyIPN7testing12TestPropertyES1_EvT_S3_RSaIT0_E
FN:193,_ZSt8_DestroyIPmmEvT_S1_RSaIT0_E
FN:193,_ZSt8_DestroyIPPcS0_EvT_S2_RSaIT0_E
FN:193,_ZSt8_DestroyIPSt6vectorIN7testing8internal13edit_distance8EditTypeESaIS4_EES6_EvT_S8_RSaIT0_E
FN:193,_ZSt8_DestroyIPN7testing8internal13edit_distance8EditTypeES3_EvT_S5_RSaIT0_E
FN:193,_ZSt8_DestroyIPN7testing8internal9TraceInfoES2_EvT_S4_RSaIT0_E
FN:193,_ZSt8_DestroyIPddEvT_S1_RSaIT0_E
FN:193,_ZSt8_DestroyIPNSt7__cxx1112basic_stringIcSt11char_traitsIcESaIcEEES5_EvT_S7_RSaIT0_E
FN:193,_ZSt8_DestroyIPPN7testing8internal29ParameterizedTestCaseInfoBaseES3_EvT_S5_RSaIT0_E
FNDA:0,_ZSt10_ConstructINSt7__cxx1112basic_stringIcSt11char_traitsIcESaIcEEEJRKPKcEEvPT_DpOT0_
FNDA:0,_ZSt10_ConstructINSt7__cxx1112basic_stringIcSt11char_traitsIcESaIcEEEJS5_EEvPT_DpOT0_
FNDA:0,_ZSt10_ConstructIN7testing8internal9TraceInfoEJS2_EEvPT_DpOT0_
FNDA:0,_ZSt10_ConstructIN7testing12TestPropertyEJS1_EEvPT_DpOT0_
FNDA:0,_ZSt10_ConstructIN7testing14TestPartResultEJS1_EEvPT_DpOT0_
FNDA:0,_ZSt10_ConstructISt6vectorIN7testing8internal13edit_distance8EditTypeESaIS4_EEJRKS6_EEvPT_DpOT0_
FNDA:0,_ZSt10_ConstructISt6vectorIdSaIdEEJRKS2_EEvPT_DpOT0_
FNDA:0,_ZSt10_ConstructINSt7__cxx1112basic_stringIcSt11char_traitsIcESaIcEEEJRKS5_EEvPT_DpOT0_
FNDA:0,_ZSt8_DestroyIN7testing8internal9TraceInfoEEvPT_
FNDA:0,_ZSt8_DestroyIN7testing12TestPropertyEEvPT_
FNDA:0,_ZSt8_DestroyISt6vectorIN7testing8internal13edit_distance8EditTypeESaIS4_EEEvPT_
FNDA:0,_ZSt8_DestroyISt6vectorIdSaIdEEEvPT_
FNDA:1,_ZSt8_DestroyINSt7__cxx1112basic_stringIcSt11char_traitsIcESaIcEEEEvPT_
FNDA:0,_ZSt8_DestroyIN7testing14TestPartResultEEvPT_
FNDA:0,_ZNSt12_Destroy_auxILb0EE9__destroyIPN7testing8internal9TraceInfoEEEvT_S6_
FNDA:13,_ZNSt12_Destroy_auxILb0EE9__destroyIPN7testing12TestPropertyEEEvT_S5_
FNDA:0,_ZNSt12_Destroy_auxILb0EE9__destroyIPSt6vectorIN7testing8internal13edit_distance8EditTypeESaIS6_EEEEvT_SA_
FNDA:0,_ZNSt12_Destroy_auxILb0EE9__destroyIPSt6vectorIdSaIdEEEEvT_S6_
FNDA:3,_ZNSt12_Destroy_auxILb0EE9__destroyIPNSt7__cxx1112basic_stringIcSt11char_traitsIcESaIcEEEEEvT_S9_
FNDA:13,_ZNSt12_Destroy_auxILb0EE9__destroyIPN7testing14TestPartResultEEEvT_S5_
FNDA:0,_ZNSt12_Destroy_auxILb1EE9__destroyIPPcEEvT_S4_
FNDA:4,_ZNSt12_Destroy_auxILb1EE9__destroyIPPN7testing8TestCaseEEEvT_S6_
FNDA:1,_ZNSt12_Destroy_auxILb1EE9__destroyIPPN7testing11EnvironmentEEEvT_S6_
FNDA:2,_ZNSt12_Destroy_auxILb1EE9__destroyIPPN7testing17TestEventListenerEEEvT_S6_
FNDA:10,_ZNSt12_Destroy_auxILb1EE9__destroyIPiEEvT_S3_
FNDA:6,_ZNSt12_Destroy_auxILb1EE9__destroyIPPN7testing8TestInfoEEEvT_S6_
FNDA:0,_ZNSt12_Destroy_auxILb1EE9__destroyIPmEEvT_S3_
FNDA:0,_ZNSt12_Destroy_auxILb1EE9__destroyIPN7testing8internal13edit_distance8EditTypeEEEvT_S7_
FNDA:0,_ZNSt12_Destroy_auxILb1EE9__destroyIPdEEvT_S3_
FNDA:1,_ZNSt12_Destroy_auxILb1EE9__destroyIPPN7testing8internal29ParameterizedTestCaseInfoBaseEEEvT_S7_
FNDA:0,_ZSt8_DestroyIPN7testing8internal9TraceInfoEEvT_S4_
FNDA:0,_ZSt8_DestroyIPPcEvT_S2_
FNDA:4,_ZSt8_DestroyIPPN7testing8TestCaseEEvT_S4_
FNDA:1,_ZSt8_DestroyIPPN7testing11EnvironmentEEvT_S4_
FNDA:2,_ZSt8_DestroyIPPN7testing17TestEventListenerEEvT_S4_
FNDA:10,_ZSt8_DestroyIPiEvT_S1_
FNDA:6,_ZSt8_DestroyIPPN7testing8TestInfoEEvT_S4_
FNDA:13,_ZSt8_DestroyIPN7testing12TestPropertyEEvT_S3_
FNDA:0,_ZSt8_DestroyIPmEvT_S1_
FNDA:0,_ZSt8_DestroyIPSt6vectorIN7testing8internal13edit_distance8EditTypeESaIS4_EEEvT_S8_
FNDA:0,_ZSt8_DestroyIPN7testing8internal13edit_distance8EditTypeEEvT_S5_
FNDA:0,_ZSt8_DestroyIPSt6vectorIdSaIdEEEvT_S4_
FNDA:0,_ZSt8_DestroyIPdEvT_S1_
FNDA:3,_ZSt8_DestroyIPNSt7__cxx1112basic_stringIcSt11char_traitsIcESaIcEEEEvT_S7_
FNDA:13,_ZSt8_DestroyIPN7testing14TestPartResultEEvT_S3_
FNDA:1,_ZSt8_DestroyIPPN7testing8internal29ParameterizedTestCaseInfoBaseEEvT_S5_
FNDA:0,_ZSt8_DestroyIPN7testing8internal9TraceInfoES2_EvT_S4_RSaIT0_E
FNDA:0,_ZSt8_DestroyIPPcS0_EvT_S2_RSaIT0_E
FNDA:4,_ZSt8_DestroyIPPN7testing8TestCaseES2_EvT_S4_RSaIT0_E
FNDA:1,_ZSt8_DestroyIPPN7testing11EnvironmentES2_EvT_S4_RSaIT0_E
FNDA:2,_ZSt8_DestroyIPPN7testing17TestEventListenerES2_EvT_S4_RSaIT0_E
FNDA:10,_ZSt8_DestroyIPiiEvT_S1_RSaIT0_E
FNDA:6,_ZSt8_DestroyIPPN7testing8TestInfoES2_EvT_S4_RSaIT0_E
FNDA:13,_ZSt8_DestroyIPN7testing12TestPropertyES1_EvT_S3_RSaIT0_E
FNDA:0,_ZSt8_DestroyIPmmEvT_S1_RSaIT0_E
FNDA:0,_ZSt8_DestroyIPSt6vectorIN7testing8internal13edit_distance8EditTypeESaIS4_EES6_EvT_S8_RSaIT0_E
FNDA:0,_ZSt8_DestroyIPN7testing8internal13edit_distance8EditTypeES3_EvT_S5_RSaIT0_E
FNDA:0,_ZSt8_DestroyIPSt6vectorIdSaIdEES2_EvT_S4_RSaIT0_E
FNDA:0,_ZSt8_DestroyIPddEvT_S1_RSaIT0_E
FNDA:3,_ZSt8_DestroyIPNSt7__cxx1112basic_stringIcSt11char_traitsIcESaIcEEES5_EvT_S7_RSaIT0_E
FNDA:13,_ZSt8_DestroyIPN7testing14TestPartResultES1_EvT_S3_RSaIT0_E
FNDA:1,_ZSt8_DestroyIPPN7testing8internal29ParameterizedTestCaseInfoBaseES3_EvT_S5_RSaIT0_E
FNF:62
FNH:28
DA:74,0
DA:75,0
DA:97,1
DA:98,1
DA:105,30
DA:107,31
DA:108,1
DA:109,29
DA:117,24
DA:127,53
DA:132,53
DA:133,53
DA:193,53
DA:196,53
DA:197,53
LF:15
LH:13
end_of_record
SF:/usr/local/include/c++/7.1.0/bits/stl_function.h
FN:385,_ZNKSt4lessINSt7__cxx1112basic_stringIcSt11char_traitsIcESaIcEEEEclERKS5_S8_
FN:877,_ZNKSt9_IdentityINSt7__cxx1112basic_stringIcSt11char_traitsIcESaIcEEEEclERKS5_
FN:890,_ZNKSt10_Select1stISt4pairIKNSt7__cxx1112basic_stringIcSt11char_traitsIcESaIcEEEmEEclERKS8_
FNDA:0,_ZNKSt4lessINSt7__cxx1112basic_stringIcSt11char_traitsIcESaIcEEEEclERKS5_S8_
FNDA:0,_ZNKSt9_IdentityINSt7__cxx1112basic_stringIcSt11char_traitsIcESaIcEEEEclERKS5_
FNDA:0,_ZNKSt10_Select1stISt4pairIKNSt7__cxx1112basic_stringIcSt11char_traitsIcESaIcEEEmEEclERKS8_
FNF:3
FNH:0
DA:385,0
DA:386,0
DA:877,0
DA:878,0
DA:890,0
DA:891,0
LF:6
LH:0
end_of_record
SF:/usr/local/include/c++/7.1.0/bits/stl_iterator.h
FN:132,_ZNSt16reverse_iteratorIN9__gnu_cxx17__normal_iteratorIPPN7testing11EnvironmentESt6vectorIS4_SaIS4_EEEEEC2ES9_
FN:154,_ZNKSt16reverse_iteratorIN9__gnu_cxx17__normal_iteratorIPPN7testing11EnvironmentESt6vectorIS4_SaIS4_EEEEE4baseEv
FN:168,_ZNKSt16reverse_iteratorIN9__gnu_cxx17__normal_iteratorIPPN7testing11EnvironmentESt6vectorIS4_SaIS4_EEEEEdeEv
FN:189,_ZNSt16reverse_iteratorIN9__gnu_cxx17__normal_iteratorIPPN7testing11EnvironmentESt6vectorIS4_SaIS4_EEEEEppEv
FN:299,_ZSteqIN9__gnu_cxx17__normal_iteratorIPPN7testing11EnvironmentESt6vectorIS4_SaIS4_EEEEEbRKSt16reverse_iteratorIT_ESE_
FN:311,_ZStneIN9__gnu_cxx17__normal_iteratorIPPN7testing11EnvironmentESt6vectorIS4_SaIS4_EEEEEbRKSt16reverse_iteratorIT_ESE_
FN:779,_ZN9__gnu_cxx17__normal_iteratorIPPN7testing8internal29ParameterizedTestCaseInfoBaseESt6vectorIS4_SaIS4_EEEC2ERKS5_
FN:779,_ZN9__gnu_cxx17__normal_iteratorIPKPN7testing8TestCaseESt6vectorIS3_SaIS3_EEEC2ERKS5_
FN:779,_ZN9__gnu_cxx17__normal_iteratorIPN7testing14TestPartResultESt6vectorIS2_SaIS2_EEEC2ERKS3_
FN:779,_ZN9__gnu_cxx17__normal_iteratorIPN7testing8internal13edit_distance8EditTypeESt6vectorIS4_SaIS4_EEEC2ERKS5_
FN:779,_ZN9__gnu_cxx17__normal_iteratorIPKPN7testing17TestEventListenerESt6vectorIS3_SaIS3_EEEC2ERKS5_
FN:779,_ZN9__gnu_cxx17__normal_iteratorIPPcSt6vectorIS1_SaIS1_EEEC2ERKS2_
FN:779,_ZN9__gnu_cxx17__normal_iteratorIPPN7testing8TestCaseESt6vectorIS3_SaIS3_EEEC2ERKS4_
FN:779,_ZN9__gnu_cxx17__normal_iteratorIPPN7testing17TestEventListenerESt6vectorIS3_SaIS3_EEEC2ERKS4_
FN:779,_ZN9__gnu_cxx17__normal_iteratorIPKN7testing8internal13edit_distance8EditTypeESt6vectorIS4_SaIS4_EEEC2ERKS6_
FN:779,_ZN9__gnu_cxx17__normal_iteratorIPN7testing8internal9TraceInfoESt6vectorIS3_SaIS3_EEEC2ERKS4_
FN:779,_ZN9__gnu_cxx17__normal_iteratorIPPN7testing11EnvironmentESt6vectorIS3_SaIS3_EEEC2ERKS4_
FN:779,_ZN9__gnu_cxx17__normal_iteratorIPmSt6vectorImSaImEEEC2ERKS1_
FN:779,_ZN9__gnu_cxx17__normal_iteratorIPKNSt7__cxx1112basic_stringIcSt11char_traitsIcESaIcEEESt6vectorIS6_SaIS6_EEEC2ERKS8_
FN:779,_ZN9__gnu_cxx17__normal_iteratorIPKPcSt6vectorIS1_SaIS1_EEEC2ERKS3_
FN:779,_ZN9__gnu_cxx17__normal_iteratorIPN7testing12TestPropertyESt6vectorIS2_SaIS2_EEEC2ERKS3_
FN:779,_ZN9__gnu_cxx17__normal_iteratorIPKPN7testing11EnvironmentESt6vectorIS3_SaIS3_EEEC2ERKS5_
FN:779,_ZN9__gnu_cxx17__normal_iteratorIPKdSt6vectorIdSaIdEEEC2ERKS2_
FN:779,_ZN9__gnu_cxx17__normal_iteratorIPKN7testing14TestPartResultESt6vectorIS2_SaIS2_EEEC2ERKS4_
FN:779,_ZN9__gnu_cxx17__normal_iteratorIPNSt7__cxx1112basic_stringIcSt11char_traitsIcESaIcEEESt6vectorIS6_SaIS6_EEEC2ERKS7_
FN:779,_ZN9__gnu_cxx17__normal_iteratorIPKPN7testing8TestInfoESt6vectorIS3_SaIS3_EEEC2ERKS5_
FN:779,_ZN9__gnu_cxx17__normal_iteratorIPPN7testing8TestInfoESt6vectorIS3_SaIS3_EEEC2ERKS4_
FN:779,_ZN9__gnu_cxx17__normal_iteratorIPiSt6vectorIiSaIiEEEC2ERKS1_
FN:784,_ZN9__gnu_cxx17__normal_iteratorIPKPN7testing17TestEventListenerESt6vectorIS3_SaIS3_EEEC2IPS3_EERKNS0_IT_NS_11__enable_ifIXsrSt10__are_sameISC_SB_E7__valueES8_E6__typeEEE
FN:784,_ZN9__gnu_cxx17__normal_iteratorIPKcNSt7__cxx1112basic_stringIcSt11char_traitsIcESaIcEEEEC2IPcEERKNS0_IT_NS_11__enable_ifIXsrSt10__are_sameISC_SB_E7__valueES8_E6__typeEEE
FN:784,_ZN9__gnu_cxx17__normal_iteratorIPKPN7testing8TestCaseESt6vectorIS3_SaIS3_EEEC2IPS3_EERKNS0_IT_NS_11__enable_ifIXsrSt10__are_sameISC_SB_E7__valueES8_E6__typeEEE
FN:784,_ZN9__gnu_cxx17__normal_iteratorIPKPcSt6vectorIS1_SaIS1_EEEC2IPS1_EERKNS0_IT_NS_11__enable_ifIXsrSt10__are_sameISA_S9_E7__valueES6_E6__typeEEE
FN:784,_ZN9__gnu_cxx17__normal_iteratorIPKNSt7__cxx1112basic_stringIcSt11char_traitsIcESaIcEEESt6vectorIS6_SaIS6_EEEC2IPS6_EERKNS0_IT_NS_11__enable_ifIXsrSt10__are_sameISF_SE_E7__valueESB_E6__typeEEE
FN:792,_ZNK9__gnu_cxx17__normal_iteratorIPKPN7testing8TestInfoESt6vectorIS3_SaIS3_EEEdeEv
FN:792,_ZNK9__gnu_cxx17__normal_iteratorIPKcNSt7__cxx1112basic_stringIcSt11char_traitsIcESaIcEEEEdeEv
FN:792,_ZNK9__gnu_cxx17__normal_iteratorIPcNSt7__cxx1112basic_stringIcSt11char_traitsIcESaIcEEEEdeEv
FN:792,_ZNK9__gnu_cxx17__normal_iteratorIPPN7testing8TestCaseESt6vectorIS3_SaIS3_EEEdeEv
FN:792,_ZNK9__gnu_cxx17__normal_iteratorIPPN7testing11EnvironmentESt6vectorIS3_SaIS3_EEEdeEv
FN:792,_ZNK9__gnu_cxx17__normal_iteratorIPKPN7testing8TestCaseESt6vectorIS3_SaIS3_EEEdeEv
FN:792,_ZNK9__gnu_cxx17__normal_iteratorIPKPN7testing11EnvironmentESt6vectorIS3_SaIS3_EEEdeEv
FN:792,_ZNK9__gnu_cxx17__normal_iteratorIPN7testing12TestPropertyESt6vectorIS2_SaIS2_EEEdeEv
FN:792,_ZNK9__gnu_cxx17__normal_iteratorIPKN7testing14TestPartResultESt6vectorIS2_SaIS2_EEEdeEv
FN:792,_ZNK9__gnu_cxx17__normal_iteratorIPKPN7testing17TestEventListenerESt6vectorIS3_SaIS3_EEEdeEv
FN:792,_ZNK9__gnu_cxx17__normal_iteratorIPPN7testing8internal29ParameterizedTestCaseInfoBaseESt6vectorIS4_SaIS4_EEEdeEv
FN:792,_ZNK9__gnu_cxx17__normal_iteratorIPKNSt7__cxx1112basic_stringIcSt11char_traitsIcESaIcEEESt6vectorIS6_SaIS6_EEEdeEv
FN:792,_ZNK9__gnu_cxx17__normal_iteratorIPPcSt6vectorIS1_SaIS1_EEEdeEv
FN:792,_ZNK9__gnu_cxx17__normal_iteratorIPKN7testing8internal13edit_distance8EditTypeESt6vectorIS4_SaIS4_EEEdeEv
FN:792,_ZNK9__gnu_cxx17__normal_iteratorIPN7testing8internal13edit_distance8EditTypeESt6vectorIS4_SaIS4_EEEdeEv
FN:796,_ZNK9__gnu_cxx17__normal_iteratorIPKNSt7__cxx1112basic_stringIcSt11char_traitsIcESaIcEEESt6vectorIS6_SaIS6_EEEptEv
FN:796,_ZNK9__gnu_cxx17__normal_iteratorIPN7testing12TestPropertyESt6vectorIS2_SaIS2_EEEptEv
FN:800,_ZN9__gnu_cxx17__normal_iteratorIPPN7testing8TestCaseESt6vectorIS3_SaIS3_EEEppEv
FN:800,_ZN9__gnu_cxx17__normal_iteratorIPPN7testing8internal29ParameterizedTestCaseInfoBaseESt6vectorIS4_SaIS4_EEEppEv
FN:800,_ZN9__gnu_cxx17__normal_iteratorIPKPN7testing17TestEventListenerESt6vectorIS3_SaIS3_EEEppEv
FN:800,_ZN9__gnu_cxx17__normal_iteratorIPKNSt7__cxx1112basic_stringIcSt11char_traitsIcESaIcEEESt6vectorIS6_SaIS6_EEEppEv
FN:800,_ZN9__gnu_cxx17__normal_iteratorIPKN7testing8internal13edit_distance8EditTypeESt6vectorIS4_SaIS4_EEEppEv
FN:800,_ZN9__gnu_cxx17__normal_iteratorIPKcNSt7__cxx1112basic_stringIcSt11char_traitsIcESaIcEEEEppEv
FN:800,_ZN9__gnu_cxx17__normal_iteratorIPN7testing8internal13edit_distance8EditTypeESt6vectorIS4_SaIS4_EEEppEv
FN:800,_ZN9__gnu_cxx17__normal_iteratorIPKPN7testing11EnvironmentESt6vectorIS3_SaIS3_EEEppEv
FN:800,_ZN9__gnu_cxx17__normal_iteratorIPKPN7testing8TestInfoESt6vectorIS3_SaIS3_EEEppEv
FN:800,_ZN9__gnu_cxx17__normal_iteratorIPN7testing12TestPropertyESt6vectorIS2_SaIS2_EEEppEv
FN:800,_ZN9__gnu_cxx17__normal_iteratorIPKPN7testing8TestCaseESt6vectorIS3_SaIS3_EEEppEv
FN:800,_ZN9__gnu_cxx17__normal_iteratorIPPcSt6vectorIS1_SaIS1_EEEppEv
FN:800,_ZN9__gnu_cxx17__normal_iteratorIPKN7testing14TestPartResultESt6vectorIS2_SaIS2_EEEppEv
FN:812,_ZN9__gnu_cxx17__normal_iteratorIPPN7testing11EnvironmentESt6vectorIS3_SaIS3_EEEmmEv
FN:812,_ZN9__gnu_cxx17__normal_iteratorIPcNSt7__cxx1112basic_stringIcSt11char_traitsIcESaIcEEEEmmEv
FN:812,_ZN9__gnu_cxx17__normal_iteratorIPN7testing8internal13edit_distance8EditTypeESt6vectorIS4_SaIS4_EEEmmEv
FN:832,_ZNK9__gnu_cxx17__normal_iteratorIPPN7testing8TestCaseESt6vectorIS3_SaIS3_EEEplEl
FN:832,_ZNK9__gnu_cxx17__normal_iteratorIPPN7testing17TestEventListenerESt6vectorIS3_SaIS3_EEEplEl
FN:832,_ZNK9__gnu_cxx17__normal_iteratorIPPcSt6vectorIS1_SaIS1_EEEplEl
FN:832,_ZNK9__gnu_cxx17__normal_iteratorIPKN7testing8internal13edit_distance8EditTypeESt6vectorIS4_SaIS4_EEEplEl
FN:840,_ZNK9__gnu_cxx17__normal_iteratorIPPcSt6vectorIS1_SaIS1_EEEmiEl
FN:844,_ZNK9__gnu_cxx17__normal_iteratorIPKN7testing8internal13edit_distance8EditTypeESt6vectorIS4_SaIS4_EEE4baseEv
FN:844,_ZNK9__gnu_cxx17__normal_iteratorIPKN7testing14TestPartResultESt6vectorIS2_SaIS2_EEE4baseEv
FN:844,_ZNK9__gnu_cxx17__normal_iteratorIPN7testing8internal9TraceInfoESt6vectorIS3_SaIS3_EEE4baseEv
FN:844,_ZNK9__gnu_cxx17__normal_iteratorIPKdSt6vectorIdSaIdEEE4baseEv
FN:844,_ZNK9__gnu_cxx17__normal_iteratorIPKPN7testing11EnvironmentESt6vectorIS3_SaIS3_EEE4baseEv
FN:844,_ZNK9__gnu_cxx17__normal_iteratorIPKPN7testing17TestEventListenerESt6vectorIS3_SaIS3_EEE4baseEv
FN:844,_ZNK9__gnu_cxx17__normal_iteratorIPiSt6vectorIiSaIiEEE4baseEv
FN:844,_ZNK9__gnu_cxx17__normal_iteratorIPN7testing12TestPropertyESt6vectorIS2_SaIS2_EEE4baseEv
FN:844,_ZNK9__gnu_cxx17__normal_iteratorIPKNSt7__cxx1112basic_stringIcSt11char_traitsIcESaIcEEESt6vectorIS6_SaIS6_EEE4baseEv
FN:844,_ZNK9__gnu_cxx17__normal_iteratorIPPN7testing17TestEventListenerESt6vectorIS3_SaIS3_EEE4baseEv
FN:844,_ZNK9__gnu_cxx17__normal_iteratorIPPN7testing8internal29ParameterizedTestCaseInfoBaseESt6vectorIS4_SaIS4_EEE4baseEv
FN:844,_ZNK9__gnu_cxx17__normal_iteratorIPNSt7__cxx1112basic_stringIcSt11char_traitsIcESaIcEEESt6vectorIS6_SaIS6_EEE4baseEv
FN:844,_ZNK9__gnu_cxx17__normal_iteratorIPKPN7testing8TestInfoESt6vectorIS3_SaIS3_EEE4baseEv
FN:844,_ZNK9__gnu_cxx17__normal_iteratorIPKPN7testing8TestCaseESt6vectorIS3_SaIS3_EEE4baseEv
FN:844,_ZNK9__gnu_cxx17__normal_iteratorIPmSt6vectorImSaImEEE4baseEv
FN:844,_ZNK9__gnu_cxx17__normal_iteratorIPKcNSt7__cxx1112basic_stringIcSt11char_traitsIcESaIcEEEE4baseEv
FN:844,_ZNK9__gnu_cxx17__normal_iteratorIPPN7testing11EnvironmentESt6vectorIS3_SaIS3_EEE4baseEv
FN:844,_ZNK9__gnu_cxx17__normal_iteratorIPPN7testing8TestCaseESt6vectorIS3_SaIS3_EEE4baseEv
FN:844,_ZNK9__gnu_cxx17__normal_iteratorIPPN7testing8TestInfoESt6vectorIS3_SaIS3_EEE4baseEv
FN:844,_ZNK9__gnu_cxx17__normal_iteratorIPN7testing14TestPartResultESt6vectorIS2_SaIS2_EEE4baseEv
FN:844,_ZNK9__gnu_cxx17__normal_iteratorIPN7testing8internal13edit_distance8EditTypeESt6vectorIS4_SaIS4_EEE4baseEv
FN:844,_ZNK9__gnu_cxx17__normal_iteratorIPKPcSt6vectorIS1_SaIS1_EEE4baseEv
FN:844,_ZNK9__gnu_cxx17__normal_iteratorIPPcSt6vectorIS1_SaIS1_EEE4baseEv
FN:844,_ZNK9__gnu_cxx17__normal_iteratorIPcNSt7__cxx1112basic_stringIcSt11char_traitsIcESaIcEEEE4baseEv
FN:859,_ZN9__gnu_cxxeqIPKPN7testing8TestCaseEPS3_St6vectorIS3_SaIS3_EEEEbRKNS_17__normal_iteratorIT_T1_EERKNSA_IT0_SC_EE
FN:866,_ZN9__gnu_cxxeqIPKPcSt6vectorIS1_SaIS1_EEEEbRKNS_17__normal_iteratorIT_T0_EESC_
FN:866,_ZN9__gnu_cxxeqIPPN7testing11EnvironmentESt6vectorIS3_SaIS3_EEEEbRKNS_17__normal_iteratorIT_T0_EESD_
FN:866,_ZN9__gnu_cxxeqIPN7testing12TestPropertyESt6vectorIS2_SaIS2_EEEEbRKNS_17__normal_iteratorIT_T0_EESC_
FN:866,_ZN9__gnu_cxxeqIPKN7testing8internal13edit_distance8EditTypeESt6vectorIS4_SaIS4_EEEEbRKNS_17__normal_iteratorIT_T0_EESF_
FN:866,_ZN9__gnu_cxxeqIPN7testing8internal13edit_distance8EditTypeESt6vectorIS4_SaIS4_EEEEbRKNS_17__normal_iteratorIT_T0_EESE_
FN:873,_ZN9__gnu_cxxneIPKNSt7__cxx1112basic_stringIcSt11char_traitsIcESaIcEEEPS6_St6vectorIS6_SaIS6_EEEEbRKNS_17__normal_iteratorIT_T1_EERKNSD_IT0_SF_EE
FN:873,_ZN9__gnu_cxxneIPKPN7testing8TestCaseEPS3_St6vectorIS3_SaIS3_EEEEbRKNS_17__normal_iteratorIT_T1_EERKNSA_IT0_SC_EE
FN:880,_ZN9__gnu_cxxneIPKN7testing14TestPartResultESt6vectorIS2_SaIS2_EEEEbRKNS_17__normal_iteratorIT_T0_EESD_
FN:880,_ZN9__gnu_cxxneIPKcNSt7__cxx1112basic_stringIcSt11char_traitsIcESaIcEEEEEbRKNS_17__normal_iteratorIT_T0_EESE_
FN:880,_ZN9__gnu_cxxneIPKNSt7__cxx1112basic_stringIcSt11char_traitsIcESaIcEEESt6vectorIS6_SaIS6_EEEEbRKNS_17__normal_iteratorIT_T0_EESH_
FN:880,_ZN9__gnu_cxxneIPKPN7testing8TestInfoESt6vectorIS3_SaIS3_EEEEbRKNS_17__normal_iteratorIT_T0_EESE_
FN:880,_ZN9__gnu_cxxneIPcNSt7__cxx1112basic_stringIcSt11char_traitsIcESaIcEEEEEbRKNS_17__normal_iteratorIT_T0_EESD_
FN:880,_ZN9__gnu_cxxneIPPN7testing17TestEventListenerESt6vectorIS3_SaIS3_EEEEbRKNS_17__normal_iteratorIT_T0_EESD_
FN:880,_ZN9__gnu_cxxneIPKPN7testing11EnvironmentESt6vectorIS3_SaIS3_EEEEbRKNS_17__normal_iteratorIT_T0_EESE_
FN:880,_ZN9__gnu_cxxneIPKN7testing8internal13edit_distance8EditTypeESt6vectorIS4_SaIS4_EEEEbRKNS_17__normal_iteratorIT_T0_EESF_
FN:880,_ZN9__gnu_cxxneIPPcSt6vectorIS1_SaIS1_EEEEbRKNS_17__normal_iteratorIT_T0_EESB_
FN:880,_ZN9__gnu_cxxneIPKPN7testing17TestEventListenerESt6vectorIS3_SaIS3_EEEEbRKNS_17__normal_iteratorIT_T0_EESE_
FN:880,_ZN9__gnu_cxxneIPKPN7testing8TestCaseESt6vectorIS3_SaIS3_EEEEbRKNS_17__normal_iteratorIT_T0_EESE_
FN:880,_ZN9__gnu_cxxneIPPN7testing8internal29ParameterizedTestCaseInfoBaseESt6vectorIS4_SaIS4_EEEEbRKNS_17__normal_iteratorIT_T0_EESE_
FN:895,_ZN9__gnu_cxxltIPN7testing8internal13edit_distance8EditTypeESt6vectorIS4_SaIS4_EEEEbRKNS_17__normal_iteratorIT_T0_EESE_
FN:950,_ZN9__gnu_cxxmiIPKPN7testing8TestCaseEPS3_St6vectorIS3_SaIS3_EEEEDTmicldtfp_4baseEcldtfp0_4baseEERKNS_17__normal_iteratorIT_T1_EERKNSB_IT0_SD_EE
FN:962,_ZN9__gnu_cxxmiIPN7testing14TestPartResultESt6vectorIS2_SaIS2_EEEENS_17__normal_iteratorIT_T0_E15difference_typeERKSA_SD_
FN:962,_ZN9__gnu_cxxmiIPPN7testing8TestInfoESt6vectorIS3_SaIS3_EEEENS_17__normal_iteratorIT_T0_E15difference_typeERKSB_SE_
FN:962,_ZN9__gnu_cxxmiIPNSt7__cxx1112basic_stringIcSt11char_traitsIcESaIcEEESt6vectorIS6_SaIS6_EEEENS_17__normal_iteratorIT_T0_E15difference_typeERKSE_SH_
FN:962,_ZN9__gnu_cxxmiIPKPcSt6vectorIS1_SaIS1_EEEENS_17__normal_iteratorIT_T0_E15difference_typeERKSA_SD_
FN:962,_ZN9__gnu_cxxmiIPKNSt7__cxx1112basic_stringIcSt11char_traitsIcESaIcEEESt6vectorIS6_SaIS6_EEEENS_17__normal_iteratorIT_T0_E15difference_typeERKSF_SI_
FN:962,_ZN9__gnu_cxxmiIPN7testing8internal13edit_distance8EditTypeESt6vectorIS4_SaIS4_EEEENS_17__normal_iteratorIT_T0_E15difference_typeERKSC_SF_
FN:962,_ZN9__gnu_cxxmiIPKN7testing8internal13edit_distance8EditTypeESt6vectorIS4_SaIS4_EEEENS_17__normal_iteratorIT_T0_E15difference_typeERKSD_SG_
FN:962,_ZN9__gnu_cxxmiIPPcSt6vectorIS1_SaIS1_EEEENS_17__normal_iteratorIT_T0_E15difference_typeERKS9_SC_
FN:962,_ZN9__gnu_cxxmiIPPN7testing11EnvironmentESt6vectorIS3_SaIS3_EEEENS_17__normal_iteratorIT_T0_E15difference_typeERKSB_SE_
FN:962,_ZN9__gnu_cxxmiIPPN7testing8TestCaseESt6vectorIS3_SaIS3_EEEENS_17__normal_iteratorIT_T0_E15difference_typeERKSB_SE_
FN:962,_ZN9__gnu_cxxmiIPKPN7testing8TestCaseESt6vectorIS3_SaIS3_EEEENS_17__normal_iteratorIT_T0_E15difference_typeERKSC_SF_
FN:962,_ZN9__gnu_cxxmiIPKPN7testing17TestEventListenerESt6vectorIS3_SaIS3_EEEENS_17__normal_iteratorIT_T0_E15difference_typeERKSC_SF_
FN:962,_ZN9__gnu_cxxmiIPiSt6vectorIiSaIiEEEENS_17__normal_iteratorIT_T0_E15difference_typeERKS8_SB_
FN:962,_ZN9__gnu_cxxmiIPPN7testing17TestEventListenerESt6vectorIS3_SaIS3_EEEENS_17__normal_iteratorIT_T0_E15difference_typeERKSB_SE_
FN:962,_ZN9__gnu_cxxmiIPmSt6vectorImSaImEEEENS_17__normal_iteratorIT_T0_E15difference_typeERKS8_SB_
FN:962,_ZN9__gnu_cxxmiIPN7testing8internal9TraceInfoESt6vectorIS3_SaIS3_EEEENS_17__normal_iteratorIT_T0_E15difference_typeERKSB_SE_
FN:962,_ZN9__gnu_cxxmiIPN7testing12TestPropertyESt6vectorIS2_SaIS2_EEEENS_17__normal_iteratorIT_T0_E15difference_typeERKSA_SD_
FN:983,_ZSt12__niter_baseIPKN7testing8internal13edit_distance8EditTypeESt6vectorIS3_SaIS3_EEET_N9__gnu_cxx17__normal_iteratorIS9_T0_EE
FN:983,_ZSt12__niter_baseIPKdSt6vectorIdSaIdEEET_N9__gnu_cxx17__normal_iteratorIS5_T0_EE
FN:983,_ZSt12__niter_baseIPPN7testing17TestEventListenerESt6vectorIS2_SaIS2_EEET_N9__gnu_cxx17__normal_iteratorIS7_T0_EE
FN:1036,_ZNSt13move_iteratorIPN7testing12TestPropertyEEC2ES2_
FN:1036,_ZNSt13move_iteratorIPmEC2ES0_
FN:1036,_ZNSt13move_iteratorIPN7testing8internal13edit_distance8EditTypeEEC2ES4_
FN:1036,_ZNSt13move_iteratorIPN7testing14TestPartResultEEC2ES2_
FN:1036,_ZNSt13move_iteratorIPPcEC2ES1_
FN:1036,_ZNSt13move_iteratorIPPN7testing17TestEventListenerEEC2ES3_
FN:1036,_ZNSt13move_iteratorIPiEC2ES0_
FN:1036,_ZNSt13move_iteratorIPPN7testing8TestInfoEEC2ES3_
FN:1036,_ZNSt13move_iteratorIPN7testing8internal9TraceInfoEEC2ES3_
FN:1036,_ZNSt13move_iteratorIPPN7testing11EnvironmentEEC2ES3_
FN:1036,_ZNSt13move_iteratorIPPN7testing8TestCaseEEC2ES3_
FN:1036,_ZNSt13move_iteratorIPNSt7__cxx1112basic_stringIcSt11char_traitsIcESaIcEEEEC2ES6_
FN:1045,_ZNKSt13move_iteratorIPN7testing8internal13edit_distance8EditTypeEE4baseEv
FN:1045,_ZNKSt13move_iteratorIPiE4baseEv
FN:1045,_ZNKSt13move_iteratorIPPcE4baseEv
FN:1045,_ZNKSt13move_iteratorIPPN7testing8TestCaseEE4baseEv
FN:1045,_ZNKSt13move_iteratorIPN7testing12TestPropertyEE4baseEv
FN:1045,_ZNKSt13move_iteratorIPNSt7__cxx1112basic_stringIcSt11char_traitsIcESaIcEEEE4baseEv
FN:1045,_ZNKSt13move_iteratorIPmE4baseEv
FN:1045,_ZNKSt13move_iteratorIPPN7testing17TestEventListenerEE4baseEv
FN:1045,_ZNKSt13move_iteratorIPN7testing14TestPartResultEE4baseEv
FN:1045,_ZNKSt13move_iteratorIPPN7testing8TestInfoEE4baseEv
FN:1045,_ZNKSt13move_iteratorIPN7testing8internal9TraceInfoEE4baseEv
FN:1045,_ZNKSt13move_iteratorIPPN7testing11EnvironmentEE4baseEv
FN:1049,_ZNKSt13move_iteratorIPN7testing12TestPropertyEEdeEv
FN:1049,_ZNKSt13move_iteratorIPNSt7__cxx1112basic_stringIcSt11char_traitsIcESaIcEEEEdeEv
FN:1049,_ZNKSt13move_iteratorIPN7testing14TestPartResultEEdeEv
FN:1049,_ZNKSt13move_iteratorIPN7testing8internal9TraceInfoEEdeEv
FN:1057,_ZNSt13move_iteratorIPN7testing8internal9TraceInfoEEppEv
FN:1057,_ZNSt13move_iteratorIPN7testing12TestPropertyEEppEv
FN:1057,_ZNSt13move_iteratorIPN7testing14TestPartResultEEppEv
FN:1057,_ZNSt13move_iteratorIPNSt7__cxx1112basic_stringIcSt11char_traitsIcESaIcEEEEppEv
FN:1124,_ZSteqIPN7testing12TestPropertyEEbRKSt13move_iteratorIT_ES7_
FN:1124,_ZSteqIPN7testing8internal9TraceInfoEEbRKSt13move_iteratorIT_ES8_
FN:1124,_ZSteqIPNSt7__cxx1112basic_stringIcSt11char_traitsIcESaIcEEEEbRKSt13move_iteratorIT_ESB_
FN:1124,_ZSteqIPN7testing14TestPartResultEEbRKSt13move_iteratorIT_ES7_
FN:1136,_ZStneIPN7testing12TestPropertyEEbRKSt13move_iteratorIT_ES7_
FN:1136,_ZStneIPNSt7__cxx1112basic_stringIcSt11char_traitsIcESaIcEEEEbRKSt13move_iteratorIT_ESB_
FN:1136,_ZStneIPN7testing8internal9TraceInfoEEbRKSt13move_iteratorIT_ES8_
FN:1136,_ZStneIPN7testing14TestPartResultEEbRKSt13move_iteratorIT_ES7_
FN:1221,_ZSt32__make_move_if_noexcept_iteratorIN7testing14TestPartResultESt13move_iteratorIPS1_EET0_PT_
FN:1221,_ZSt32__make_move_if_noexcept_iteratorINSt7__cxx1112basic_stringIcSt11char_traitsIcESaIcEEESt13move_iteratorIPS5_EET0_PT_
FN:1221,_ZSt32__make_move_if_noexcept_iteratorIN7testing8internal13edit_distance8EditTypeESt13move_iteratorIPS3_EET0_PT_
FN:1221,_ZSt32__make_move_if_noexcept_iteratorIPN7testing17TestEventListenerESt13move_iteratorIPS2_EET0_PT_
FN:1221,_ZSt32__make_move_if_noexcept_iteratorIPN7testing8TestCaseESt13move_iteratorIPS2_EET0_PT_
FN:1221,_ZSt32__make_move_if_noexcept_iteratorIPN7testing11EnvironmentESt13move_iteratorIPS2_EET0_PT_
FN:1221,_ZSt32__make_move_if_noexcept_iteratorIiSt13move_iteratorIPiEET0_PT_
FN:1221,_ZSt32__make_move_if_noexcept_iteratorIPN7testing8TestInfoESt13move_iteratorIPS2_EET0_PT_
FN:1221,_ZSt32__make_move_if_noexcept_iteratorIPcSt13move_iteratorIPS0_EET0_PT_
FN:1221,_ZSt32__make_move_if_noexcept_iteratorIN7testing8internal9TraceInfoESt13move_iteratorIPS2_EET0_PT_
FN:1221,_ZSt32__make_move_if_noexcept_iteratorImSt13move_iteratorIPmEET0_PT_
FN:1221,_ZSt32__make_move_if_noexcept_iteratorIN7testing12TestPropertyESt13move_iteratorIPS1_EET0_PT_
FN:1241,_ZSt12__miter_baseIPPN7testing8TestCaseEEDTcl12__miter_basecldtfp_4baseEEESt13move_iteratorIT_E
FN:1241,_ZSt12__miter_baseIPPcEDTcl12__miter_basecldtfp_4baseEEESt13move_iteratorIT_E
FN:1241,_ZSt12__miter_baseIPiEDTcl12__miter_basecldtfp_4baseEEESt13move_iteratorIT_E
FN:1241,_ZSt12__miter_baseIPmEDTcl12__miter_basecldtfp_4baseEEESt13move_iteratorIT_E
FN:1241,_ZSt12__miter_baseIPPN7testing8TestInfoEEDTcl12__miter_basecldtfp_4baseEEESt13move_iteratorIT_E
FN:1241,_ZSt12__miter_baseIPN7testing8internal13edit_distance8EditTypeEEDTcl12__miter_basecldtfp_4baseEEESt13move_iteratorIT_E
FN:1241,_ZSt12__miter_baseIPPN7testing17TestEventListenerEEDTcl12__miter_basecldtfp_4baseEEESt13move_iteratorIT_E
FN:1241,_ZSt12__miter_baseIPPN7testing11EnvironmentEEDTcl12__miter_basecldtfp_4baseEEESt13move_iteratorIT_E
FNDA:2,_ZNSt16reverse_iteratorIN9__gnu_cxx17__normal_iteratorIPPN7testing11EnvironmentESt6vectorIS4_SaIS4_EEEEEC2ES9_
FNDA:2,_ZNKSt16reverse_iteratorIN9__gnu_cxx17__normal_iteratorIPPN7testing11EnvironmentESt6vectorIS4_SaIS4_EEEEE4baseEv
FNDA:0,_ZNKSt16reverse_iteratorIN9__gnu_cxx17__normal_iteratorIPPN7testing11EnvironmentESt6vectorIS4_SaIS4_EEEEEdeEv
FNDA:0,_ZNSt16reverse_iteratorIN9__gnu_cxx17__normal_iteratorIPPN7testing11EnvironmentESt6vectorIS4_SaIS4_EEEEEppEv
FNDA:1,_ZSteqIN9__gnu_cxx17__normal_iteratorIPPN7testing11EnvironmentESt6vectorIS4_SaIS4_EEEEEbRKSt16reverse_iteratorIT_ESE_
FNDA:1,_ZStneIN9__gnu_cxx17__normal_iteratorIPPN7testing11EnvironmentESt6vectorIS4_SaIS4_EEEEEbRKSt16reverse_iteratorIT_ESE_
FNDA:0,_ZN9__gnu_cxx17__normal_iteratorIPKdSt6vectorIdSaIdEEEC2ERKS2_
FNDA:0,_ZN9__gnu_cxx17__normal_iteratorIPKPcSt6vectorIS1_SaIS1_EEEC2ERKS3_
FNDA:12,_ZN9__gnu_cxx17__normal_iteratorIPiSt6vectorIiSaIiEEEC2ERKS1_
FNDA:0,_ZN9__gnu_cxx17__normal_iteratorIPmSt6vectorImSaImEEEC2ERKS1_
FNDA:4,_ZN9__gnu_cxx17__normal_iteratorIPKPN7testing11EnvironmentESt6vectorIS3_SaIS3_EEEC2ERKS5_
FNDA:0,_ZN9__gnu_cxx17__normal_iteratorIPN7testing8internal9TraceInfoESt6vectorIS3_SaIS3_EEEC2ERKS4_
FNDA:2,_ZN9__gnu_cxx17__normal_iteratorIPPN7testing11EnvironmentESt6vectorIS3_SaIS3_EEEC2ERKS4_
FNDA:2,_ZN9__gnu_cxx17__normal_iteratorIPKPN7testing17TestEventListenerESt6vectorIS3_SaIS3_EEEC2ERKS5_
FNDA:6,_ZN9__gnu_cxx17__normal_iteratorIPPN7testing8TestInfoESt6vectorIS3_SaIS3_EEEC2ERKS4_
FNDA:93,_ZN9__gnu_cxx17__normal_iteratorIPKPN7testing8TestInfoESt6vectorIS3_SaIS3_EEEC2ERKS5_
FNDA:14,_ZN9__gnu_cxx17__normal_iteratorIPKN7testing14TestPartResultESt6vectorIS2_SaIS2_EEEC2ERKS4_
FNDA:0,_ZN9__gnu_cxx17__normal_iteratorIPN7testing14TestPartResultESt6vectorIS2_SaIS2_EEEC2ERKS3_
FNDA:24,_ZN9__gnu_cxx17__normal_iteratorIPKPN7testing8TestCaseESt6vectorIS3_SaIS3_EEEC2ERKS5_
FNDA:2,_ZN9__gnu_cxx17__normal_iteratorIPNSt7__cxx1112basic_stringIcSt11char_traitsIcESaIcEEESt6vectorIS6_SaIS6_EEEC2ERKS7_
FNDA:0,_ZN9__gnu_cxx17__normal_iteratorIPPcSt6vectorIS1_SaIS1_EEEC2ERKS2_
FNDA:15,_ZN9__gnu_cxx17__normal_iteratorIPPN7testing8TestCaseESt6vectorIS3_SaIS3_EEEC2ERKS4_
FNDA:2,_ZN9__gnu_cxx17__normal_iteratorIPPN7testing17TestEventListenerESt6vectorIS3_SaIS3_EEEC2ERKS4_
FNDA:0,_ZN9__gnu_cxx17__normal_iteratorIPKNSt7__cxx1112basic_stringIcSt11char_traitsIcESaIcEEESt6vectorIS6_SaIS6_EEEC2ERKS8_
FNDA:0,_ZN9__gnu_cxx17__normal_iteratorIPN7testing12TestPropertyESt6vectorIS2_SaIS2_EEEC2ERKS3_
FNDA:0,_ZN9__gnu_cxx17__normal_iteratorIPKN7testing8internal13edit_distance8EditTypeESt6vectorIS4_SaIS4_EEEC2ERKS6_
FNDA:0,_ZN9__gnu_cxx17__normal_iteratorIPN7testing8internal13edit_distance8EditTypeESt6vectorIS4_SaIS4_EEEC2ERKS5_
FNDA:4,_ZN9__gnu_cxx17__normal_iteratorIPPN7testing8internal29ParameterizedTestCaseInfoBaseESt6vectorIS4_SaIS4_EEEC2ERKS5_
FNDA:0,_ZN9__gnu_cxx17__normal_iteratorIPKNSt7__cxx1112basic_stringIcSt11char_traitsIcESaIcEEESt6vectorIS6_SaIS6_EEEC2IPS6_EERKNS0_IT_NS_11__enable_ifIXsrSt10__are_sameISF_SE_E7__valueESB_E6__typeEEE
FNDA:0,_ZN9__gnu_cxx17__normal_iteratorIPKPcSt6vectorIS1_SaIS1_EEEC2IPS1_EERKNS0_IT_NS_11__enable_ifIXsrSt10__are_sameISA_S9_E7__valueES6_E6__typeEEE
FNDA:3,_ZN9__gnu_cxx17__normal_iteratorIPKPN7testing8TestCaseESt6vectorIS3_SaIS3_EEEC2IPS3_EERKNS0_IT_NS_11__enable_ifIXsrSt10__are_sameISC_SB_E7__valueES8_E6__typeEEE
FNDA:0,_ZN9__gnu_cxx17__normal_iteratorIPKPN7testing17TestEventListenerESt6vectorIS3_SaIS3_EEEC2IPS3_EERKNS0_IT_NS_11__enable_ifIXsrSt10__are_sameISC_SB_E7__valueES8_E6__typeEEE
FNDA:0,_ZN9__gnu_cxx17__normal_iteratorIPKcNSt7__cxx1112basic_stringIcSt11char_traitsIcESaIcEEEEC2IPcEERKNS0_IT_NS_11__enable_ifIXsrSt10__are_sameISC_SB_E7__valueES8_E6__typeEEE
FNDA:0,_ZNK9__gnu_cxx17__normal_iteratorIPN7testing12TestPropertyESt6vectorIS2_SaIS2_EEEdeEv
FNDA:0,_ZNK9__gnu_cxx17__normal_iteratorIPN7testing8internal13edit_distance8EditTypeESt6vectorIS4_SaIS4_EEEdeEv
FNDA:0,_ZNK9__gnu_cxx17__normal_iteratorIPPN7testing11EnvironmentESt6vectorIS3_SaIS3_EEEdeEv
FNDA:3,_ZNK9__gnu_cxx17__normal_iteratorIPPN7testing8TestCaseESt6vectorIS3_SaIS3_EEEdeEv
FNDA:0,_ZNK9__gnu_cxx17__normal_iteratorIPKPN7testing11EnvironmentESt6vectorIS3_SaIS3_EEEdeEv
FNDA:1,_ZNK9__gnu_cxx17__normal_iteratorIPKPN7testing17TestEventListenerESt6vectorIS3_SaIS3_EEEdeEv
FNDA:33,_ZNK9__gnu_cxx17__normal_iteratorIPKPN7testing8TestInfoESt6vectorIS3_SaIS3_EEEdeEv
FNDA:0,_ZNK9__gnu_cxx17__normal_iteratorIPKN7testing14TestPartResultESt6vectorIS2_SaIS2_EEEdeEv
FNDA:0,_ZNK9__gnu_cxx17__normal_iteratorIPKNSt7__cxx1112basic_stringIcSt11char_traitsIcESaIcEEESt6vectorIS6_SaIS6_EEEdeEv
FNDA:0,_ZNK9__gnu_cxx17__normal_iteratorIPPcSt6vectorIS1_SaIS1_EEEdeEv
FNDA:18,_ZNK9__gnu_cxx17__normal_iteratorIPKPN7testing8TestCaseESt6vectorIS3_SaIS3_EEEdeEv
FNDA:0,_ZNK9__gnu_cxx17__normal_iteratorIPKcNSt7__cxx1112basic_stringIcSt11char_traitsIcESaIcEEEEdeEv
FNDA:0,_ZNK9__gnu_cxx17__normal_iteratorIPKN7testing8internal13edit_distance8EditTypeESt6vectorIS4_SaIS4_EEEdeEv
FNDA:0,_ZNK9__gnu_cxx17__normal_iteratorIPPN7testing8internal29ParameterizedTestCaseInfoBaseESt6vectorIS4_SaIS4_EEEdeEv
FNDA:0,_ZNK9__gnu_cxx17__normal_iteratorIPcNSt7__cxx1112basic_stringIcSt11char_traitsIcESaIcEEEEdeEv
FNDA:0,_ZNK9__gnu_cxx17__normal_iteratorIPKNSt7__cxx1112basic_stringIcSt11char_traitsIcESaIcEEESt6vectorIS6_SaIS6_EEEptEv
FNDA:0,_ZNK9__gnu_cxx17__normal_iteratorIPN7testing12TestPropertyESt6vectorIS2_SaIS2_EEEptEv
FNDA:3,_ZN9__gnu_cxx17__normal_iteratorIPPN7testing8TestCaseESt6vectorIS3_SaIS3_EEEppEv
FNDA:0,_ZN9__gnu_cxx17__normal_iteratorIPN7testing12TestPropertyESt6vectorIS2_SaIS2_EEEppEv
FNDA:0,_ZN9__gnu_cxx17__normal_iteratorIPKPN7testing11EnvironmentESt6vectorIS3_SaIS3_EEEppEv
FNDA:1,_ZN9__gnu_cxx17__normal_iteratorIPKPN7testing17TestEventListenerESt6vectorIS3_SaIS3_EEEppEv
FNDA:0,_ZN9__gnu_cxx17__normal_iteratorIPN7testing8internal13edit_distance8EditTypeESt6vectorIS4_SaIS4_EEEppEv
FNDA:33,_ZN9__gnu_cxx17__normal_iteratorIPKPN7testing8TestInfoESt6vectorIS3_SaIS3_EEEppEv
FNDA:0,_ZN9__gnu_cxx17__normal_iteratorIPKN7testing14TestPartResultESt6vectorIS2_SaIS2_EEEppEv
FNDA:18,_ZN9__gnu_cxx17__normal_iteratorIPKPN7testing8TestCaseESt6vectorIS3_SaIS3_EEEppEv
FNDA:0,_ZN9__gnu_cxx17__normal_iteratorIPKNSt7__cxx1112basic_stringIcSt11char_traitsIcESaIcEEESt6vectorIS6_SaIS6_EEEppEv
FNDA:0,_ZN9__gnu_cxx17__normal_iteratorIPPcSt6vectorIS1_SaIS1_EEEppEv
FNDA:0,_ZN9__gnu_cxx17__normal_iteratorIPKcNSt7__cxx1112basic_stringIcSt11char_traitsIcESaIcEEEEppEv
FNDA:0,_ZN9__gnu_cxx17__normal_iteratorIPKN7testing8internal13edit_distance8EditTypeESt6vectorIS4_SaIS4_EEEppEv
FNDA:0,_ZN9__gnu_cxx17__normal_iteratorIPPN7testing8internal29ParameterizedTestCaseInfoBaseESt6vectorIS4_SaIS4_EEEppEv
FNDA:0,_ZN9__gnu_cxx17__normal_iteratorIPPN7testing11EnvironmentESt6vectorIS3_SaIS3_EEEmmEv
FNDA:0,_ZN9__gnu_cxx17__normal_iteratorIPN7testing8internal13edit_distance8EditTypeESt6vectorIS4_SaIS4_EEEmmEv
FNDA:0,_ZN9__gnu_cxx17__normal_iteratorIPcNSt7__cxx1112basic_stringIcSt11char_traitsIcESaIcEEEEmmEv
FNDA:0,_ZNK9__gnu_cxx17__normal_iteratorIPPcSt6vectorIS1_SaIS1_EEEplEl
FNDA:0,_ZNK9__gnu_cxx17__normal_iteratorIPPN7testing8TestCaseESt6vectorIS3_SaIS3_EEEplEl
FNDA:0,_ZNK9__gnu_cxx17__normal_iteratorIPPN7testing17TestEventListenerESt6vectorIS3_SaIS3_EEEplEl
FNDA:0,_ZNK9__gnu_cxx17__normal_iteratorIPKN7testing8internal13edit_distance8EditTypeESt6vectorIS4_SaIS4_EEEplEl
FNDA:0,_ZNK9__gnu_cxx17__normal_iteratorIPPcSt6vectorIS1_SaIS1_EEEmiEl
FNDA:0,_ZNK9__gnu_cxx17__normal_iteratorIPKdSt6vectorIdSaIdEEE4baseEv
FNDA:0,_ZNK9__gnu_cxx17__normal_iteratorIPKPcSt6vectorIS1_SaIS1_EEE4baseEv
FNDA:4,_ZNK9__gnu_cxx17__normal_iteratorIPKPN7testing11EnvironmentESt6vectorIS3_SaIS3_EEE4baseEv
FNDA:24,_ZNK9__gnu_cxx17__normal_iteratorIPiSt6vectorIiSaIiEEE4baseEv
FNDA:0,_ZNK9__gnu_cxx17__normal_iteratorIPmSt6vectorImSaImEEE4baseEv
FNDA:0,_ZNK9__gnu_cxx17__normal_iteratorIPN7testing8internal9TraceInfoESt6vectorIS3_SaIS3_EEE4baseEv
FNDA:2,_ZNK9__gnu_cxx17__normal_iteratorIPPN7testing11EnvironmentESt6vectorIS3_SaIS3_EEE4baseEv
FNDA:4,_ZNK9__gnu_cxx17__normal_iteratorIPKPN7testing17TestEventListenerESt6vectorIS3_SaIS3_EEE4baseEv
FNDA:12,_ZNK9__gnu_cxx17__normal_iteratorIPPN7testing8TestInfoESt6vectorIS3_SaIS3_EEE4baseEv
FNDA:132,_ZNK9__gnu_cxx17__normal_iteratorIPKPN7testing8TestInfoESt6vectorIS3_SaIS3_EEE4baseEv
FNDA:14,_ZNK9__gnu_cxx17__normal_iteratorIPKN7testing14TestPartResultESt6vectorIS2_SaIS2_EEE4baseEv
FNDA:0,_ZNK9__gnu_cxx17__normal_iteratorIPN7testing14TestPartResultESt6vectorIS2_SaIS2_EEE4baseEv
FNDA:0,_ZNK9__gnu_cxx17__normal_iteratorIPN7testing8internal13edit_distance8EditTypeESt6vectorIS4_SaIS4_EEE4baseEv
FNDA:4,_ZNK9__gnu_cxx17__normal_iteratorIPNSt7__cxx1112basic_stringIcSt11char_traitsIcESaIcEEESt6vectorIS6_SaIS6_EEE4baseEv
FNDA:0,_ZNK9__gnu_cxx17__normal_iteratorIPPcSt6vectorIS1_SaIS1_EEE4baseEv
FNDA:51,_ZNK9__gnu_cxx17__normal_iteratorIPKPN7testing8TestCaseESt6vectorIS3_SaIS3_EEE4baseEv
FNDA:30,_ZNK9__gnu_cxx17__normal_iteratorIPPN7testing8TestCaseESt6vectorIS3_SaIS3_EEE4baseEv
FNDA:0,_ZNK9__gnu_cxx17__normal_iteratorIPKcNSt7__cxx1112basic_stringIcSt11char_traitsIcESaIcEEEE4baseEv
FNDA:4,_ZNK9__gnu_cxx17__normal_iteratorIPPN7testing17TestEventListenerESt6vectorIS3_SaIS3_EEE4baseEv
FNDA:0,_ZNK9__gnu_cxx17__normal_iteratorIPKNSt7__cxx1112basic_stringIcSt11char_traitsIcESaIcEEESt6vectorIS6_SaIS6_EEE4baseEv
FNDA:0,_ZNK9__gnu_cxx17__normal_iteratorIPN7testing12TestPropertyESt6vectorIS2_SaIS2_EEE4baseEv
FNDA:0,_ZNK9__gnu_cxx17__normal_iteratorIPKN7testing8internal13edit_distance8EditTypeESt6vectorIS4_SaIS4_EEE4baseEv
FNDA:4,_ZNK9__gnu_cxx17__normal_iteratorIPPN7testing8internal29ParameterizedTestCaseInfoBaseESt6vectorIS4_SaIS4_EEE4baseEv
FNDA:0,_ZNK9__gnu_cxx17__normal_iteratorIPcNSt7__cxx1112basic_stringIcSt11char_traitsIcESaIcEEEE4baseEv
FNDA:0,_ZN9__gnu_cxxeqIPKPN7testing8TestCaseEPS3_St6vectorIS3_SaIS3_EEEEbRKNS_17__normal_iteratorIT_T1_EERKNSA_IT0_SC_EE
FNDA:1,_ZN9__gnu_cxxeqIPPN7testing11EnvironmentESt6vectorIS3_SaIS3_EEEEbRKNS_17__normal_iteratorIT_T0_EESD_
FNDA:0,_ZN9__gnu_cxxeqIPKPcSt6vectorIS1_SaIS1_EEEEbRKNS_17__normal_iteratorIT_T0_EESC_
FNDA:0,_ZN9__gnu_cxxeqIPN7testing8internal13edit_distance8EditTypeESt6vectorIS4_SaIS4_EEEEbRKNS_17__normal_iteratorIT_T0_EESE_
FNDA:0,_ZN9__gnu_cxxeqIPN7testing12TestPropertyESt6vectorIS2_SaIS2_EEEEbRKNS_17__normal_iteratorIT_T0_EESC_
FNDA:0,_ZN9__gnu_cxxeqIPKN7testing8internal13edit_distance8EditTypeESt6vectorIS4_SaIS4_EEEEbRKNS_17__normal_iteratorIT_T0_EESF_
FNDA:0,_ZN9__gnu_cxxneIPKNSt7__cxx1112basic_stringIcSt11char_traitsIcESaIcEEEPS6_St6vectorIS6_SaIS6_EEEEbRKNS_17__normal_iteratorIT_T1_EERKNSD_IT0_SF_EE
FNDA:3,_ZN9__gnu_cxxneIPKPN7testing8TestCaseEPS3_St6vectorIS3_SaIS3_EEEEbRKNS_17__normal_iteratorIT_T1_EERKNSA_IT0_SC_EE
FNDA:2,_ZN9__gnu_cxxneIPKPN7testing11EnvironmentESt6vectorIS3_SaIS3_EEEEbRKNS_17__normal_iteratorIT_T0_EESE_
FNDA:0,_ZN9__gnu_cxxneIPPN7testing17TestEventListenerESt6vectorIS3_SaIS3_EEEEbRKNS_17__normal_iteratorIT_T0_EESD_
FNDA:2,_ZN9__gnu_cxxneIPKPN7testing17TestEventListenerESt6vectorIS3_SaIS3_EEEEbRKNS_17__normal_iteratorIT_T0_EESE_
FNDA:66,_ZN9__gnu_cxxneIPKPN7testing8TestInfoESt6vectorIS3_SaIS3_EEEEbRKNS_17__normal_iteratorIT_T0_EESE_
FNDA:7,_ZN9__gnu_cxxneIPKN7testing14TestPartResultESt6vectorIS2_SaIS2_EEEEbRKNS_17__normal_iteratorIT_T0_EESD_
FNDA:24,_ZN9__gnu_cxxneIPKPN7testing8TestCaseESt6vectorIS3_SaIS3_EEEEbRKNS_17__normal_iteratorIT_T0_EESE_
FNDA:0,_ZN9__gnu_cxxneIPPcSt6vectorIS1_SaIS1_EEEEbRKNS_17__normal_iteratorIT_T0_EESB_
FNDA:0,_ZN9__gnu_cxxneIPKcNSt7__cxx1112basic_stringIcSt11char_traitsIcESaIcEEEEEbRKNS_17__normal_iteratorIT_T0_EESE_
FNDA:0,_ZN9__gnu_cxxneIPKNSt7__cxx1112basic_stringIcSt11char_traitsIcESaIcEEESt6vectorIS6_SaIS6_EEEEbRKNS_17__normal_iteratorIT_T0_EESH_
FNDA:0,_ZN9__gnu_cxxneIPKN7testing8internal13edit_distance8EditTypeESt6vectorIS4_SaIS4_EEEEbRKNS_17__normal_iteratorIT_T0_EESF_
FNDA:2,_ZN9__gnu_cxxneIPPN7testing8internal29ParameterizedTestCaseInfoBaseESt6vectorIS4_SaIS4_EEEEbRKNS_17__normal_iteratorIT_T0_EESE_
FNDA:0,_ZN9__gnu_cxxneIPcNSt7__cxx1112basic_stringIcSt11char_traitsIcESaIcEEEEEbRKNS_17__normal_iteratorIT_T0_EESD_
FNDA:0,_ZN9__gnu_cxxltIPN7testing8internal13edit_distance8EditTypeESt6vectorIS4_SaIS4_EEEEbRKNS_17__normal_iteratorIT_T0_EESE_
FNDA:0,_ZN9__gnu_cxxmiIPKPN7testing8TestCaseEPS3_St6vectorIS3_SaIS3_EEEEDTmicldtfp_4baseEcldtfp0_4baseEERKNS_17__normal_iteratorIT_T1_EERKNSB_IT0_SD_EE
FNDA:0,_ZN9__gnu_cxxmiIPPcSt6vectorIS1_SaIS1_EEEENS_17__normal_iteratorIT_T0_E15difference_typeERKS9_SC_
FNDA:6,_ZN9__gnu_cxxmiIPiSt6vectorIiSaIiEEEENS_17__normal_iteratorIT_T0_E15difference_typeERKS8_SB_
FNDA:0,_ZN9__gnu_cxxmiIPKNSt7__cxx1112basic_stringIcSt11char_traitsIcESaIcEEESt6vectorIS6_SaIS6_EEEENS_17__normal_iteratorIT_T0_E15difference_typeERKSF_SI_
FNDA:0,_ZN9__gnu_cxxmiIPmSt6vectorImSaImEEEENS_17__normal_iteratorIT_T0_E15difference_typeERKS8_SB_
FNDA:1,_ZN9__gnu_cxxmiIPNSt7__cxx1112basic_stringIcSt11char_traitsIcESaIcEEESt6vectorIS6_SaIS6_EEEENS_17__normal_iteratorIT_T0_E15difference_typeERKSE_SH_
FNDA:0,_ZN9__gnu_cxxmiIPKPcSt6vectorIS1_SaIS1_EEEENS_17__normal_iteratorIT_T0_E15difference_typeERKSA_SD_
FNDA:9,_ZN9__gnu_cxxmiIPPN7testing8TestCaseESt6vectorIS3_SaIS3_EEEENS_17__normal_iteratorIT_T0_E15difference_typeERKSB_SE_
FNDA:0,_ZN9__gnu_cxxmiIPN7testing8internal9TraceInfoESt6vectorIS3_SaIS3_EEEENS_17__normal_iteratorIT_T0_E15difference_typeERKSB_SE_
FNDA:0,_ZN9__gnu_cxxmiIPPN7testing11EnvironmentESt6vectorIS3_SaIS3_EEEENS_17__normal_iteratorIT_T0_E15difference_typeERKSB_SE_
FNDA:1,_ZN9__gnu_cxxmiIPPN7testing17TestEventListenerESt6vectorIS3_SaIS3_EEEENS_17__normal_iteratorIT_T0_E15difference_typeERKSB_SE_
FNDA:3,_ZN9__gnu_cxxmiIPPN7testing8TestInfoESt6vectorIS3_SaIS3_EEEENS_17__normal_iteratorIT_T0_E15difference_typeERKSB_SE_
FNDA:0,_ZN9__gnu_cxxmiIPN7testing12TestPropertyESt6vectorIS2_SaIS2_EEEENS_17__normal_iteratorIT_T0_E15difference_typeERKSA_SD_
FNDA:0,_ZN9__gnu_cxxmiIPN7testing14TestPartResultESt6vectorIS2_SaIS2_EEEENS_17__normal_iteratorIT_T0_E15difference_typeERKSA_SD_
FNDA:0,_ZN9__gnu_cxxmiIPN7testing8internal13edit_distance8EditTypeESt6vectorIS4_SaIS4_EEEENS_17__normal_iteratorIT_T0_E15difference_typeERKSC_SF_
FNDA:0,_ZN9__gnu_cxxmiIPKPN7testing8TestCaseESt6vectorIS3_SaIS3_EEEENS_17__normal_iteratorIT_T0_E15difference_typeERKSC_SF_
FNDA:0,_ZN9__gnu_cxxmiIPKPN7testing17TestEventListenerESt6vectorIS3_SaIS3_EEEENS_17__normal_iteratorIT_T0_E15difference_typeERKSC_SF_
FNDA:0,_ZN9__gnu_cxxmiIPKN7testing8internal13edit_distance8EditTypeESt6vectorIS4_SaIS4_EEEENS_17__normal_iteratorIT_T0_E15difference_typeERKSD_SG_
FNDA:0,_ZSt12__niter_baseIPKN7testing8internal13edit_distance8EditTypeESt6vectorIS3_SaIS3_EEET_N9__gnu_cxx17__normal_iteratorIS9_T0_EE
FNDA:0,_ZSt12__niter_baseIPKdSt6vectorIdSaIdEEET_N9__gnu_cxx17__normal_iteratorIS5_T0_EE
FNDA:0,_ZSt12__niter_baseIPPN7testing17TestEventListenerESt6vectorIS2_SaIS2_EEET_N9__gnu_cxx17__normal_iteratorIS7_T0_EE
FNDA:0,_ZNSt13move_iteratorIPPcEC2ES1_
FNDA:24,_ZNSt13move_iteratorIPiEC2ES0_
FNDA:0,_ZNSt13move_iteratorIPmEC2ES0_
FNDA:4,_ZNSt13move_iteratorIPNSt7__cxx1112basic_stringIcSt11char_traitsIcESaIcEEEEC2ES6_
FNDA:12,_ZNSt13move_iteratorIPPN7testing8TestCaseEEC2ES3_
FNDA:0,_ZNSt13move_iteratorIPN7testing8internal9TraceInfoEEC2ES3_
FNDA:0,_ZNSt13move_iteratorIPPN7testing11EnvironmentEEC2ES3_
FNDA:4,_ZNSt13move_iteratorIPPN7testing17TestEventListenerEEC2ES3_
FNDA:12,_ZNSt13move_iteratorIPPN7testing8TestInfoEEC2ES3_
FNDA:0,_ZNSt13move_iteratorIPN7testing12TestPropertyEEC2ES2_
FNDA:0,_ZNSt13move_iteratorIPN7testing14TestPartResultEEC2ES2_
FNDA:0,_ZNSt13move_iteratorIPN7testing8internal13edit_distance8EditTypeEEC2ES4_
FNDA:0,_ZNKSt13move_iteratorIPPcE4baseEv
FNDA:24,_ZNKSt13move_iteratorIPiE4baseEv
FNDA:0,_ZNKSt13move_iteratorIPmE4baseEv
FNDA:4,_ZNKSt13move_iteratorIPNSt7__cxx1112basic_stringIcSt11char_traitsIcESaIcEEEE4baseEv
FNDA:12,_ZNKSt13move_iteratorIPPN7testing8TestCaseEE4baseEv
FNDA:0,_ZNKSt13move_iteratorIPN7testing8internal9TraceInfoEE4baseEv
FNDA:0,_ZNKSt13move_iteratorIPPN7testing11EnvironmentEE4baseEv
FNDA:4,_ZNKSt13move_iteratorIPPN7testing17TestEventListenerEE4baseEv
FNDA:12,_ZNKSt13move_iteratorIPPN7testing8TestInfoEE4baseEv
FNDA:0,_ZNKSt13move_iteratorIPN7testing12TestPropertyEE4baseEv
FNDA:0,_ZNKSt13move_iteratorIPN7testing14TestPartResultEE4baseEv
FNDA:0,_ZNKSt13move_iteratorIPN7testing8internal13edit_distance8EditTypeEE4baseEv
FNDA:0,_ZNKSt13move_iteratorIPNSt7__cxx1112basic_stringIcSt11char_traitsIcESaIcEEEEdeEv
FNDA:0,_ZNKSt13move_iteratorIPN7testing8internal9TraceInfoEEdeEv
FNDA:0,_ZNKSt13move_iteratorIPN7testing12TestPropertyEEdeEv
FNDA:0,_ZNKSt13move_iteratorIPN7testing14TestPartResultEEdeEv
FNDA:0,_ZNSt13move_iteratorIPNSt7__cxx1112basic_stringIcSt11char_traitsIcESaIcEEEEppEv
FNDA:0,_ZNSt13move_iteratorIPN7testing8internal9TraceInfoEEppEv
FNDA:0,_ZNSt13move_iteratorIPN7testing12TestPropertyEEppEv
FNDA:0,_ZNSt13move_iteratorIPN7testing14TestPartResultEEppEv
FNDA:2,_ZSteqIPNSt7__cxx1112basic_stringIcSt11char_traitsIcESaIcEEEEbRKSt13move_iteratorIT_ESB_
FNDA:0,_ZSteqIPN7testing8internal9TraceInfoEEbRKSt13move_iteratorIT_ES8_
FNDA:0,_ZSteqIPN7testing12TestPropertyEEbRKSt13move_iteratorIT_ES7_
FNDA:0,_ZSteqIPN7testing14TestPartResultEEbRKSt13move_iteratorIT_ES7_
FNDA:2,_ZStneIPNSt7__cxx1112basic_stringIcSt11char_traitsIcESaIcEEEEbRKSt13move_iteratorIT_ESB_
FNDA:0,_ZStneIPN7testing8internal9TraceInfoEEbRKSt13move_iteratorIT_ES8_
FNDA:0,_ZStneIPN7testing12TestPropertyEEbRKSt13move_iteratorIT_ES7_
FNDA:0,_ZStneIPN7testing14TestPartResultEEbRKSt13move_iteratorIT_ES7_
FNDA:0,_ZSt32__make_move_if_noexcept_iteratorIPcSt13move_iteratorIPS0_EET0_PT_
FNDA:24,_ZSt32__make_move_if_noexcept_iteratorIiSt13move_iteratorIPiEET0_PT_
FNDA:0,_ZSt32__make_move_if_noexcept_iteratorImSt13move_iteratorIPmEET0_PT_
FNDA:4,_ZSt32__make_move_if_noexcept_iteratorINSt7__cxx1112basic_stringIcSt11char_traitsIcESaIcEEESt13move_iteratorIPS5_EET0_PT_
FNDA:12,_ZSt32__make_move_if_noexcept_iteratorIPN7testing8TestCaseESt13move_iteratorIPS2_EET0_PT_
FNDA:0,_ZSt32__make_move_if_noexcept_iteratorIN7testing8internal9TraceInfoESt13move_iteratorIPS2_EET0_PT_
FNDA:0,_ZSt32__make_move_if_noexcept_iteratorIPN7testing11EnvironmentESt13move_iteratorIPS2_EET0_PT_
FNDA:4,_ZSt32__make_move_if_noexcept_iteratorIPN7testing17TestEventListenerESt13move_iteratorIPS2_EET0_PT_
FNDA:12,_ZSt32__make_move_if_noexcept_iteratorIPN7testing8TestInfoESt13move_iteratorIPS2_EET0_PT_
FNDA:0,_ZSt32__make_move_if_noexcept_iteratorIN7testing12TestPropertyESt13move_iteratorIPS1_EET0_PT_
FNDA:0,_ZSt32__make_move_if_noexcept_iteratorIN7testing14TestPartResultESt13move_iteratorIPS1_EET0_PT_
FNDA:0,_ZSt32__make_move_if_noexcept_iteratorIN7testing8internal13edit_distance8EditTypeESt13move_iteratorIPS3_EET0_PT_
FNDA:0,_ZSt12__miter_baseIPPcEDTcl12__miter_basecldtfp_4baseEEESt13move_iteratorIT_E
FNDA:24,_ZSt12__miter_baseIPiEDTcl12__miter_basecldtfp_4baseEEESt13move_iteratorIT_E
FNDA:0,_ZSt12__miter_baseIPmEDTcl12__miter_basecldtfp_4baseEEESt13move_iteratorIT_E
FNDA:12,_ZSt12__miter_baseIPPN7testing8TestCaseEEDTcl12__miter_basecldtfp_4baseEEESt13move_iteratorIT_E
FNDA:0,_ZSt12__miter_baseIPPN7testing11EnvironmentEEDTcl12__miter_basecldtfp_4baseEEESt13move_iteratorIT_E
FNDA:4,_ZSt12__miter_baseIPPN7testing17TestEventListenerEEDTcl12__miter_basecldtfp_4baseEEESt13move_iteratorIT_E
FNDA:12,_ZSt12__miter_baseIPPN7testing8TestInfoEEDTcl12__miter_basecldtfp_4baseEEESt13move_iteratorIT_E
FNDA:0,_ZSt12__miter_baseIPN7testing8internal13edit_distance8EditTypeEEDTcl12__miter_basecldtfp_4baseEEESt13move_iteratorIT_E
FNF:197
FNH:71
DA:132,2
DA:154,2
DA:155,2
DA:168,0
DA:170,0
DA:171,0
DA:189,0
DA:191,0
DA:192,0
DA:299,1
DA:301,1
DA:311,1
DA:313,1
DA:779,180
DA:780,180
DA:784,3
DA:788,3
DA:792,55
DA:793,55
DA:796,0
DA:797,0
DA:800,55
DA:802,55
DA:803,55
DA:812,0
DA:814,0
DA:815,0
DA:832,0
DA:833,0
DA:840,0
DA:841,0
DA:844,285
DA:845,285
DA:859,0
DA:862,0
DA:866,1
DA:869,1
DA:873,3
DA:876,3
DA:880,103
DA:883,103
DA:895,0
DA:898,0
DA:950,0
DA:958,0
DA:962,20
DA:965,20
DA:983,0
DA:984,0
DA:1036,56
DA:1037,56
DA:1045,56
DA:1046,56
DA:1049,0
DA:1050,0
DA:1057,0
DA:1059,0
DA:1060,0
DA:1124,2
DA:1126,2
DA:1136,2
DA:1138,2
DA:1221,56
DA:1222,56
DA:1241,52
DA:1243,52
LF:66
LH:38
end_of_record
SF:/usr/local/include/c++/7.1.0/bits/stl_iterator_base_funcs.h
FN:98,_ZSt10__distanceIPKcENSt15iterator_traitsIT_E15difference_typeES3_S3_St26random_access_iterator_tag
FN:98,_ZSt10__distanceIPKPKcENSt15iterator_traitsIT_E15difference_typeES5_S5_St26random_access_iterator_tag
FN:138,_ZSt8distanceIPKcENSt15iterator_traitsIT_E15difference_typeES3_S3_
FN:138,_ZSt8distanceIPKPKcENSt15iterator_traitsIT_E15difference_typeES5_S5_
FNDA:0,_ZSt10__distanceIPKPKcENSt15iterator_traitsIT_E15difference_typeES5_S5_St26random_access_iterator_tag
FNDA:35,_ZSt10__distanceIPKcENSt15iterator_traitsIT_E15difference_typeES3_S3_St26random_access_iterator_tag
FNDA:0,_ZSt8distanceIPKPKcENSt15iterator_traitsIT_E15difference_typeES5_S5_
FNDA:35,_ZSt8distanceIPKcENSt15iterator_traitsIT_E15difference_typeES3_S3_
FNF:4
FNH:2
DA:98,35
DA:104,35
DA:138,35
DA:141,35
DA:142,70
LF:5
LH:5
end_of_record
SF:/usr/local/include/c++/7.1.0/bits/stl_iterator_base_types.h
FN:204,_ZSt19__iterator_categoryIPKPKcENSt15iterator_traitsIT_E17iterator_categoryERKS5_
FN:204,_ZSt19__iterator_categoryIN9__gnu_cxx17__normal_iteratorIPPN7testing8TestCaseESt6vectorIS4_SaIS4_EEEEENSt15iterator_traitsIT_E17iterator_categoryERKSB_
FN:204,_ZSt19__iterator_categoryIN9__gnu_cxx17__normal_iteratorIPN7testing8internal13edit_distance8EditTypeESt6vectorIS5_SaIS5_EEEEENSt15iterator_traitsIT_E17iterator_categoryERKSC_
FN:204,_ZSt19__iterator_categoryIN9__gnu_cxx17__normal_iteratorIPN7testing12TestPropertyESt6vectorIS3_SaIS3_EEEEENSt15iterator_traitsIT_E17iterator_categoryERKSA_
FN:204,_ZSt19__iterator_categoryIN9__gnu_cxx17__normal_iteratorIPKNSt7__cxx1112basic_stringIcSt11char_traitsIcESaIcEEESt6vectorIS7_SaIS7_EEEEENSt15iterator_traitsIT_E17iterator_categoryERKSF_
FN:204,_ZSt19__iterator_categoryIPKcENSt15iterator_traitsIT_E17iterator_categoryERKS3_
FNDA:0,_ZSt19__iterator_categoryIPKPKcENSt15iterator_traitsIT_E17iterator_categoryERKS5_
FNDA:35,_ZSt19__iterator_categoryIPKcENSt15iterator_traitsIT_E17iterator_categoryERKS3_
FNDA:3,_ZSt19__iterator_categoryIN9__gnu_cxx17__normal_iteratorIPPN7testing8TestCaseESt6vectorIS4_SaIS4_EEEEENSt15iterator_traitsIT_E17iterator_categoryERKSB_
FNDA:0,_ZSt19__iterator_categoryIN9__gnu_cxx17__normal_iteratorIPKNSt7__cxx1112basic_stringIcSt11char_traitsIcESaIcEEESt6vectorIS7_SaIS7_EEEEENSt15iterator_traitsIT_E17iterator_categoryERKSF_
FNDA:0,_ZSt19__iterator_categoryIN9__gnu_cxx17__normal_iteratorIPN7testing12TestPropertyESt6vectorIS3_SaIS3_EEEEENSt15iterator_traitsIT_E17iterator_categoryERKSA_
FNDA:0,_ZSt19__iterator_categoryIN9__gnu_cxx17__normal_iteratorIPN7testing8internal13edit_distance8EditTypeESt6vectorIS5_SaIS5_EEEEENSt15iterator_traitsIT_E17iterator_categoryERKSC_
FNF:6
FNH:2
DA:204,38
DA:205,38
LF:2
LH:2
end_of_record
SF:/usr/local/include/c++/7.1.0/bits/stl_list.h
FN:113,_ZNSt10_List_nodeISt4pairIcPKcEE9_M_valptrEv
FN:113,_ZNSt10_List_nodeImE9_M_valptrEv
FN:114,_ZNKSt10_List_nodeISt4pairIcPKcEE9_M_valptrEv
FN:114,_ZNKSt10_List_nodeImE9_M_valptrEv
FN:143,_ZNSt14_List_iteratorISt4pairIcPKcEEC2EPNSt8__detail15_List_node_baseE
FN:227,_ZNSt20_List_const_iteratorISt4pairIcPKcEEC2ERKSt14_List_iteratorIS3_E
FN:231,_ZNKSt20_List_const_iteratorISt4pairIcPKcEE13_M_const_castEv
FN:240,_ZNKSt20_List_const_iteratorISt4pairIcPKcEEptEv
FN:244,_ZNSt20_List_const_iteratorISt4pairIcPKcEEppEv
FN:278,_ZNKSt20_List_const_iteratorISt4pairIcPKcEEneERKS4_
FN:323,_ZNSt7__cxx1110_List_baseISt4pairIcPKcESaIS4_EE10_List_implD2Ev
FN:332,_ZNSt7__cxx1110_List_baseISt4pairIcPKcESaIS4_EE10_List_implC2Ev
FN:350,_ZNKSt7__cxx1110_List_baseISt4pairIcPKcESaIS4_EE11_M_get_sizeEv
FN:352,_ZNSt7__cxx1110_List_baseISt4pairIcPKcESaIS4_EE11_M_set_sizeEm
FN:354,_ZNSt7__cxx1110_List_baseISt4pairIcPKcESaIS4_EE11_M_inc_sizeEm
FN:382,_ZNSt7__cxx1110_List_baseISt4pairIcPKcESaIS4_EE11_M_get_nodeEv
FN:386,_ZNSt7__cxx1110_List_baseISt4pairIcPKcESaIS4_EE11_M_put_nodeEPSt10_List_nodeIS4_E
FN:393,_ZNSt7__cxx1110_List_baseISt4pairIcPKcESaIS4_EE21_M_get_Node_allocatorEv
FN:400,_ZNSt7__cxx1110_List_baseISt4pairIcPKcESaIS4_EEC2Ev
FN:441,_ZNSt7__cxx1110_List_baseISt4pairIcPKcESaIS4_EED2Ev
FN:448,_ZNSt7__cxx1110_List_baseISt4pairIcPKcESaIS4_EE7_M_initEv
FN:570,_ZNSt7__cxx114listISt4pairIcPKcESaIS4_EE14_M_create_nodeIJS4_EEEPSt10_List_nodeIS4_EDpOT_
FN:589,_ZNSt7__cxx114listISt4pairIcPKcESaIS4_EEC2Ev
FN:733,_ZNSt7__cxx114listISt4pairIcPKcESaIS4_EED2Ev
FN:851,_ZNSt7__cxx114listISt4pairIcPKcESaIS4_EE5beginEv
FN:869,_ZNSt7__cxx114listISt4pairIcPKcESaIS4_EE3endEv
FN:961,_ZNKSt7__cxx114listISt4pairIcPKcESaIS4_EE5emptyEv
FN:1122,_ZNSt7__cxx114listISt4pairIcPKcESaIS4_EE9push_backEOS4_
FN:1424,_ZNSt7__cxx114listISt4pairIcPKcESaIS4_EE6spliceESt20_List_const_iteratorIS4_EOS6_
FN:1443,_ZNSt7__cxx114listISt4pairIcPKcESaIS4_EE6spliceESt20_List_const_iteratorIS4_ERS6_
FN:1784,_ZNSt7__cxx114listISt4pairIcPKcESaIS4_EE11_M_transferESt14_List_iteratorIS4_ES8_S8_
FN:1799,_ZNSt7__cxx114listISt4pairIcPKcESaIS4_EE9_M_insertIJS4_EEEvSt14_List_iteratorIS4_EDpOT_
FN:1825,_ZNSt7__cxx114listISt4pairIcPKcESaIS4_EE25_M_check_equal_allocatorsERS6_
FNDA:0,_ZNSt10_List_nodeImE9_M_valptrEv
FNDA:0,_ZNSt10_List_nodeISt4pairIcPKcEE9_M_valptrEv
FNDA:0,_ZNKSt10_List_nodeImE9_M_valptrEv
FNDA:0,_ZNKSt10_List_nodeISt4pairIcPKcEE9_M_valptrEv
FNDA:0,_ZNSt14_List_iteratorISt4pairIcPKcEEC2EPNSt8__detail15_List_node_baseE
FNDA:0,_ZNSt20_List_const_iteratorISt4pairIcPKcEEC2ERKSt14_List_iteratorIS3_E
FNDA:0,_ZNKSt20_List_const_iteratorISt4pairIcPKcEE13_M_const_castEv
FNDA:0,_ZNKSt20_List_const_iteratorISt4pairIcPKcEEptEv
FNDA:0,_ZNSt20_List_const_iteratorISt4pairIcPKcEEppEv
FNDA:0,_ZNKSt20_List_const_iteratorISt4pairIcPKcEEneERKS4_
FNDA:0,_ZNSt7__cxx1110_List_baseISt4pairIcPKcESaIS4_EE10_List_implD2Ev
FNDA:0,_ZNSt7__cxx1110_List_baseISt4pairIcPKcESaIS4_EE10_List_implC2Ev
FNDA:0,_ZNKSt7__cxx1110_List_baseISt4pairIcPKcESaIS4_EE11_M_get_sizeEv
FNDA:0,_ZNSt7__cxx1110_List_baseISt4pairIcPKcESaIS4_EE11_M_set_sizeEm
FNDA:0,_ZNSt7__cxx1110_List_baseISt4pairIcPKcESaIS4_EE11_M_inc_sizeEm
FNDA:0,_ZNSt7__cxx1110_List_baseISt4pairIcPKcESaIS4_EE11_M_get_nodeEv
FNDA:0,_ZNSt7__cxx1110_List_baseISt4pairIcPKcESaIS4_EE11_M_put_nodeEPSt10_List_nodeIS4_E
FNDA:0,_ZNSt7__cxx1110_List_baseISt4pairIcPKcESaIS4_EE21_M_get_Node_allocatorEv
FNDA:0,_ZNSt7__cxx1110_List_baseISt4pairIcPKcESaIS4_EEC2Ev
FNDA:0,_ZNSt7__cxx1110_List_baseISt4pairIcPKcESaIS4_EED2Ev
FNDA:0,_ZNSt7__cxx1110_List_baseISt4pairIcPKcESaIS4_EE7_M_initEv
FNDA:0,_ZNSt7__cxx114listISt4pairIcPKcESaIS4_EE14_M_create_nodeIJS4_EEEPSt10_List_nodeIS4_EDpOT_
FNDA:0,_ZNSt7__cxx114listISt4pairIcPKcESaIS4_EEC2Ev
FNDA:0,_ZNSt7__cxx114listISt4pairIcPKcESaIS4_EED2Ev
FNDA:0,_ZNSt7__cxx114listISt4pairIcPKcESaIS4_EE5beginEv
FNDA:0,_ZNSt7__cxx114listISt4pairIcPKcESaIS4_EE3endEv
FNDA:0,_ZNKSt7__cxx114listISt4pairIcPKcESaIS4_EE5emptyEv
FNDA:0,_ZNSt7__cxx114listISt4pairIcPKcESaIS4_EE9push_backEOS4_
FNDA:0,_ZNSt7__cxx114listISt4pairIcPKcESaIS4_EE6spliceESt20_List_const_iteratorIS4_EOS6_
FNDA:0,_ZNSt7__cxx114listISt4pairIcPKcESaIS4_EE6spliceESt20_List_const_iteratorIS4_ERS6_
FNDA:0,_ZNSt7__cxx114listISt4pairIcPKcESaIS4_EE11_M_transferESt14_List_iteratorIS4_ES8_S8_
FNDA:0,_ZNSt7__cxx114listISt4pairIcPKcESaIS4_EE9_M_insertIJS4_EEEvSt14_List_iteratorIS4_EDpOT_
FNDA:0,_ZNSt7__cxx114listISt4pairIcPKcESaIS4_EE25_M_check_equal_allocatorsERS6_
FNF:33
FNH:0
DA:113,0
DA:114,0
DA:143,0
DA:144,0
DA:227,0
DA:228,0
DA:231,0
DA:232,0
DA:240,0
DA:241,0
DA:244,0
DA:246,0
DA:247,0
DA:278,0
DA:279,0
DA:323,0
DA:332,0
DA:333,0
DA:334,0
DA:350,0
DA:352,0
DA:354,0
DA:382,0
DA:383,0
DA:386,0
DA:387,0
DA:393,0
DA:394,0
DA:400,0
DA:401,0
DA:402,0
DA:441,0
DA:442,0
DA:448,0
DA:450,0
DA:451,0
DA:452,0
DA:453,0
DA:570,0
DA:572,0
DA:573,0
DA:574,0
DA:575,0
DA:577,0
DA:578,0
DA:589,0
DA:593,0
DA:733,0
DA:851,0
DA:852,0
DA:869,0
DA:870,0
DA:961,0
DA:962,0
DA:1122,0
DA:1123,0
DA:1424,0
DA:1429,0
DA:1431,0
DA:1433,0
DA:1436,0
DA:1437,0
DA:1439,0
DA:1443,0
DA:1444,0
DA:1784,0
DA:1785,0
DA:1799,0
DA:1801,0
DA:1802,0
DA:1803,0
DA:1804,0
DA:1825,0
DA:1827,0
DA:1828,0
DA:1829,0
DA:1830,0
LF:77
LH:0
end_of_record
SF:/usr/local/include/c++/7.1.0/bits/stl_map.h
FN:177,_ZNSt3mapINSt7__cxx1112basic_stringIcSt11char_traitsIcESaIcEEEmSt4lessIS5_ESaISt4pairIKS5_mEEEC2Ev
FN:294,_ZNSt3mapINSt7__cxx1112basic_stringIcSt11char_traitsIcESaIcEEEmSt4lessIS5_ESaISt4pairIKS5_mEEED2Ev
FN:348,_ZNSt3mapINSt7__cxx1112basic_stringIcSt11char_traitsIcESaIcEEEN7testing8internal12CodeLocationESt4lessIS5_ESaISt4pairIKS5_S8_EEE5beginEv
FN:366,_ZNSt3mapINSt7__cxx1112basic_stringIcSt11char_traitsIcESaIcEEEmSt4lessIS5_ESaISt4pairIKS5_mEEE3endEv
FN:366,_ZNSt3mapINSt7__cxx1112basic_stringIcSt11char_traitsIcESaIcEEEN7testing8internal12CodeLocationESt4lessIS5_ESaISt4pairIKS5_S8_EEE3endEv
FN:462,_ZNKSt3mapINSt7__cxx1112basic_stringIcSt11char_traitsIcESaIcEEEmSt4lessIS5_ESaISt4pairIKS5_mEEE4sizeEv
FN:484,_ZNSt3mapINSt7__cxx1112basic_stringIcSt11char_traitsIcESaIcEEEmSt4lessIS5_ESaISt4pairIKS5_mEEEixERS9_
FN:1121,_ZNKSt3mapINSt7__cxx1112basic_stringIcSt11char_traitsIcESaIcEEEmSt4lessIS5_ESaISt4pairIKS5_mEEE8key_compEv
FN:1148,_ZNSt3mapINSt7__cxx1112basic_stringIcSt11char_traitsIcESaIcEEEmSt4lessIS5_ESaISt4pairIKS5_mEEE4findERS9_
FN:1218,_ZNSt3mapINSt7__cxx1112basic_stringIcSt11char_traitsIcESaIcEEEmSt4lessIS5_ESaISt4pairIKS5_mEEE11lower_boundERS9_
FNDA:0,_ZNSt3mapINSt7__cxx1112basic_stringIcSt11char_traitsIcESaIcEEEmSt4lessIS5_ESaISt4pairIKS5_mEEEC2Ev
FNDA:0,_ZNSt3mapINSt7__cxx1112basic_stringIcSt11char_traitsIcESaIcEEEmSt4lessIS5_ESaISt4pairIKS5_mEEED2Ev
FNDA:0,_ZNSt3mapINSt7__cxx1112basic_stringIcSt11char_traitsIcESaIcEEEN7testing8internal12CodeLocationESt4lessIS5_ESaISt4pairIKS5_S8_EEE5beginEv
FNDA:0,_ZNSt3mapINSt7__cxx1112basic_stringIcSt11char_traitsIcESaIcEEEN7testing8internal12CodeLocationESt4lessIS5_ESaISt4pairIKS5_S8_EEE3endEv
FNDA:0,_ZNSt3mapINSt7__cxx1112basic_stringIcSt11char_traitsIcESaIcEEEmSt4lessIS5_ESaISt4pairIKS5_mEEE3endEv
FNDA:0,_ZNKSt3mapINSt7__cxx1112basic_stringIcSt11char_traitsIcESaIcEEEmSt4lessIS5_ESaISt4pairIKS5_mEEE4sizeEv
FNDA:0,_ZNSt3mapINSt7__cxx1112basic_stringIcSt11char_traitsIcESaIcEEEmSt4lessIS5_ESaISt4pairIKS5_mEEEixERS9_
FNDA:0,_ZNKSt3mapINSt7__cxx1112basic_stringIcSt11char_traitsIcESaIcEEEmSt4lessIS5_ESaISt4pairIKS5_mEEE8key_compEv
FNDA:0,_ZNSt3mapINSt7__cxx1112basic_stringIcSt11char_traitsIcESaIcEEEmSt4lessIS5_ESaISt4pairIKS5_mEEE4findERS9_
FNDA:0,_ZNSt3mapINSt7__cxx1112basic_stringIcSt11char_traitsIcESaIcEEEmSt4lessIS5_ESaISt4pairIKS5_mEEE11lower_boundERS9_
FNF:10
FNH:0
DA:177,0
DA:294,0
DA:348,0
DA:349,0
DA:366,0
DA:367,0
DA:462,0
DA:463,0
DA:484,0
DA:489,0
DA:491,0
DA:493,0
DA:499,0
DA:1121,0
DA:1122,0
DA:1148,0
DA:1149,0
DA:1218,0
DA:1219,0
LF:19
LH:0
end_of_record
SF:/usr/local/include/c++/7.1.0/bits/stl_pair.h
FN:198,_ZNSt4pairIKNSt7__cxx1112basic_stringIcSt11char_traitsIcESaIcEEEmED2Ev
FN:300,_ZNSt4pairIPSt18_Rb_tree_node_baseS1_EC2IRS1_Lb1EEEOT_RKS1_
FN:314,_ZNSt4pairIPSt18_Rb_tree_node_baseS1_EC2IRS1_Lb1EEERKS1_OT_
FN:330,_ZNSt4pairIPSt18_Rb_tree_node_baseS1_EC2IRPSt13_Rb_tree_nodeINSt7__cxx1112basic_stringIcSt11char_traitsIcESaIcEEEERS1_Lb1EEEOT_OT0_
FN:330,_ZNSt4pairIPSt18_Rb_tree_node_baseS1_EC2IRS1_S4_Lb1EEEOT_OT0_
FN:330,_ZNSt4pairIcPKcEC2IcRS1_Lb1EEEOT_OT0_
FN:330,_ZNSt4pairISt17_Rb_tree_iteratorINSt7__cxx1112basic_stringIcSt11char_traitsIcESaIcEEEEbEC2IS7_bLb1EEEOT_OT0_
FN:330,_ZNSt4pairISt23_Rb_tree_const_iteratorINSt7__cxx1112basic_stringIcSt11char_traitsIcESaIcEEEEbEC2IRSt17_Rb_tree_iteratorIS6_ERbLb1EEEOT_OT0_
FN:330,_ZNSt4pairIPSt18_Rb_tree_node_baseS1_EC2IRPSt13_Rb_tree_nodeIS_IKNSt7__cxx1112basic_stringIcSt11char_traitsIcESaIcEEEmEERS1_Lb1EEEOT_OT0_
FN:519,_ZSt9make_pairIcRPKcESt4pairINSt17__decay_and_stripIT_E6__typeENS4_IT0_E6__typeEEOS5_OS8_
FNDA:0,_ZNSt4pairIKNSt7__cxx1112basic_stringIcSt11char_traitsIcESaIcEEEmED2Ev
FNDA:0,_ZNSt4pairIPSt18_Rb_tree_node_baseS1_EC2IRS1_Lb1EEEOT_RKS1_
FNDA:0,_ZNSt4pairIPSt18_Rb_tree_node_baseS1_EC2IRS1_Lb1EEERKS1_OT_
FNDA:0,_ZNSt4pairIPSt18_Rb_tree_node_baseS1_EC2IRPSt13_Rb_tree_nodeIS_IKNSt7__cxx1112basic_stringIcSt11char_traitsIcESaIcEEEmEERS1_Lb1EEEOT_OT0_
FNDA:0,_ZNSt4pairIPSt18_Rb_tree_node_baseS1_EC2IRPSt13_Rb_tree_nodeINSt7__cxx1112basic_stringIcSt11char_traitsIcESaIcEEEERS1_Lb1EEEOT_OT0_
FNDA:0,_ZNSt4pairIPSt18_Rb_tree_node_baseS1_EC2IRS1_S4_Lb1EEEOT_OT0_
FNDA:0,_ZNSt4pairISt17_Rb_tree_iteratorINSt7__cxx1112basic_stringIcSt11char_traitsIcESaIcEEEEbEC2IS7_bLb1EEEOT_OT0_
FNDA:0,_ZNSt4pairISt23_Rb_tree_const_iteratorINSt7__cxx1112basic_stringIcSt11char_traitsIcESaIcEEEEbEC2IRSt17_Rb_tree_iteratorIS6_ERbLb1EEEOT_OT0_
FNDA:0,_ZNSt4pairIcPKcEC2IcRS1_Lb1EEEOT_OT0_
FNDA:0,_ZSt9make_pairIcRPKcESt4pairINSt17__decay_and_stripIT_E6__typeENS4_IT0_E6__typeEEOS5_OS8_
FNF:10
FNH:0
DA:198,0
DA:300,0
DA:301,0
DA:314,0
DA:315,0
DA:330,0
DA:331,0
DA:519,0
DA:524,0
LF:9
LH:0
end_of_record
SF:/usr/local/include/c++/7.1.0/bits/stl_set.h
FN:157,_ZNSt3setINSt7__cxx1112basic_stringIcSt11char_traitsIcESaIcEEESt4lessIS5_ESaIS5_EEC2Ev
FN:271,_ZNSt3setINSt7__cxx1112basic_stringIcSt11char_traitsIcESaIcEEESt4lessIS5_ESaIS5_EED2Ev
FN:499,_ZNSt3setINSt7__cxx1112basic_stringIcSt11char_traitsIcESaIcEEESt4lessIS5_ESaIS5_EE6insertERKS5_
FN:738,_ZNKSt3setINSt7__cxx1112basic_stringIcSt11char_traitsIcESaIcEEESt4lessIS5_ESaIS5_EE5countERKS5_
FNDA:0,_ZNSt3setINSt7__cxx1112basic_stringIcSt11char_traitsIcESaIcEEESt4lessIS5_ESaIS5_EEC2Ev
FNDA:0,_ZNSt3setINSt7__cxx1112basic_stringIcSt11char_traitsIcESaIcEEESt4lessIS5_ESaIS5_EED2Ev
FNDA:0,_ZNSt3setINSt7__cxx1112basic_stringIcSt11char_traitsIcESaIcEEESt4lessIS5_ESaIS5_EE6insertERKS5_
FNDA:0,_ZNKSt3setINSt7__cxx1112basic_stringIcSt11char_traitsIcESaIcEEESt4lessIS5_ESaIS5_EE5countERKS5_
FNF:4
FNH:0
DA:157,0
DA:271,0
DA:499,0
DA:501,0
DA:503,0
DA:738,0
DA:739,0
LF:7
LH:0
end_of_record
SF:/usr/local/include/c++/7.1.0/bits/stl_tree.h
FN:146,_ZNSt20_Rb_tree_key_compareISt4lessINSt7__cxx1112basic_stringIcSt11char_traitsIcESaIcEEEEEC2Ev
FN:173,_ZNSt15_Rb_tree_headerC2Ev
FN:206,_ZNSt15_Rb_tree_header8_M_resetEv
FN:234,_ZNSt13_Rb_tree_nodeINSt7__cxx1112basic_stringIcSt11char_traitsIcESaIcEEEE9_M_valptrEv
FN:234,_ZNSt13_Rb_tree_nodeISt4pairIKNSt7__cxx1112basic_stringIcSt11char_traitsIcESaIcEEEmEE9_M_valptrEv
FN:238,_ZNKSt13_Rb_tree_nodeISt4pairIKNSt7__cxx1112basic_stringIcSt11char_traitsIcESaIcEEEmEE9_M_valptrEv
FN:238,_ZNKSt13_Rb_tree_nodeINSt7__cxx1112basic_stringIcSt11char_traitsIcESaIcEEEE9_M_valptrEv
FN:238,_ZNKSt13_Rb_tree_nodeISt4pairIKNSt7__cxx1112basic_stringIcSt11char_traitsIcESaIcEEEN7testing8internal12CodeLocationEEE9_M_valptrEv
FN:273,_ZNSt17_Rb_tree_iteratorISt4pairIKNSt7__cxx1112basic_stringIcSt11char_traitsIcESaIcEEEN7testing8internal12CodeLocationEEEC2EPSt18_Rb_tree_node_base
FN:273,_ZNSt17_Rb_tree_iteratorISt4pairIKNSt7__cxx1112basic_stringIcSt11char_traitsIcESaIcEEEmEEC2EPSt18_Rb_tree_node_base
FN:273,_ZNSt17_Rb_tree_iteratorINSt7__cxx1112basic_stringIcSt11char_traitsIcESaIcEEEEC2EPSt18_Rb_tree_node_base
FN:277,_ZNKSt17_Rb_tree_iteratorISt4pairIKNSt7__cxx1112basic_stringIcSt11char_traitsIcESaIcEEEmEEdeEv
FN:281,_ZNKSt17_Rb_tree_iteratorISt4pairIKNSt7__cxx1112basic_stringIcSt11char_traitsIcESaIcEEEmEEptEv
FN:285,_ZNSt17_Rb_tree_iteratorISt4pairIKNSt7__cxx1112basic_stringIcSt11char_traitsIcESaIcEEEmEEppEv
FN:300,_ZNSt17_Rb_tree_iteratorINSt7__cxx1112basic_stringIcSt11char_traitsIcESaIcEEEEmmEv
FN:300,_ZNSt17_Rb_tree_iteratorISt4pairIKNSt7__cxx1112basic_stringIcSt11char_traitsIcESaIcEEEmEEmmEv
FN:315,_ZNKSt17_Rb_tree_iteratorINSt7__cxx1112basic_stringIcSt11char_traitsIcESaIcEEEEeqERKS6_
FN:315,_ZNKSt17_Rb_tree_iteratorISt4pairIKNSt7__cxx1112basic_stringIcSt11char_traitsIcESaIcEEEmEEeqERKS9_
FN:319,_ZNKSt17_Rb_tree_iteratorISt4pairIKNSt7__cxx1112basic_stringIcSt11char_traitsIcESaIcEEEmEEneERKS9_
FN:345,_ZNSt23_Rb_tree_const_iteratorINSt7__cxx1112basic_stringIcSt11char_traitsIcESaIcEEEEC2EPKSt18_Rb_tree_node_base
FN:348,_ZNSt23_Rb_tree_const_iteratorINSt7__cxx1112basic_stringIcSt11char_traitsIcESaIcEEEEC2ERKSt17_Rb_tree_iteratorIS5_E
FN:348,_ZNSt23_Rb_tree_const_iteratorISt4pairIKNSt7__cxx1112basic_stringIcSt11char_traitsIcESaIcEEEN7testing8internal12CodeLocationEEEC2ERKSt17_Rb_tree_iteratorISB_E
FN:348,_ZNSt23_Rb_tree_const_iteratorISt4pairIKNSt7__cxx1112basic_stringIcSt11char_traitsIcESaIcEEEmEEC2ERKSt17_Rb_tree_iteratorIS8_E
FN:352,_ZNKSt23_Rb_tree_const_iteratorISt4pairIKNSt7__cxx1112basic_stringIcSt11char_traitsIcESaIcEEEmEE13_M_const_castEv
FN:360,_ZNKSt23_Rb_tree_const_iteratorISt4pairIKNSt7__cxx1112basic_stringIcSt11char_traitsIcESaIcEEEN7testing8internal12CodeLocationEEEptEv
FN:364,_ZNSt23_Rb_tree_const_iteratorISt4pairIKNSt7__cxx1112basic_stringIcSt11char_traitsIcESaIcEEEN7testing8internal12CodeLocationEEEppEv
FN:394,_ZNKSt23_Rb_tree_const_iteratorINSt7__cxx1112basic_stringIcSt11char_traitsIcESaIcEEEEeqERKS6_
FN:398,_ZNKSt23_Rb_tree_const_iteratorISt4pairIKNSt7__cxx1112basic_stringIcSt11char_traitsIcESaIcEEEN7testing8internal12CodeLocationEEEneERKSC_
FN:546,_ZNSt8_Rb_treeINSt7__cxx1112basic_stringIcSt11char_traitsIcESaIcEEES5_St9_IdentityIS5_ESt4lessIS5_ESaIS5_EE11_Alloc_nodeC2ERSB_
FN:554,_ZNKSt8_Rb_treeINSt7__cxx1112basic_stringIcSt11char_traitsIcESaIcEEES5_St9_IdentityIS5_ESt4lessIS5_ESaIS5_EE11_Alloc_nodeclIRKS5_EEPSt13_Rb_tree_nodeIS5_EOT_
FN:574,_ZNSt8_Rb_treeINSt7__cxx1112basic_stringIcSt11char_traitsIcESaIcEEESt4pairIKS5_mESt10_Select1stIS8_ESt4lessIS5_ESaIS8_EE21_M_get_Node_allocatorEv
FN:574,_ZNSt8_Rb_treeINSt7__cxx1112basic_stringIcSt11char_traitsIcESaIcEEES5_St9_IdentityIS5_ESt4lessIS5_ESaIS5_EE21_M_get_Node_allocatorEv
FN:587,_ZNSt8_Rb_treeINSt7__cxx1112basic_stringIcSt11char_traitsIcESaIcEEES5_St9_IdentityIS5_ESt4lessIS5_ESaIS5_EE11_M_get_nodeEv
FN:587,_ZNSt8_Rb_treeINSt7__cxx1112basic_stringIcSt11char_traitsIcESaIcEEESt4pairIKS5_mESt10_Select1stIS8_ESt4lessIS5_ESaIS8_EE11_M_get_nodeEv
FN:591,_ZNSt8_Rb_treeINSt7__cxx1112basic_stringIcSt11char_traitsIcESaIcEEES5_St9_IdentityIS5_ESt4lessIS5_ESaIS5_EE11_M_put_nodeEPSt13_Rb_tree_nodeIS5_E
FN:591,_ZNSt8_Rb_treeINSt7__cxx1112basic_stringIcSt11char_traitsIcESaIcEEESt4pairIKS5_mESt10_Select1stIS8_ESt4lessIS5_ESaIS8_EE11_M_put_nodeEPSt13_Rb_tree_nodeIS8_E
FN:621,_ZNSt8_Rb_treeINSt7__cxx1112basic_stringIcSt11char_traitsIcESaIcEEES5_St9_IdentityIS5_ESt4lessIS5_ESaIS5_EE17_M_construct_nodeIJRKS5_EEEvPSt13_Rb_tree_nodeIS5_EDpOT_
FN:621,_ZNSt8_Rb_treeINSt7__cxx1112basic_stringIcSt11char_traitsIcESaIcEEESt4pairIKS5_mESt10_Select1stIS8_ESt4lessIS5_ESaIS8_EE17_M_construct_nodeIJRKSt21piecewise_construct_tSt5tupleIJRS7_EESJ_IJEEEEEvPSt13_Rb_tree_nodeIS8_EDpOT_
FN:640,_ZNSt8_Rb_treeINSt7__cxx1112basic_stringIcSt11char_traitsIcESaIcEEES5_St9_IdentityIS5_ESt4lessIS5_ESaIS5_EE14_M_create_nodeIJRKS5_EEEPSt13_Rb_tree_nodeIS5_EDpOT_
FN:640,_ZNSt8_Rb_treeINSt7__cxx1112basic_stringIcSt11char_traitsIcESaIcEEESt4pairIKS5_mESt10_Select1stIS8_ESt4lessIS5_ESaIS8_EE14_M_create_nodeIJRKSt21piecewise_construct_tSt5tupleIJRS7_EESJ_IJEEEEEPSt13_Rb_tree_nodeIS8_EDpOT_
FN:648,_ZNSt8_Rb_treeINSt7__cxx1112basic_stringIcSt11char_traitsIcESaIcEEES5_St9_IdentityIS5_ESt4lessIS5_ESaIS5_EE15_M_destroy_nodeEPSt13_Rb_tree_nodeIS5_E
FN:648,_ZNSt8_Rb_treeINSt7__cxx1112basic_stringIcSt11char_traitsIcESaIcEEESt4pairIKS5_mESt10_Select1stIS8_ESt4lessIS5_ESaIS8_EE15_M_destroy_nodeEPSt13_Rb_tree_nodeIS8_E
FN:656,_ZNSt8_Rb_treeINSt7__cxx1112basic_stringIcSt11char_traitsIcESaIcEEESt4pairIKS5_mESt10_Select1stIS8_ESt4lessIS5_ESaIS8_EE12_M_drop_nodeEPSt13_Rb_tree_nodeIS8_E
FN:656,_ZNSt8_Rb_treeINSt7__cxx1112basic_stringIcSt11char_traitsIcESaIcEEES5_St9_IdentityIS5_ESt4lessIS5_ESaIS5_EE12_M_drop_nodeEPSt13_Rb_tree_nodeIS5_E
FN:677,_ZNSt8_Rb_treeINSt7__cxx1112basic_stringIcSt11char_traitsIcESaIcEEES5_St9_IdentityIS5_ESt4lessIS5_ESaIS5_EE13_Rb_tree_implIS9_Lb1EED2Ev
FN:677,_ZNSt8_Rb_treeINSt7__cxx1112basic_stringIcSt11char_traitsIcESaIcEEESt4pairIKS5_mESt10_Select1stIS8_ESt4lessIS5_ESaIS8_EE13_Rb_tree_implISC_Lb1EED2Ev
FN:688,_ZNSt8_Rb_treeINSt7__cxx1112basic_stringIcSt11char_traitsIcESaIcEEESt4pairIKS5_mESt10_Select1stIS8_ESt4lessIS5_ESaIS8_EE13_Rb_tree_implISC_Lb1EEC2Ev
FN:688,_ZNSt8_Rb_treeINSt7__cxx1112basic_stringIcSt11char_traitsIcESaIcEEES5_St9_IdentityIS5_ESt4lessIS5_ESaIS5_EE13_Rb_tree_implIS9_Lb1EEC2Ev
FN:720,_ZNSt8_Rb_treeINSt7__cxx1112basic_stringIcSt11char_traitsIcESaIcEEESt4pairIKS5_mESt10_Select1stIS8_ESt4lessIS5_ESaIS8_EE11_M_leftmostEv
FN:728,_ZNSt8_Rb_treeINSt7__cxx1112basic_stringIcSt11char_traitsIcESaIcEEESt4pairIKS5_mESt10_Select1stIS8_ESt4lessIS5_ESaIS8_EE12_M_rightmostEv
FN:736,_ZNSt8_Rb_treeINSt7__cxx1112basic_stringIcSt11char_traitsIcESaIcEEES5_St9_IdentityIS5_ESt4lessIS5_ESaIS5_EE8_M_beginEv
FN:736,_ZNSt8_Rb_treeINSt7__cxx1112basic_stringIcSt11char_traitsIcESaIcEEESt4pairIKS5_mESt10_Select1stIS8_ESt4lessIS5_ESaIS8_EE8_M_beginEv
FN:740,_ZNKSt8_Rb_treeINSt7__cxx1112basic_stringIcSt11char_traitsIcESaIcEEES5_St9_IdentityIS5_ESt4lessIS5_ESaIS5_EE8_M_beginEv
FN:747,_ZNSt8_Rb_treeINSt7__cxx1112basic_stringIcSt11char_traitsIcESaIcEEES5_St9_IdentityIS5_ESt4lessIS5_ESaIS5_EE6_M_endEv
FN:747,_ZNSt8_Rb_treeINSt7__cxx1112basic_stringIcSt11char_traitsIcESaIcEEESt4pairIKS5_mESt10_Select1stIS8_ESt4lessIS5_ESaIS8_EE6_M_endEv
FN:751,_ZNKSt8_Rb_treeINSt7__cxx1112basic_stringIcSt11char_traitsIcESaIcEEES5_St9_IdentityIS5_ESt4lessIS5_ESaIS5_EE6_M_endEv
FN:755,_ZNSt8_Rb_treeINSt7__cxx1112basic_stringIcSt11char_traitsIcESaIcEEESt4pairIKS5_mESt10_Select1stIS8_ESt4lessIS5_ESaIS8_EE8_S_valueEPKSt13_Rb_tree_nodeIS8_E
FN:755,_ZNSt8_Rb_treeINSt7__cxx1112basic_stringIcSt11char_traitsIcESaIcEEES5_St9_IdentityIS5_ESt4lessIS5_ESaIS5_EE8_S_valueEPKSt13_Rb_tree_nodeIS5_E
FN:759,_ZNSt8_Rb_treeINSt7__cxx1112basic_stringIcSt11char_traitsIcESaIcEEES5_St9_IdentityIS5_ESt4lessIS5_ESaIS5_EE6_S_keyEPKSt13_Rb_tree_nodeIS5_E
FN:759,_ZNSt8_Rb_treeINSt7__cxx1112basic_stringIcSt11char_traitsIcESaIcEEESt4pairIKS5_mESt10_Select1stIS8_ESt4lessIS5_ESaIS8_EE6_S_keyEPKSt13_Rb_tree_nodeIS8_E
FN:763,_ZNSt8_Rb_treeINSt7__cxx1112basic_stringIcSt11char_traitsIcESaIcEEES5_St9_IdentityIS5_ESt4lessIS5_ESaIS5_EE7_S_leftEPSt18_Rb_tree_node_base
FN:763,_ZNSt8_Rb_treeINSt7__cxx1112basic_stringIcSt11char_traitsIcESaIcEEESt4pairIKS5_mESt10_Select1stIS8_ESt4lessIS5_ESaIS8_EE7_S_leftEPSt18_Rb_tree_node_base
FN:767,_ZNSt8_Rb_treeINSt7__cxx1112basic_stringIcSt11char_traitsIcESaIcEEES5_St9_IdentityIS5_ESt4lessIS5_ESaIS5_EE7_S_leftEPKSt18_Rb_tree_node_base
FN:771,_ZNSt8_Rb_treeINSt7__cxx1112basic_stringIcSt11char_traitsIcESaIcEEESt4pairIKS5_mESt10_Select1stIS8_ESt4lessIS5_ESaIS8_EE8_S_rightEPSt18_Rb_tree_node_base
FN:771,_ZNSt8_Rb_treeINSt7__cxx1112basic_stringIcSt11char_traitsIcESaIcEEES5_St9_IdentityIS5_ESt4lessIS5_ESaIS5_EE8_S_rightEPSt18_Rb_tree_node_base
FN:775,_ZNSt8_Rb_treeINSt7__cxx1112basic_stringIcSt11char_traitsIcESaIcEEES5_St9_IdentityIS5_ESt4lessIS5_ESaIS5_EE8_S_rightEPKSt18_Rb_tree_node_base
FN:779,_ZNSt8_Rb_treeINSt7__cxx1112basic_stringIcSt11char_traitsIcESaIcEEESt4pairIKS5_mESt10_Select1stIS8_ESt4lessIS5_ESaIS8_EE8_S_valueEPKSt18_Rb_tree_node_base
FN:779,_ZNSt8_Rb_treeINSt7__cxx1112basic_stringIcSt11char_traitsIcESaIcEEES5_St9_IdentityIS5_ESt4lessIS5_ESaIS5_EE8_S_valueEPKSt18_Rb_tree_node_base
FN:783,_ZNSt8_Rb_treeINSt7__cxx1112basic_stringIcSt11char_traitsIcESaIcEEESt4pairIKS5_mESt10_Select1stIS8_ESt4lessIS5_ESaIS8_EE6_S_keyEPKSt18_Rb_tree_node_base
FN:783,_ZNSt8_Rb_treeINSt7__cxx1112basic_stringIcSt11char_traitsIcESaIcEEES5_St9_IdentityIS5_ESt4lessIS5_ESaIS5_EE6_S_keyEPKSt18_Rb_tree_node_base
FN:911,_ZNSt8_Rb_treeINSt7__cxx1112basic_stringIcSt11char_traitsIcESaIcEEES5_St9_IdentityIS5_ESt4lessIS5_ESaIS5_EEC2Ev
FN:911,_ZNSt8_Rb_treeINSt7__cxx1112basic_stringIcSt11char_traitsIcESaIcEEESt4pairIKS5_mESt10_Select1stIS8_ESt4lessIS5_ESaIS8_EEC2Ev
FN:946,_ZNSt8_Rb_treeINSt7__cxx1112basic_stringIcSt11char_traitsIcESaIcEEESt4pairIKS5_mESt10_Select1stIS8_ESt4lessIS5_ESaIS8_EED2Ev
FN:946,_ZNSt8_Rb_treeINSt7__cxx1112basic_stringIcSt11char_traitsIcESaIcEEES5_St9_IdentityIS5_ESt4lessIS5_ESaIS5_EED2Ev
FN:954,_ZNKSt8_Rb_treeINSt7__cxx1112basic_stringIcSt11char_traitsIcESaIcEEESt4pairIKS5_mESt10_Select1stIS8_ESt4lessIS5_ESaIS8_EE8key_compEv
FN:958,_ZNSt8_Rb_treeINSt7__cxx1112basic_stringIcSt11char_traitsIcESaIcEEES5_St9_IdentityIS5_ESt4lessIS5_ESaIS5_EE5beginEv
FN:958,_ZNSt8_Rb_treeINSt7__cxx1112basic_stringIcSt11char_traitsIcESaIcEEESt4pairIKS5_mESt10_Select1stIS8_ESt4lessIS5_ESaIS8_EE5beginEv
FN:958,_ZNSt8_Rb_treeINSt7__cxx1112basic_stringIcSt11char_traitsIcESaIcEEESt4pairIKS5_N7testing8internal12CodeLocationEESt10_Select1stISB_ESt4lessIS5_ESaISB_EE5beginEv
FN:966,_ZNSt8_Rb_treeINSt7__cxx1112basic_stringIcSt11char_traitsIcESaIcEEESt4pairIKS5_mESt10_Select1stIS8_ESt4lessIS5_ESaIS8_EE3endEv
FN:966,_ZNSt8_Rb_treeINSt7__cxx1112basic_stringIcSt11char_traitsIcESaIcEEESt4pairIKS5_N7testing8internal12CodeLocationEESt10_Select1stISB_ESt4lessIS5_ESaISB_EE3endEv
FN:970,_ZNKSt8_Rb_treeINSt7__cxx1112basic_stringIcSt11char_traitsIcESaIcEEES5_St9_IdentityIS5_ESt4lessIS5_ESaIS5_EE3endEv
FN:994,_ZNKSt8_Rb_treeINSt7__cxx1112basic_stringIcSt11char_traitsIcESaIcEEESt4pairIKS5_mESt10_Select1stIS8_ESt4lessIS5_ESaIS8_EE4sizeEv
FN:1184,_ZNSt8_Rb_treeINSt7__cxx1112basic_stringIcSt11char_traitsIcESaIcEEESt4pairIKS5_mESt10_Select1stIS8_ESt4lessIS5_ESaIS8_EE11lower_boundERS7_
FN:1738,_ZNSt8_Rb_treeINSt7__cxx1112basic_stringIcSt11char_traitsIcESaIcEEES5_St9_IdentityIS5_ESt4lessIS5_ESaIS5_EE10_M_insert_IRKS5_NSB_11_Alloc_nodeEEESt17_Rb_tree_iteratorIS5_EPSt18_Rb_tree_node_baseSJ_OT_RT0_
FN:1848,_ZNSt8_Rb_treeINSt7__cxx1112basic_stringIcSt11char_traitsIcESaIcEEESt4pairIKS5_mESt10_Select1stIS8_ESt4lessIS5_ESaIS8_EE8_M_eraseEPSt13_Rb_tree_nodeIS8_E
FN:1848,_ZNSt8_Rb_treeINSt7__cxx1112basic_stringIcSt11char_traitsIcESaIcEEES5_St9_IdentityIS5_ESt4lessIS5_ESaIS5_EE8_M_eraseEPSt13_Rb_tree_nodeIS5_E
FN:1865,_ZNSt8_Rb_treeINSt7__cxx1112basic_stringIcSt11char_traitsIcESaIcEEESt4pairIKS5_mESt10_Select1stIS8_ESt4lessIS5_ESaIS8_EE14_M_lower_boundEPSt13_Rb_tree_nodeIS8_EPSt18_Rb_tree_node_baseRS7_
FN:1881,_ZNKSt8_Rb_treeINSt7__cxx1112basic_stringIcSt11char_traitsIcESaIcEEES5_St9_IdentityIS5_ESt4lessIS5_ESaIS5_EE14_M_lower_boundEPKSt13_Rb_tree_nodeIS5_EPKSt18_Rb_tree_node_baseRKS5_
FN:2026,_ZNSt8_Rb_treeINSt7__cxx1112basic_stringIcSt11char_traitsIcESaIcEEESt4pairIKS5_mESt10_Select1stIS8_ESt4lessIS5_ESaIS8_EE24_M_get_insert_unique_posERS7_
FN:2026,_ZNSt8_Rb_treeINSt7__cxx1112basic_stringIcSt11char_traitsIcESaIcEEES5_St9_IdentityIS5_ESt4lessIS5_ESaIS5_EE24_M_get_insert_unique_posERKS5_
FN:2080,_ZNSt8_Rb_treeINSt7__cxx1112basic_stringIcSt11char_traitsIcESaIcEEES5_St9_IdentityIS5_ESt4lessIS5_ESaIS5_EE16_M_insert_uniqueIRKS5_EESt4pairISt17_Rb_tree_iteratorIS5_EbEOT_
FN:2128,_ZNSt8_Rb_treeINSt7__cxx1112basic_stringIcSt11char_traitsIcESaIcEEESt4pairIKS5_mESt10_Select1stIS8_ESt4lessIS5_ESaIS8_EE29_M_get_insert_hint_unique_posESt23_Rb_tree_const_iteratorIS8_ERS7_
FN:2295,_ZNSt8_Rb_treeINSt7__cxx1112basic_stringIcSt11char_traitsIcESaIcEEESt4pairIKS5_mESt10_Select1stIS8_ESt4lessIS5_ESaIS8_EE14_M_insert_nodeEPSt18_Rb_tree_node_baseSG_PSt13_Rb_tree_nodeIS8_E
FN:2393,_ZNSt8_Rb_treeINSt7__cxx1112basic_stringIcSt11char_traitsIcESaIcEEESt4pairIKS5_mESt10_Select1stIS8_ESt4lessIS5_ESaIS8_EE22_M_emplace_hint_uniqueIJRKSt21piecewise_construct_tSt5tupleIJRS7_EESJ_IJEEEEESt17_Rb_tree_iteratorIS8_ESt23_Rb_tree_const_iteratorIS8_EDpOT_
FN:2518,_ZNSt8_Rb_treeINSt7__cxx1112basic_stringIcSt11char_traitsIcESaIcEEESt4pairIKS5_mESt10_Select1stIS8_ESt4lessIS5_ESaIS8_EE4findERS7_
FN:2531,_ZNKSt8_Rb_treeINSt7__cxx1112basic_stringIcSt11char_traitsIcESaIcEEES5_St9_IdentityIS5_ESt4lessIS5_ESaIS5_EE4findERKS5_
FNDA:0,_ZNSt20_Rb_tree_key_compareISt4lessINSt7__cxx1112basic_stringIcSt11char_traitsIcESaIcEEEEEC2Ev
FNDA:0,_ZNSt15_Rb_tree_headerC2Ev
FNDA:0,_ZNSt15_Rb_tree_header8_M_resetEv
FNDA:0,_ZNSt13_Rb_tree_nodeINSt7__cxx1112basic_stringIcSt11char_traitsIcESaIcEEEE9_M_valptrEv
FNDA:0,_ZNSt13_Rb_tree_nodeISt4pairIKNSt7__cxx1112basic_stringIcSt11char_traitsIcESaIcEEEmEE9_M_valptrEv
FNDA:0,_ZNKSt13_Rb_tree_nodeINSt7__cxx1112basic_stringIcSt11char_traitsIcESaIcEEEE9_M_valptrEv
FNDA:0,_ZNKSt13_Rb_tree_nodeISt4pairIKNSt7__cxx1112basic_stringIcSt11char_traitsIcESaIcEEEmEE9_M_valptrEv
FNDA:0,_ZNKSt13_Rb_tree_nodeISt4pairIKNSt7__cxx1112basic_stringIcSt11char_traitsIcESaIcEEEN7testing8internal12CodeLocationEEE9_M_valptrEv
FNDA:0,_ZNSt17_Rb_tree_iteratorINSt7__cxx1112basic_stringIcSt11char_traitsIcESaIcEEEEC2EPSt18_Rb_tree_node_base
FNDA:0,_ZNSt17_Rb_tree_iteratorISt4pairIKNSt7__cxx1112basic_stringIcSt11char_traitsIcESaIcEEEmEEC2EPSt18_Rb_tree_node_base
FNDA:0,_ZNSt17_Rb_tree_iteratorISt4pairIKNSt7__cxx1112basic_stringIcSt11char_traitsIcESaIcEEEN7testing8internal12CodeLocationEEEC2EPSt18_Rb_tree_node_base
FNDA:0,_ZNKSt17_Rb_tree_iteratorISt4pairIKNSt7__cxx1112basic_stringIcSt11char_traitsIcESaIcEEEmEEdeEv
FNDA:0,_ZNKSt17_Rb_tree_iteratorISt4pairIKNSt7__cxx1112basic_stringIcSt11char_traitsIcESaIcEEEmEEptEv
FNDA:0,_ZNSt17_Rb_tree_iteratorISt4pairIKNSt7__cxx1112basic_stringIcSt11char_traitsIcESaIcEEEmEEppEv
FNDA:0,_ZNSt17_Rb_tree_iteratorINSt7__cxx1112basic_stringIcSt11char_traitsIcESaIcEEEEmmEv
FNDA:0,_ZNSt17_Rb_tree_iteratorISt4pairIKNSt7__cxx1112basic_stringIcSt11char_traitsIcESaIcEEEmEEmmEv
FNDA:0,_ZNKSt17_Rb_tree_iteratorINSt7__cxx1112basic_stringIcSt11char_traitsIcESaIcEEEEeqERKS6_
FNDA:0,_ZNKSt17_Rb_tree_iteratorISt4pairIKNSt7__cxx1112basic_stringIcSt11char_traitsIcESaIcEEEmEEeqERKS9_
FNDA:0,_ZNKSt17_Rb_tree_iteratorISt4pairIKNSt7__cxx1112basic_stringIcSt11char_traitsIcESaIcEEEmEEneERKS9_
FNDA:0,_ZNSt23_Rb_tree_const_iteratorINSt7__cxx1112basic_stringIcSt11char_traitsIcESaIcEEEEC2EPKSt18_Rb_tree_node_base
FNDA:0,_ZNSt23_Rb_tree_const_iteratorINSt7__cxx1112basic_stringIcSt11char_traitsIcESaIcEEEEC2ERKSt17_Rb_tree_iteratorIS5_E
FNDA:0,_ZNSt23_Rb_tree_const_iteratorISt4pairIKNSt7__cxx1112basic_stringIcSt11char_traitsIcESaIcEEEmEEC2ERKSt17_Rb_tree_iteratorIS8_E
FNDA:0,_ZNSt23_Rb_tree_const_iteratorISt4pairIKNSt7__cxx1112basic_stringIcSt11char_traitsIcESaIcEEEN7testing8internal12CodeLocationEEEC2ERKSt17_Rb_tree_iteratorISB_E
FNDA:0,_ZNKSt23_Rb_tree_const_iteratorISt4pairIKNSt7__cxx1112basic_stringIcSt11char_traitsIcESaIcEEEmEE13_M_const_castEv
FNDA:0,_ZNKSt23_Rb_tree_const_iteratorISt4pairIKNSt7__cxx1112basic_stringIcSt11char_traitsIcESaIcEEEN7testing8internal12CodeLocationEEEptEv
FNDA:0,_ZNSt23_Rb_tree_const_iteratorISt4pairIKNSt7__cxx1112basic_stringIcSt11char_traitsIcESaIcEEEN7testing8internal12CodeLocationEEEppEv
FNDA:0,_ZNKSt23_Rb_tree_const_iteratorINSt7__cxx1112basic_stringIcSt11char_traitsIcESaIcEEEEeqERKS6_
FNDA:0,_ZNKSt23_Rb_tree_const_iteratorISt4pairIKNSt7__cxx1112basic_stringIcSt11char_traitsIcESaIcEEEN7testing8internal12CodeLocationEEEneERKSC_
FNDA:0,_ZNSt8_Rb_treeINSt7__cxx1112basic_stringIcSt11char_traitsIcESaIcEEES5_St9_IdentityIS5_ESt4lessIS5_ESaIS5_EE11_Alloc_nodeC2ERSB_
FNDA:0,_ZNKSt8_Rb_treeINSt7__cxx1112basic_stringIcSt11char_traitsIcESaIcEEES5_St9_IdentityIS5_ESt4lessIS5_ESaIS5_EE11_Alloc_nodeclIRKS5_EEPSt13_Rb_tree_nodeIS5_EOT_
FNDA:0,_ZNSt8_Rb_treeINSt7__cxx1112basic_stringIcSt11char_traitsIcESaIcEEES5_St9_IdentityIS5_ESt4lessIS5_ESaIS5_EE21_M_get_Node_allocatorEv
FNDA:0,_ZNSt8_Rb_treeINSt7__cxx1112basic_stringIcSt11char_traitsIcESaIcEEESt4pairIKS5_mESt10_Select1stIS8_ESt4lessIS5_ESaIS8_EE21_M_get_Node_allocatorEv
FNDA:0,_ZNSt8_Rb_treeINSt7__cxx1112basic_stringIcSt11char_traitsIcESaIcEEES5_St9_IdentityIS5_ESt4lessIS5_ESaIS5_EE11_M_get_nodeEv
FNDA:0,_ZNSt8_Rb_treeINSt7__cxx1112basic_stringIcSt11char_traitsIcESaIcEEESt4pairIKS5_mESt10_Select1stIS8_ESt4lessIS5_ESaIS8_EE11_M_get_nodeEv
FNDA:0,_ZNSt8_Rb_treeINSt7__cxx1112basic_stringIcSt11char_traitsIcESaIcEEES5_St9_IdentityIS5_ESt4lessIS5_ESaIS5_EE11_M_put_nodeEPSt13_Rb_tree_nodeIS5_E
FNDA:0,_ZNSt8_Rb_treeINSt7__cxx1112basic_stringIcSt11char_traitsIcESaIcEEESt4pairIKS5_mESt10_Select1stIS8_ESt4lessIS5_ESaIS8_EE11_M_put_nodeEPSt13_Rb_tree_nodeIS8_E
FNDA:0,_ZNSt8_Rb_treeINSt7__cxx1112basic_stringIcSt11char_traitsIcESaIcEEES5_St9_IdentityIS5_ESt4lessIS5_ESaIS5_EE17_M_construct_nodeIJRKS5_EEEvPSt13_Rb_tree_nodeIS5_EDpOT_
FNDA:0,_ZNSt8_Rb_treeINSt7__cxx1112basic_stringIcSt11char_traitsIcESaIcEEESt4pairIKS5_mESt10_Select1stIS8_ESt4lessIS5_ESaIS8_EE17_M_construct_nodeIJRKSt21piecewise_construct_tSt5tupleIJRS7_EESJ_IJEEEEEvPSt13_Rb_tree_nodeIS8_EDpOT_
FNDA:0,_ZNSt8_Rb_treeINSt7__cxx1112basic_stringIcSt11char_traitsIcESaIcEEES5_St9_IdentityIS5_ESt4lessIS5_ESaIS5_EE14_M_create_nodeIJRKS5_EEEPSt13_Rb_tree_nodeIS5_EDpOT_
FNDA:0,_ZNSt8_Rb_treeINSt7__cxx1112basic_stringIcSt11char_traitsIcESaIcEEESt4pairIKS5_mESt10_Select1stIS8_ESt4lessIS5_ESaIS8_EE14_M_create_nodeIJRKSt21piecewise_construct_tSt5tupleIJRS7_EESJ_IJEEEEEPSt13_Rb_tree_nodeIS8_EDpOT_
FNDA:0,_ZNSt8_Rb_treeINSt7__cxx1112basic_stringIcSt11char_traitsIcESaIcEEES5_St9_IdentityIS5_ESt4lessIS5_ESaIS5_EE15_M_destroy_nodeEPSt13_Rb_tree_nodeIS5_E
FNDA:0,_ZNSt8_Rb_treeINSt7__cxx1112basic_stringIcSt11char_traitsIcESaIcEEESt4pairIKS5_mESt10_Select1stIS8_ESt4lessIS5_ESaIS8_EE15_M_destroy_nodeEPSt13_Rb_tree_nodeIS8_E
FNDA:0,_ZNSt8_Rb_treeINSt7__cxx1112basic_stringIcSt11char_traitsIcESaIcEEES5_St9_IdentityIS5_ESt4lessIS5_ESaIS5_EE12_M_drop_nodeEPSt13_Rb_tree_nodeIS5_E
FNDA:0,_ZNSt8_Rb_treeINSt7__cxx1112basic_stringIcSt11char_traitsIcESaIcEEESt4pairIKS5_mESt10_Select1stIS8_ESt4lessIS5_ESaIS8_EE12_M_drop_nodeEPSt13_Rb_tree_nodeIS8_E
FNDA:0,_ZNSt8_Rb_treeINSt7__cxx1112basic_stringIcSt11char_traitsIcESaIcEEES5_St9_IdentityIS5_ESt4lessIS5_ESaIS5_EE13_Rb_tree_implIS9_Lb1EED2Ev
FNDA:0,_ZNSt8_Rb_treeINSt7__cxx1112basic_stringIcSt11char_traitsIcESaIcEEESt4pairIKS5_mESt10_Select1stIS8_ESt4lessIS5_ESaIS8_EE13_Rb_tree_implISC_Lb1EED2Ev
FNDA:0,_ZNSt8_Rb_treeINSt7__cxx1112basic_stringIcSt11char_traitsIcESaIcEEES5_St9_IdentityIS5_ESt4lessIS5_ESaIS5_EE13_Rb_tree_implIS9_Lb1EEC2Ev
FNDA:0,_ZNSt8_Rb_treeINSt7__cxx1112basic_stringIcSt11char_traitsIcESaIcEEESt4pairIKS5_mESt10_Select1stIS8_ESt4lessIS5_ESaIS8_EE13_Rb_tree_implISC_Lb1EEC2Ev
FNDA:0,_ZNSt8_Rb_treeINSt7__cxx1112basic_stringIcSt11char_traitsIcESaIcEEESt4pairIKS5_mESt10_Select1stIS8_ESt4lessIS5_ESaIS8_EE11_M_leftmostEv
FNDA:0,_ZNSt8_Rb_treeINSt7__cxx1112basic_stringIcSt11char_traitsIcESaIcEEESt4pairIKS5_mESt10_Select1stIS8_ESt4lessIS5_ESaIS8_EE12_M_rightmostEv
FNDA:0,_ZNSt8_Rb_treeINSt7__cxx1112basic_stringIcSt11char_traitsIcESaIcEEES5_St9_IdentityIS5_ESt4lessIS5_ESaIS5_EE8_M_beginEv
FNDA:0,_ZNSt8_Rb_treeINSt7__cxx1112basic_stringIcSt11char_traitsIcESaIcEEESt4pairIKS5_mESt10_Select1stIS8_ESt4lessIS5_ESaIS8_EE8_M_beginEv
FNDA:0,_ZNKSt8_Rb_treeINSt7__cxx1112basic_stringIcSt11char_traitsIcESaIcEEES5_St9_IdentityIS5_ESt4lessIS5_ESaIS5_EE8_M_beginEv
FNDA:0,_ZNSt8_Rb_treeINSt7__cxx1112basic_stringIcSt11char_traitsIcESaIcEEES5_St9_IdentityIS5_ESt4lessIS5_ESaIS5_EE6_M_endEv
FNDA:0,_ZNSt8_Rb_treeINSt7__cxx1112basic_stringIcSt11char_traitsIcESaIcEEESt4pairIKS5_mESt10_Select1stIS8_ESt4lessIS5_ESaIS8_EE6_M_endEv
FNDA:0,_ZNKSt8_Rb_treeINSt7__cxx1112basic_stringIcSt11char_traitsIcESaIcEEES5_St9_IdentityIS5_ESt4lessIS5_ESaIS5_EE6_M_endEv
FNDA:0,_ZNSt8_Rb_treeINSt7__cxx1112basic_stringIcSt11char_traitsIcESaIcEEES5_St9_IdentityIS5_ESt4lessIS5_ESaIS5_EE8_S_valueEPKSt13_Rb_tree_nodeIS5_E
FNDA:0,_ZNSt8_Rb_treeINSt7__cxx1112basic_stringIcSt11char_traitsIcESaIcEEESt4pairIKS5_mESt10_Select1stIS8_ESt4lessIS5_ESaIS8_EE8_S_valueEPKSt13_Rb_tree_nodeIS8_E
FNDA:0,_ZNSt8_Rb_treeINSt7__cxx1112basic_stringIcSt11char_traitsIcESaIcEEES5_St9_IdentityIS5_ESt4lessIS5_ESaIS5_EE6_S_keyEPKSt13_Rb_tree_nodeIS5_E
FNDA:0,_ZNSt8_Rb_treeINSt7__cxx1112basic_stringIcSt11char_traitsIcESaIcEEESt4pairIKS5_mESt10_Select1stIS8_ESt4lessIS5_ESaIS8_EE6_S_keyEPKSt13_Rb_tree_nodeIS8_E
FNDA:0,_ZNSt8_Rb_treeINSt7__cxx1112basic_stringIcSt11char_traitsIcESaIcEEES5_St9_IdentityIS5_ESt4lessIS5_ESaIS5_EE7_S_leftEPSt18_Rb_tree_node_base
FNDA:0,_ZNSt8_Rb_treeINSt7__cxx1112basic_stringIcSt11char_traitsIcESaIcEEESt4pairIKS5_mESt10_Select1stIS8_ESt4lessIS5_ESaIS8_EE7_S_leftEPSt18_Rb_tree_node_base
FNDA:0,_ZNSt8_Rb_treeINSt7__cxx1112basic_stringIcSt11char_traitsIcESaIcEEES5_St9_IdentityIS5_ESt4lessIS5_ESaIS5_EE7_S_leftEPKSt18_Rb_tree_node_base
FNDA:0,_ZNSt8_Rb_treeINSt7__cxx1112basic_stringIcSt11char_traitsIcESaIcEEES5_St9_IdentityIS5_ESt4lessIS5_ESaIS5_EE8_S_rightEPSt18_Rb_tree_node_base
FNDA:0,_ZNSt8_Rb_treeINSt7__cxx1112basic_stringIcSt11char_traitsIcESaIcEEESt4pairIKS5_mESt10_Select1stIS8_ESt4lessIS5_ESaIS8_EE8_S_rightEPSt18_Rb_tree_node_base
FNDA:0,_ZNSt8_Rb_treeINSt7__cxx1112basic_stringIcSt11char_traitsIcESaIcEEES5_St9_IdentityIS5_ESt4lessIS5_ESaIS5_EE8_S_rightEPKSt18_Rb_tree_node_base
FNDA:0,_ZNSt8_Rb_treeINSt7__cxx1112basic_stringIcSt11char_traitsIcESaIcEEES5_St9_IdentityIS5_ESt4lessIS5_ESaIS5_EE8_S_valueEPKSt18_Rb_tree_node_base
FNDA:0,_ZNSt8_Rb_treeINSt7__cxx1112basic_stringIcSt11char_traitsIcESaIcEEESt4pairIKS5_mESt10_Select1stIS8_ESt4lessIS5_ESaIS8_EE8_S_valueEPKSt18_Rb_tree_node_base
FNDA:0,_ZNSt8_Rb_treeINSt7__cxx1112basic_stringIcSt11char_traitsIcESaIcEEES5_St9_IdentityIS5_ESt4lessIS5_ESaIS5_EE6_S_keyEPKSt18_Rb_tree_node_base
FNDA:0,_ZNSt8_Rb_treeINSt7__cxx1112basic_stringIcSt11char_traitsIcESaIcEEESt4pairIKS5_mESt10_Select1stIS8_ESt4lessIS5_ESaIS8_EE6_S_keyEPKSt18_Rb_tree_node_base
FNDA:0,_ZNSt8_Rb_treeINSt7__cxx1112basic_stringIcSt11char_traitsIcESaIcEEES5_St9_IdentityIS5_ESt4lessIS5_ESaIS5_EEC2Ev
FNDA:0,_ZNSt8_Rb_treeINSt7__cxx1112basic_stringIcSt11char_traitsIcESaIcEEESt4pairIKS5_mESt10_Select1stIS8_ESt4lessIS5_ESaIS8_EEC2Ev
FNDA:0,_ZNSt8_Rb_treeINSt7__cxx1112basic_stringIcSt11char_traitsIcESaIcEEES5_St9_IdentityIS5_ESt4lessIS5_ESaIS5_EED2Ev
FNDA:0,_ZNSt8_Rb_treeINSt7__cxx1112basic_stringIcSt11char_traitsIcESaIcEEESt4pairIKS5_mESt10_Select1stIS8_ESt4lessIS5_ESaIS8_EED2Ev
FNDA:0,_ZNKSt8_Rb_treeINSt7__cxx1112basic_stringIcSt11char_traitsIcESaIcEEESt4pairIKS5_mESt10_Select1stIS8_ESt4lessIS5_ESaIS8_EE8key_compEv
FNDA:0,_ZNSt8_Rb_treeINSt7__cxx1112basic_stringIcSt11char_traitsIcESaIcEEESt4pairIKS5_mESt10_Select1stIS8_ESt4lessIS5_ESaIS8_EE5beginEv
FNDA:0,_ZNSt8_Rb_treeINSt7__cxx1112basic_stringIcSt11char_traitsIcESaIcEEES5_St9_IdentityIS5_ESt4lessIS5_ESaIS5_EE5beginEv
FNDA:0,_ZNSt8_Rb_treeINSt7__cxx1112basic_stringIcSt11char_traitsIcESaIcEEESt4pairIKS5_N7testing8internal12CodeLocationEESt10_Select1stISB_ESt4lessIS5_ESaISB_EE5beginEv
FNDA:0,_ZNSt8_Rb_treeINSt7__cxx1112basic_stringIcSt11char_traitsIcESaIcEEESt4pairIKS5_N7testing8internal12CodeLocationEESt10_Select1stISB_ESt4lessIS5_ESaISB_EE3endEv
FNDA:0,_ZNSt8_Rb_treeINSt7__cxx1112basic_stringIcSt11char_traitsIcESaIcEEESt4pairIKS5_mESt10_Select1stIS8_ESt4lessIS5_ESaIS8_EE3endEv
FNDA:0,_ZNKSt8_Rb_treeINSt7__cxx1112basic_stringIcSt11char_traitsIcESaIcEEES5_St9_IdentityIS5_ESt4lessIS5_ESaIS5_EE3endEv
FNDA:0,_ZNKSt8_Rb_treeINSt7__cxx1112basic_stringIcSt11char_traitsIcESaIcEEESt4pairIKS5_mESt10_Select1stIS8_ESt4lessIS5_ESaIS8_EE4sizeEv
FNDA:0,_ZNSt8_Rb_treeINSt7__cxx1112basic_stringIcSt11char_traitsIcESaIcEEESt4pairIKS5_mESt10_Select1stIS8_ESt4lessIS5_ESaIS8_EE11lower_boundERS7_
FNDA:0,_ZNSt8_Rb_treeINSt7__cxx1112basic_stringIcSt11char_traitsIcESaIcEEES5_St9_IdentityIS5_ESt4lessIS5_ESaIS5_EE10_M_insert_IRKS5_NSB_11_Alloc_nodeEEESt17_Rb_tree_iteratorIS5_EPSt18_Rb_tree_node_baseSJ_OT_RT0_
FNDA:0,_ZNSt8_Rb_treeINSt7__cxx1112basic_stringIcSt11char_traitsIcESaIcEEES5_St9_IdentityIS5_ESt4lessIS5_ESaIS5_EE8_M_eraseEPSt13_Rb_tree_nodeIS5_E
FNDA:0,_ZNSt8_Rb_treeINSt7__cxx1112basic_stringIcSt11char_traitsIcESaIcEEESt4pairIKS5_mESt10_Select1stIS8_ESt4lessIS5_ESaIS8_EE8_M_eraseEPSt13_Rb_tree_nodeIS8_E
FNDA:0,_ZNSt8_Rb_treeINSt7__cxx1112basic_stringIcSt11char_traitsIcESaIcEEESt4pairIKS5_mESt10_Select1stIS8_ESt4lessIS5_ESaIS8_EE14_M_lower_boundEPSt13_Rb_tree_nodeIS8_EPSt18_Rb_tree_node_baseRS7_
FNDA:0,_ZNKSt8_Rb_treeINSt7__cxx1112basic_stringIcSt11char_traitsIcESaIcEEES5_St9_IdentityIS5_ESt4lessIS5_ESaIS5_EE14_M_lower_boundEPKSt13_Rb_tree_nodeIS5_EPKSt18_Rb_tree_node_baseRKS5_
FNDA:0,_ZNSt8_Rb_treeINSt7__cxx1112basic_stringIcSt11char_traitsIcESaIcEEESt4pairIKS5_mESt10_Select1stIS8_ESt4lessIS5_ESaIS8_EE24_M_get_insert_unique_posERS7_
FNDA:0,_ZNSt8_Rb_treeINSt7__cxx1112basic_stringIcSt11char_traitsIcESaIcEEES5_St9_IdentityIS5_ESt4lessIS5_ESaIS5_EE24_M_get_insert_unique_posERKS5_
FNDA:0,_ZNSt8_Rb_treeINSt7__cxx1112basic_stringIcSt11char_traitsIcESaIcEEES5_St9_IdentityIS5_ESt4lessIS5_ESaIS5_EE16_M_insert_uniqueIRKS5_EESt4pairISt17_Rb_tree_iteratorIS5_EbEOT_
FNDA:0,_ZNSt8_Rb_treeINSt7__cxx1112basic_stringIcSt11char_traitsIcESaIcEEESt4pairIKS5_mESt10_Select1stIS8_ESt4lessIS5_ESaIS8_EE29_M_get_insert_hint_unique_posESt23_Rb_tree_const_iteratorIS8_ERS7_
FNDA:0,_ZNSt8_Rb_treeINSt7__cxx1112basic_stringIcSt11char_traitsIcESaIcEEESt4pairIKS5_mESt10_Select1stIS8_ESt4lessIS5_ESaIS8_EE14_M_insert_nodeEPSt18_Rb_tree_node_baseSG_PSt13_Rb_tree_nodeIS8_E
FNDA:0,_ZNSt8_Rb_treeINSt7__cxx1112basic_stringIcSt11char_traitsIcESaIcEEESt4pairIKS5_mESt10_Select1stIS8_ESt4lessIS5_ESaIS8_EE22_M_emplace_hint_uniqueIJRKSt21piecewise_construct_tSt5tupleIJRS7_EESJ_IJEEEEESt17_Rb_tree_iteratorIS8_ESt23_Rb_tree_const_iteratorIS8_EDpOT_
FNDA:0,_ZNSt8_Rb_treeINSt7__cxx1112basic_stringIcSt11char_traitsIcESaIcEEESt4pairIKS5_mESt10_Select1stIS8_ESt4lessIS5_ESaIS8_EE4findERS7_
FNDA:0,_ZNKSt8_Rb_treeINSt7__cxx1112basic_stringIcSt11char_traitsIcESaIcEEES5_St9_IdentityIS5_ESt4lessIS5_ESaIS5_EE4findERKS5_
FNF:96
FNH:0
DA:146,0
DA:150,0
DA:173,0
DA:174,0
DA:175,0
DA:176,0
DA:177,0
DA:206,0
DA:208,0
DA:209,0
DA:210,0
DA:211,0
DA:212,0
DA:234,0
DA:235,0
DA:238,0
DA:239,0
DA:273,0
DA:274,0
DA:277,0
DA:278,0
DA:281,0
DA:282,0
DA:285,0
DA:287,0
DA:288,0
DA:300,0
DA:302,0
DA:303,0
DA:315,0
DA:316,0
DA:319,0
DA:320,0
DA:345,0
DA:346,0
DA:348,0
DA:349,0
DA:352,0
DA:353,0
DA:360,0
DA:361,0
DA:364,0
DA:366,0
DA:367,0
DA:394,0
DA:395,0
DA:398,0
DA:399,0
DA:546,0
DA:547,0
DA:554,0
DA:556,0
DA:574,0
DA:575,0
DA:587,0
DA:588,0
DA:591,0
DA:592,0
DA:621,0
DA:625,0
DA:626,0
DA:630,0
DA:633,0
DA:634,0
DA:636,0
DA:640,0
DA:642,0
DA:643,0
DA:644,0
DA:648,0
DA:650,0
DA:652,0
DA:656,0
DA:658,0
DA:659,0
DA:660,0
DA:677,0
DA:688,0
DA:720,0
DA:721,0
DA:728,0
DA:729,0
DA:736,0
DA:737,0
DA:740,0
DA:743,0
DA:747,0
DA:748,0
DA:751,0
DA:752,0
DA:755,0
DA:756,0
DA:759,0
DA:760,0
DA:763,0
DA:764,0
DA:767,0
DA:768,0
DA:771,0
DA:772,0
DA:775,0
DA:776,0
DA:779,0
DA:780,0
DA:783,0
DA:784,0
DA:911,0
DA:946,0
DA:947,0
DA:954,0
DA:955,0
DA:958,0
DA:959,0
DA:966,0
DA:967,0
DA:970,0
DA:971,0
DA:994,0
DA:995,0
DA:1184,0
DA:1185,0
DA:1738,0
DA:1747,0
DA:1748,0
DA:1751,0
DA:1753,0
DA:1755,0
DA:1756,0
DA:1848,0
DA:1852,0
DA:1854,0
DA:1855,0
DA:1856,0
DA:1857,0
DA:1859,0
DA:1865,0
DA:1869,0
DA:1870,0
DA:1871,0
DA:1873,0
DA:1874,0
DA:1881,0
DA:1885,0
DA:1886,0
DA:1887,0
DA:1889,0
DA:1890,0
DA:2026,0
DA:2030,0
DA:2031,0
DA:2032,0
DA:2033,0
DA:2035,0
DA:2036,0
DA:2037,0
DA:2039,0
DA:2040,0
DA:2042,0
DA:2043,0
DA:2045,0
DA:2047,0
DA:2048,0
DA:2049,0
DA:2080,0
DA:2088,0
DA:2089,0
DA:2091,0
DA:2093,0
DA:2094,0
DA:2096,0
DA:2099,0
DA:2128,0
DA:2132,0
DA:2136,0
DA:2138,0
DA:2139,0
DA:2140,0
DA:2142,0
DA:2144,0
DA:2147,0
DA:2148,0
DA:2149,0
DA:2150,0
DA:2152,0
DA:2153,0
DA:2155,0
DA:2158,0
DA:2160,0
DA:2163,0
DA:2164,0
DA:2165,0
DA:2166,0
DA:2168,0
DA:2169,0
DA:2171,0
DA:2174,0
DA:2178,0
DA:2295,0
DA:2298,0
DA:2299,0
DA:2302,0
DA:2304,0
DA:2305,0
DA:2393,0
DA:2396,0
DA:2400,0
DA:2402,0
DA:2403,0
DA:2405,0
DA:2406,0
DA:2408,0
DA:2410,0
DA:2411,0
DA:2518,0
DA:2521,0
DA:2522,0
DA:2523,0
DA:2524,0
DA:2531,0
DA:2534,0
DA:2535,0
DA:2536,0
DA:2537,0
LF:223
LH:0
end_of_record
SF:/usr/local/include/c++/7.1.0/bits/stl_uninitialized.h
FN:76,_ZNSt20__uninitialized_copyILb0EE13__uninit_copyISt13move_iteratorIPN7testing8internal9TraceInfoEES6_EET0_T_S9_S8_
FN:76,_ZNSt20__uninitialized_copyILb0EE13__uninit_copyIPKPKcPNSt7__cxx1112basic_stringIcSt11char_traitsIcESaIcEEEEET0_T_SE_SD_
FN:76,_ZNSt20__uninitialized_copyILb0EE13__uninit_copyISt13move_iteratorIPN7testing14TestPartResultEES5_EET0_T_S8_S7_
FN:76,_ZNSt20__uninitialized_copyILb0EE13__uninit_copyISt13move_iteratorIPNSt7__cxx1112basic_stringIcSt11char_traitsIcESaIcEEEES9_EET0_T_SC_SB_
FN:76,_ZNSt20__uninitialized_copyILb0EE13__uninit_copyIN9__gnu_cxx17__normal_iteratorIPKNSt7__cxx1112basic_stringIcSt11char_traitsIcESaIcEEESt6vectorIS9_SaIS9_EEEEPS9_EET0_T_SI_SH_
FN:76,_ZNSt20__uninitialized_copyILb0EE13__uninit_copyISt13move_iteratorIPN7testing12TestPropertyEES5_EET0_T_S8_S7_
FN:99,_ZNSt20__uninitialized_copyILb1EE13__uninit_copyISt13move_iteratorIPPN7testing8TestCaseEES6_EET0_T_S9_S8_
FN:99,_ZNSt20__uninitialized_copyILb1EE13__uninit_copyISt13move_iteratorIPN7testing8internal13edit_distance8EditTypeEES7_EET0_T_SA_S9_
FN:99,_ZNSt20__uninitialized_copyILb1EE13__uninit_copyISt13move_iteratorIPiES3_EET0_T_S6_S5_
FN:99,_ZNSt20__uninitialized_copyILb1EE13__uninit_copyISt13move_iteratorIPPN7testing17TestEventListenerEES6_EET0_T_S9_S8_
FN:99,_ZNSt20__uninitialized_copyILb1EE13__uninit_copyISt13move_iteratorIPPN7testing11EnvironmentEES6_EET0_T_S9_S8_
FN:99,_ZNSt20__uninitialized_copyILb1EE13__uninit_copyISt13move_iteratorIPPcES4_EET0_T_S7_S6_
FN:99,_ZNSt20__uninitialized_copyILb1EE13__uninit_copyISt13move_iteratorIPmES3_EET0_T_S6_S5_
FN:99,_ZNSt20__uninitialized_copyILb1EE13__uninit_copyISt13move_iteratorIPPN7testing8TestInfoEES6_EET0_T_S9_S8_
FN:99,_ZNSt20__uninitialized_copyILb1EE13__uninit_copyIN9__gnu_cxx17__normal_iteratorIPKdSt6vectorIdSaIdEEEEPdEET0_T_SC_SB_
FN:99,_ZNSt20__uninitialized_copyILb1EE13__uninit_copyIN9__gnu_cxx17__normal_iteratorIPKN7testing8internal13edit_distance8EditTypeESt6vectorIS7_SaIS7_EEEEPS7_EET0_T_SG_SF_
FN:115,_ZSt18uninitialized_copyIPKPKcPNSt7__cxx1112basic_stringIcSt11char_traitsIcESaIcEEEET0_T_SC_SB_
FN:115,_ZSt18uninitialized_copyISt13move_iteratorIPN7testing14TestPartResultEES3_ET0_T_S6_S5_
FN:115,_ZSt18uninitialized_copyISt13move_iteratorIPPN7testing17TestEventListenerEES4_ET0_T_S7_S6_
FN:115,_ZSt18uninitialized_copyISt13move_iteratorIPN7testing8internal9TraceInfoEES4_ET0_T_S7_S6_
FN:115,_ZSt18uninitialized_copyIN9__gnu_cxx17__normal_iteratorIPKdSt6vectorIdSaIdEEEEPdET0_T_SA_S9_
FN:115,_ZSt18uninitialized_copyISt13move_iteratorIPN7testing8internal13edit_distance8EditTypeEES5_ET0_T_S8_S7_
FN:115,_ZSt18uninitialized_copyISt13move_iteratorIPN7testing12TestPropertyEES3_ET0_T_S6_S5_
FN:115,_ZSt18uninitialized_copyISt13move_iteratorIPPN7testing8TestInfoEES4_ET0_T_S7_S6_
FN:115,_ZSt18uninitialized_copyISt13move_iteratorIPmES1_ET0_T_S4_S3_
FN:115,_ZSt18uninitialized_copyIN9__gnu_cxx17__normal_iteratorIPKNSt7__cxx1112basic_stringIcSt11char_traitsIcESaIcEEESt6vectorIS7_SaIS7_EEEEPS7_ET0_T_SG_SF_
FN:115,_ZSt18uninitialized_copyISt13move_iteratorIPiES1_ET0_T_S4_S3_
FN:115,_ZSt18uninitialized_copyISt13move_iteratorIPPN7testing8TestCaseEES4_ET0_T_S7_S6_
FN:115,_ZSt18uninitialized_copyISt13move_iteratorIPNSt7__cxx1112basic_stringIcSt11char_traitsIcESaIcEEEES7_ET0_T_SA_S9_
FN:115,_ZSt18uninitialized_copyIN9__gnu_cxx17__normal_iteratorIPKN7testing8internal13edit_distance8EditTypeESt6vectorIS5_SaIS5_EEEEPS5_ET0_T_SE_SD_
FN:115,_ZSt18uninitialized_copyISt13move_iteratorIPPN7testing11EnvironmentEES4_ET0_T_S7_S6_
FN:115,_ZSt18uninitialized_copyISt13move_iteratorIPPcES2_ET0_T_S5_S4_
FN:203,_ZNSt22__uninitialized_fill_nILb0EE15__uninit_fill_nIPSt6vectorIdSaIdEEmS4_EET_S6_T0_RKT1_
FN:203,_ZNSt22__uninitialized_fill_nILb0EE15__uninit_fill_nIPSt6vectorIN7testing8internal13edit_distance8EditTypeESaIS6_EEmS8_EET_SA_T0_RKT1_
FN:244,_ZSt20uninitialized_fill_nIPSt6vectorIN7testing8internal13edit_distance8EditTypeESaIS4_EEmS6_ET_S8_T0_RKT1_
FN:244,_ZSt20uninitialized_fill_nIPSt6vectorIdSaIdEEmS2_ET_S4_T0_RKT1_
FN:287,_ZSt22__uninitialized_copy_aIPKPKcPNSt7__cxx1112basic_stringIcSt11char_traitsIcESaIcEEES9_ET0_T_SC_SB_RSaIT1_E
FN:287,_ZSt22__uninitialized_copy_aISt13move_iteratorIPPN7testing11EnvironmentEES4_S3_ET0_T_S7_S6_RSaIT1_E
FN:287,_ZSt22__uninitialized_copy_aISt13move_iteratorIPiES1_iET0_T_S4_S3_RSaIT1_E
FN:287,_ZSt22__uninitialized_copy_aISt13move_iteratorIPPN7testing8TestInfoEES4_S3_ET0_T_S7_S6_RSaIT1_E
FN:287,_ZSt22__uninitialized_copy_aISt13move_iteratorIPN7testing8internal9TraceInfoEES4_S3_ET0_T_S7_S6_RSaIT1_E
FN:287,_ZSt22__uninitialized_copy_aISt13move_iteratorIPPcES2_S1_ET0_T_S5_S4_RSaIT1_E
FN:287,_ZSt22__uninitialized_copy_aIN9__gnu_cxx17__normal_iteratorIPKNSt7__cxx1112basic_stringIcSt11char_traitsIcESaIcEEESt6vectorIS7_SaIS7_EEEEPS7_S7_ET0_T_SG_SF_RSaIT1_E
FN:287,_ZSt22__uninitialized_copy_aISt13move_iteratorIPN7testing8internal13edit_distance8EditTypeEES5_S4_ET0_T_S8_S7_RSaIT1_E
FN:287,_ZSt22__uninitialized_copy_aISt13move_iteratorIPPN7testing8TestCaseEES4_S3_ET0_T_S7_S6_RSaIT1_E
FN:287,_ZSt22__uninitialized_copy_aISt13move_iteratorIPN7testing14TestPartResultEES3_S2_ET0_T_S6_S5_RSaIT1_E
FN:287,_ZSt22__uninitialized_copy_aIN9__gnu_cxx17__normal_iteratorIPKdSt6vectorIdSaIdEEEEPddET0_T_SA_S9_RSaIT1_E
FN:287,_ZSt22__uninitialized_copy_aISt13move_iteratorIPNSt7__cxx1112basic_stringIcSt11char_traitsIcESaIcEEEES7_S6_ET0_T_SA_S9_RSaIT1_E
FN:287,_ZSt22__uninitialized_copy_aIN9__gnu_cxx17__normal_iteratorIPKN7testing8internal13edit_distance8EditTypeESt6vectorIS5_SaIS5_EEEEPS5_S5_ET0_T_SE_SD_RSaIT1_E
FN:287,_ZSt22__uninitialized_copy_aISt13move_iteratorIPmES1_mET0_T_S4_S3_RSaIT1_E
FN:287,_ZSt22__uninitialized_copy_aISt13move_iteratorIPN7testing12TestPropertyEES3_S2_ET0_T_S6_S5_RSaIT1_E
FN:287,_ZSt22__uninitialized_copy_aISt13move_iteratorIPPN7testing17TestEventListenerEES4_S3_ET0_T_S7_S6_RSaIT1_E
FN:305,_ZSt34__uninitialized_move_if_noexcept_aIPN7testing12TestPropertyES2_SaIS1_EET0_T_S5_S4_RT1_
FN:305,_ZSt34__uninitialized_move_if_noexcept_aIPNSt7__cxx1112basic_stringIcSt11char_traitsIcESaIcEEES6_SaIS5_EET0_T_S9_S8_RT1_
FN:305,_ZSt34__uninitialized_move_if_noexcept_aIPPcS1_SaIS0_EET0_T_S4_S3_RT1_
FN:305,_ZSt34__uninitialized_move_if_noexcept_aIPmS0_SaImEET0_T_S3_S2_RT1_
FN:305,_ZSt34__uninitialized_move_if_noexcept_aIPPN7testing8TestCaseES3_SaIS2_EET0_T_S6_S5_RT1_
FN:305,_ZSt34__uninitialized_move_if_noexcept_aIPN7testing14TestPartResultES2_SaIS1_EET0_T_S5_S4_RT1_
FN:305,_ZSt34__uninitialized_move_if_noexcept_aIPN7testing8internal9TraceInfoES3_SaIS2_EET0_T_S6_S5_RT1_
FN:305,_ZSt34__uninitialized_move_if_noexcept_aIPPN7testing17TestEventListenerES3_SaIS2_EET0_T_S6_S5_RT1_
FN:305,_ZSt34__uninitialized_move_if_noexcept_aIPiS0_SaIiEET0_T_S3_S2_RT1_
FN:305,_ZSt34__uninitialized_move_if_noexcept_aIPN7testing8internal13edit_distance8EditTypeES4_SaIS3_EET0_T_S7_S6_RT1_
FN:305,_ZSt34__uninitialized_move_if_noexcept_aIPPN7testing11EnvironmentES3_SaIS2_EET0_T_S6_S5_RT1_
FN:305,_ZSt34__uninitialized_move_if_noexcept_aIPPN7testing8TestInfoES3_SaIS2_EET0_T_S6_S5_RT1_
FN:364,_ZSt24__uninitialized_fill_n_aIPSt6vectorIN7testing8internal13edit_distance8EditTypeESaIS4_EEmS6_S6_ET_S8_T0_RKT1_RSaIT2_E
FN:364,_ZSt24__uninitialized_fill_n_aIPSt6vectorIdSaIdEEmS2_S2_ET_S4_T0_RKT1_RSaIT2_E
FN:543,_ZNSt27__uninitialized_default_n_1ILb1EE18__uninit_default_nIPdmEET_S3_T0_
FN:543,_ZNSt27__uninitialized_default_n_1ILb1EE18__uninit_default_nIPN7testing8internal13edit_distance8EditTypeEmEET_S7_T0_
FN:574,_ZSt25__uninitialized_default_nIPdmET_S1_T0_
FN:574,_ZSt25__uninitialized_default_nIPN7testing8internal13edit_distance8EditTypeEmET_S5_T0_
FN:643,_ZSt27__uninitialized_default_n_aIPN7testing8internal13edit_distance8EditTypeEmS3_ET_S5_T0_RSaIT1_E
FN:643,_ZSt27__uninitialized_default_n_aIPdmdET_S1_T0_RSaIT1_E
FNDA:0,_ZNSt20__uninitialized_copyILb0EE13__uninit_copyIPKPKcPNSt7__cxx1112basic_stringIcSt11char_traitsIcESaIcEEEEET0_T_SE_SD_
FNDA:2,_ZNSt20__uninitialized_copyILb0EE13__uninit_copyISt13move_iteratorIPNSt7__cxx1112basic_stringIcSt11char_traitsIcESaIcEEEES9_EET0_T_SC_SB_
FNDA:0,_ZNSt20__uninitialized_copyILb0EE13__uninit_copyISt13move_iteratorIPN7testing8internal9TraceInfoEES6_EET0_T_S9_S8_
FNDA:0,_ZNSt20__uninitialized_copyILb0EE13__uninit_copyISt13move_iteratorIPN7testing12TestPropertyEES5_EET0_T_S8_S7_
FNDA:0,_ZNSt20__uninitialized_copyILb0EE13__uninit_copyISt13move_iteratorIPN7testing14TestPartResultEES5_EET0_T_S8_S7_
FNDA:0,_ZNSt20__uninitialized_copyILb0EE13__uninit_copyIN9__gnu_cxx17__normal_iteratorIPKNSt7__cxx1112basic_stringIcSt11char_traitsIcESaIcEEESt6vectorIS9_SaIS9_EEEEPS9_EET0_T_SI_SH_
FNDA:0,_ZNSt20__uninitialized_copyILb1EE13__uninit_copyIN9__gnu_cxx17__normal_iteratorIPKN7testing8internal13edit_distance8EditTypeESt6vectorIS7_SaIS7_EEEEPS7_EET0_T_SG_SF_
FNDA:0,_ZNSt20__uninitialized_copyILb1EE13__uninit_copyIN9__gnu_cxx17__normal_iteratorIPKdSt6vectorIdSaIdEEEEPdEET0_T_SC_SB_
FNDA:0,_ZNSt20__uninitialized_copyILb1EE13__uninit_copyISt13move_iteratorIPPcES4_EET0_T_S7_S6_
FNDA:12,_ZNSt20__uninitialized_copyILb1EE13__uninit_copyISt13move_iteratorIPiES3_EET0_T_S6_S5_
FNDA:0,_ZNSt20__uninitialized_copyILb1EE13__uninit_copyISt13move_iteratorIPmES3_EET0_T_S6_S5_
FNDA:6,_ZNSt20__uninitialized_copyILb1EE13__uninit_copyISt13move_iteratorIPPN7testing8TestCaseEES6_EET0_T_S9_S8_
FNDA:0,_ZNSt20__uninitialized_copyILb1EE13__uninit_copyISt13move_iteratorIPPN7testing11EnvironmentEES6_EET0_T_S9_S8_
FNDA:2,_ZNSt20__uninitialized_copyILb1EE13__uninit_copyISt13move_iteratorIPPN7testing17TestEventListenerEES6_EET0_T_S9_S8_
FNDA:6,_ZNSt20__uninitialized_copyILb1EE13__uninit_copyISt13move_iteratorIPPN7testing8TestInfoEES6_EET0_T_S9_S8_
FNDA:0,_ZNSt20__uninitialized_copyILb1EE13__uninit_copyISt13move_iteratorIPN7testing8internal13edit_distance8EditTypeEES7_EET0_T_SA_S9_
FNDA:0,_ZSt18uninitialized_copyIN9__gnu_cxx17__normal_iteratorIPKN7testing8internal13edit_distance8EditTypeESt6vectorIS5_SaIS5_EEEEPS5_ET0_T_SE_SD_
FNDA:0,_ZSt18uninitialized_copyIN9__gnu_cxx17__normal_iteratorIPKdSt6vectorIdSaIdEEEEPdET0_T_SA_S9_
FNDA:0,_ZSt18uninitialized_copyISt13move_iteratorIPPcES2_ET0_T_S5_S4_
FNDA:12,_ZSt18uninitialized_copyISt13move_iteratorIPiES1_ET0_T_S4_S3_
FNDA:0,_ZSt18uninitialized_copyIPKPKcPNSt7__cxx1112basic_stringIcSt11char_traitsIcESaIcEEEET0_T_SC_SB_
FNDA:0,_ZSt18uninitialized_copyISt13move_iteratorIPmES1_ET0_T_S4_S3_
FNDA:2,_ZSt18uninitialized_copyISt13move_iteratorIPNSt7__cxx1112basic_stringIcSt11char_traitsIcESaIcEEEES7_ET0_T_SA_S9_
FNDA:6,_ZSt18uninitialized_copyISt13move_iteratorIPPN7testing8TestCaseEES4_ET0_T_S7_S6_
FNDA:0,_ZSt18uninitialized_copyISt13move_iteratorIPN7testing8internal9TraceInfoEES4_ET0_T_S7_S6_
FNDA:0,_ZSt18uninitialized_copyISt13move_iteratorIPPN7testing11EnvironmentEES4_ET0_T_S7_S6_
FNDA:2,_ZSt18uninitialized_copyISt13move_iteratorIPPN7testing17TestEventListenerEES4_ET0_T_S7_S6_
FNDA:6,_ZSt18uninitialized_copyISt13move_iteratorIPPN7testing8TestInfoEES4_ET0_T_S7_S6_
FNDA:0,_ZSt18uninitialized_copyISt13move_iteratorIPN7testing12TestPropertyEES3_ET0_T_S6_S5_
FNDA:0,_ZSt18uninitialized_copyISt13move_iteratorIPN7testing14TestPartResultEES3_ET0_T_S6_S5_
FNDA:0,_ZSt18uninitialized_copyISt13move_iteratorIPN7testing8internal13edit_distance8EditTypeEES5_ET0_T_S8_S7_
FNDA:0,_ZSt18uninitialized_copyIN9__gnu_cxx17__normal_iteratorIPKNSt7__cxx1112basic_stringIcSt11char_traitsIcESaIcEEESt6vectorIS7_SaIS7_EEEEPS7_ET0_T_SG_SF_
FNDA:0,_ZNSt22__uninitialized_fill_nILb0EE15__uninit_fill_nIPSt6vectorIN7testing8internal13edit_distance8EditTypeESaIS6_EEmS8_EET_SA_T0_RKT1_
FNDA:0,_ZNSt22__uninitialized_fill_nILb0EE15__uninit_fill_nIPSt6vectorIdSaIdEEmS4_EET_S6_T0_RKT1_
FNDA:0,_ZSt20uninitialized_fill_nIPSt6vectorIN7testing8internal13edit_distance8EditTypeESaIS4_EEmS6_ET_S8_T0_RKT1_
FNDA:0,_ZSt20uninitialized_fill_nIPSt6vectorIdSaIdEEmS2_ET_S4_T0_RKT1_
FNDA:0,_ZSt22__uninitialized_copy_aIN9__gnu_cxx17__normal_iteratorIPKN7testing8internal13edit_distance8EditTypeESt6vectorIS5_SaIS5_EEEEPS5_S5_ET0_T_SE_SD_RSaIT1_E
FNDA:0,_ZSt22__uninitialized_copy_aIN9__gnu_cxx17__normal_iteratorIPKdSt6vectorIdSaIdEEEEPddET0_T_SA_S9_RSaIT1_E
FNDA:0,_ZSt22__uninitialized_copy_aISt13move_iteratorIPPcES2_S1_ET0_T_S5_S4_RSaIT1_E
FNDA:12,_ZSt22__uninitialized_copy_aISt13move_iteratorIPiES1_iET0_T_S4_S3_RSaIT1_E
FNDA:0,_ZSt22__uninitialized_copy_aIPKPKcPNSt7__cxx1112basic_stringIcSt11char_traitsIcESaIcEEES9_ET0_T_SC_SB_RSaIT1_E
FNDA:0,_ZSt22__uninitialized_copy_aISt13move_iteratorIPmES1_mET0_T_S4_S3_RSaIT1_E
FNDA:2,_ZSt22__uninitialized_copy_aISt13move_iteratorIPNSt7__cxx1112basic_stringIcSt11char_traitsIcESaIcEEEES7_S6_ET0_T_SA_S9_RSaIT1_E
FNDA:6,_ZSt22__uninitialized_copy_aISt13move_iteratorIPPN7testing8TestCaseEES4_S3_ET0_T_S7_S6_RSaIT1_E
FNDA:0,_ZSt22__uninitialized_copy_aISt13move_iteratorIPN7testing8internal9TraceInfoEES4_S3_ET0_T_S7_S6_RSaIT1_E
FNDA:0,_ZSt22__uninitialized_copy_aISt13move_iteratorIPPN7testing11EnvironmentEES4_S3_ET0_T_S7_S6_RSaIT1_E
FNDA:2,_ZSt22__uninitialized_copy_aISt13move_iteratorIPPN7testing17TestEventListenerEES4_S3_ET0_T_S7_S6_RSaIT1_E
FNDA:6,_ZSt22__uninitialized_copy_aISt13move_iteratorIPPN7testing8TestInfoEES4_S3_ET0_T_S7_S6_RSaIT1_E
FNDA:0,_ZSt22__uninitialized_copy_aISt13move_iteratorIPN7testing12TestPropertyEES3_S2_ET0_T_S6_S5_RSaIT1_E
FNDA:0,_ZSt22__uninitialized_copy_aISt13move_iteratorIPN7testing14TestPartResultEES3_S2_ET0_T_S6_S5_RSaIT1_E
FNDA:0,_ZSt22__uninitialized_copy_aISt13move_iteratorIPN7testing8internal13edit_distance8EditTypeEES5_S4_ET0_T_S8_S7_RSaIT1_E
FNDA:0,_ZSt22__uninitialized_copy_aIN9__gnu_cxx17__normal_iteratorIPKNSt7__cxx1112basic_stringIcSt11char_traitsIcESaIcEEESt6vectorIS7_SaIS7_EEEEPS7_S7_ET0_T_SG_SF_RSaIT1_E
FNDA:0,_ZSt34__uninitialized_move_if_noexcept_aIPPcS1_SaIS0_EET0_T_S4_S3_RT1_
FNDA:12,_ZSt34__uninitialized_move_if_noexcept_aIPiS0_SaIiEET0_T_S3_S2_RT1_
FNDA:0,_ZSt34__uninitialized_move_if_noexcept_aIPmS0_SaImEET0_T_S3_S2_RT1_
FNDA:2,_ZSt34__uninitialized_move_if_noexcept_aIPNSt7__cxx1112basic_stringIcSt11char_traitsIcESaIcEEES6_SaIS5_EET0_T_S9_S8_RT1_
FNDA:6,_ZSt34__uninitialized_move_if_noexcept_aIPPN7testing8TestCaseES3_SaIS2_EET0_T_S6_S5_RT1_
FNDA:0,_ZSt34__uninitialized_move_if_noexcept_aIPN7testing8internal9TraceInfoES3_SaIS2_EET0_T_S6_S5_RT1_
FNDA:0,_ZSt34__uninitialized_move_if_noexcept_aIPPN7testing11EnvironmentES3_SaIS2_EET0_T_S6_S5_RT1_
FNDA:2,_ZSt34__uninitialized_move_if_noexcept_aIPPN7testing17TestEventListenerES3_SaIS2_EET0_T_S6_S5_RT1_
FNDA:6,_ZSt34__uninitialized_move_if_noexcept_aIPPN7testing8TestInfoES3_SaIS2_EET0_T_S6_S5_RT1_
FNDA:0,_ZSt34__uninitialized_move_if_noexcept_aIPN7testing12TestPropertyES2_SaIS1_EET0_T_S5_S4_RT1_
FNDA:0,_ZSt34__uninitialized_move_if_noexcept_aIPN7testing14TestPartResultES2_SaIS1_EET0_T_S5_S4_RT1_
FNDA:0,_ZSt34__uninitialized_move_if_noexcept_aIPN7testing8internal13edit_distance8EditTypeES4_SaIS3_EET0_T_S7_S6_RT1_
FNDA:0,_ZSt24__uninitialized_fill_n_aIPSt6vectorIN7testing8internal13edit_distance8EditTypeESaIS4_EEmS6_S6_ET_S8_T0_RKT1_RSaIT2_E
FNDA:0,_ZSt24__uninitialized_fill_n_aIPSt6vectorIdSaIdEEmS2_S2_ET_S4_T0_RKT1_RSaIT2_E
FNDA:0,_ZNSt27__uninitialized_default_n_1ILb1EE18__uninit_default_nIPN7testing8internal13edit_distance8EditTypeEmEET_S7_T0_
FNDA:0,_ZNSt27__uninitialized_default_n_1ILb1EE18__uninit_default_nIPdmEET_S3_T0_
FNDA:0,_ZSt25__uninitialized_default_nIPN7testing8internal13edit_distance8EditTypeEmET_S5_T0_
FNDA:0,_ZSt25__uninitialized_default_nIPdmET_S1_T0_
FNDA:0,_ZSt27__uninitialized_default_n_aIPN7testing8internal13edit_distance8EditTypeEmS3_ET_S5_T0_RSaIT1_E
FNDA:0,_ZSt27__uninitialized_default_n_aIPdmdET_S1_T0_RSaIT1_E
FNF:72
FNH:20
DA:76,2
DA:79,2
DA:82,2
DA:83,0
DA:84,2
DA:86,0
DA:88,0
DA:89,0
DA:99,26
DA:101,26
DA:115,28
DA:128,28
DA:134,28
DA:203,0
DA:206,0
DA:209,0
DA:210,0
DA:211,0
DA:213,0
DA:215,0
DA:216,0
DA:244,0
DA:252,0
DA:255,0
DA:287,28
DA:289,28
DA:305,28
DA:311,28
DA:312,28
DA:364,0
DA:366,0
DA:543,0
DA:548,0
DA:574,0
DA:579,0
DA:583,0
DA:643,0
DA:645,0
LF:38
LH:14
end_of_record
SF:/usr/local/include/c++/7.1.0/bits/stl_vector.h
FN:81,_ZNSt12_Vector_baseISt6vectorIdSaIdEESaIS2_EE12_Vector_implD2Ev
FN:81,_ZNSt12_Vector_baseIPN7testing8internal29ParameterizedTestCaseInfoBaseESaIS3_EE12_Vector_implD2Ev
FN:81,_ZNSt12_Vector_baseISt6vectorIN7testing8internal13edit_distance8EditTypeESaIS4_EESaIS6_EE12_Vector_implD2Ev
FN:81,_ZNSt12_Vector_baseIPN7testing11EnvironmentESaIS2_EE12_Vector_implD2Ev
FN:81,_ZNSt12_Vector_baseIN7testing14TestPartResultESaIS1_EE12_Vector_implD2Ev
FN:81,_ZNSt12_Vector_baseIN7testing8internal9TraceInfoESaIS2_EE12_Vector_implD2Ev
FN:81,_ZNSt12_Vector_baseIPcSaIS0_EE12_Vector_implD2Ev
FN:81,_ZNSt12_Vector_baseIPN7testing17TestEventListenerESaIS2_EE12_Vector_implD2Ev
FN:81,_ZNSt12_Vector_baseINSt7__cxx1112basic_stringIcSt11char_traitsIcESaIcEEESaIS5_EE12_Vector_implD2Ev
FN:81,_ZNSt12_Vector_baseIdSaIdEE12_Vector_implD2Ev
FN:81,_ZNSt12_Vector_baseImSaImEE12_Vector_implD2Ev
FN:81,_ZNSt12_Vector_baseIPN7testing8TestInfoESaIS2_EE12_Vector_implD2Ev
FN:81,_ZNSt12_Vector_baseIiSaIiEE12_Vector_implD2Ev
FN:81,_ZNSt12_Vector_baseIN7testing8internal13edit_distance8EditTypeESaIS3_EE12_Vector_implD2Ev
FN:81,_ZNSt12_Vector_baseIPN7testing8TestCaseESaIS2_EE12_Vector_implD2Ev
FN:81,_ZNSt12_Vector_baseIN7testing12TestPropertyESaIS1_EE12_Vector_implD2Ev
FN:88,_ZNSt12_Vector_baseIPN7testing17TestEventListenerESaIS2_EE12_Vector_implC2Ev
FN:88,_ZNSt12_Vector_baseIPcSaIS0_EE12_Vector_implC2Ev
FN:88,_ZNSt12_Vector_baseIPN7testing8TestCaseESaIS2_EE12_Vector_implC2Ev
FN:88,_ZNSt12_Vector_baseIN7testing8internal13edit_distance8EditTypeESaIS3_EE12_Vector_implC2Ev
FN:88,_ZNSt12_Vector_baseIiSaIiEE12_Vector_implC2Ev
FN:88,_ZNSt12_Vector_baseImSaImEE12_Vector_implC2Ev
FN:88,_ZNSt12_Vector_baseIPN7testing8internal29ParameterizedTestCaseInfoBaseESaIS3_EE12_Vector_implC2Ev
FN:88,_ZNSt12_Vector_baseIPN7testing11EnvironmentESaIS2_EE12_Vector_implC2Ev
FN:88,_ZNSt12_Vector_baseIN7testing14TestPartResultESaIS1_EE12_Vector_implC2Ev
FN:88,_ZNSt12_Vector_baseIPN7testing8TestInfoESaIS2_EE12_Vector_implC2Ev
FN:88,_ZNSt12_Vector_baseIN7testing8internal9TraceInfoESaIS2_EE12_Vector_implC2Ev
FN:88,_ZNSt12_Vector_baseINSt7__cxx1112basic_stringIcSt11char_traitsIcESaIcEEESaIS5_EE12_Vector_implC2Ev
FN:88,_ZNSt12_Vector_baseIN7testing12TestPropertyESaIS1_EE12_Vector_implC2Ev
FN:92,_ZNSt12_Vector_baseIN7testing8internal13edit_distance8EditTypeESaIS3_EE12_Vector_implC2ERKS4_
FN:92,_ZNSt12_Vector_baseINSt7__cxx1112basic_stringIcSt11char_traitsIcESaIcEEESaIS5_EE12_Vector_implC2ERKS6_
FN:92,_ZNSt12_Vector_baseISt6vectorIdSaIdEESaIS2_EE12_Vector_implC2ERKS3_
FN:92,_ZNSt12_Vector_baseIdSaIdEE12_Vector_implC2ERKS0_
FN:92,_ZNSt12_Vector_baseISt6vectorIN7testing8internal13edit_distance8EditTypeESaIS4_EESaIS6_EE12_Vector_implC2ERKS7_
FN:103,_ZNSt12_Vector_baseINSt7__cxx1112basic_stringIcSt11char_traitsIcESaIcEEESaIS5_EE12_Vector_impl12_M_swap_dataERS8_
FN:115,_ZNSt12_Vector_baseIPN7testing17TestEventListenerESaIS2_EE19_M_get_Tp_allocatorEv
FN:115,_ZNSt12_Vector_baseIN7testing12TestPropertyESaIS1_EE19_M_get_Tp_allocatorEv
FN:115,_ZNSt12_Vector_baseImSaImEE19_M_get_Tp_allocatorEv
FN:115,_ZNSt12_Vector_baseIN7testing8internal9TraceInfoESaIS2_EE19_M_get_Tp_allocatorEv
FN:115,_ZNSt12_Vector_baseIPN7testing11EnvironmentESaIS2_EE19_M_get_Tp_allocatorEv
FN:115,_ZNSt12_Vector_baseIN7testing14TestPartResultESaIS1_EE19_M_get_Tp_allocatorEv
FN:115,_ZNSt12_Vector_baseIiSaIiEE19_M_get_Tp_allocatorEv
FN:115,_ZNSt12_Vector_baseIdSaIdEE19_M_get_Tp_allocatorEv
FN:115,_ZNSt12_Vector_baseIPN7testing8TestInfoESaIS2_EE19_M_get_Tp_allocatorEv
FN:115,_ZNSt12_Vector_baseIPcSaIS0_EE19_M_get_Tp_allocatorEv
FN:115,_ZNSt12_Vector_baseISt6vectorIN7testing8internal13edit_distance8EditTypeESaIS4_EESaIS6_EE19_M_get_Tp_allocatorEv
FN:115,_ZNSt12_Vector_baseINSt7__cxx1112basic_stringIcSt11char_traitsIcESaIcEEESaIS5_EE19_M_get_Tp_allocatorEv
FN:115,_ZNSt12_Vector_baseIN7testing8internal13edit_distance8EditTypeESaIS3_EE19_M_get_Tp_allocatorEv
FN:115,_ZNSt12_Vector_baseIPN7testing8internal29ParameterizedTestCaseInfoBaseESaIS3_EE19_M_get_Tp_allocatorEv
FN:115,_ZNSt12_Vector_baseIPN7testing8TestCaseESaIS2_EE19_M_get_Tp_allocatorEv
FN:115,_ZNSt12_Vector_baseISt6vectorIdSaIdEESaIS2_EE19_M_get_Tp_allocatorEv
FN:119,_ZNKSt12_Vector_baseImSaImEE19_M_get_Tp_allocatorEv
FN:119,_ZNKSt12_Vector_baseIN7testing12TestPropertyESaIS1_EE19_M_get_Tp_allocatorEv
FN:119,_ZNKSt12_Vector_baseIPN7testing8TestInfoESaIS2_EE19_M_get_Tp_allocatorEv
FN:119,_ZNKSt12_Vector_baseIPcSaIS0_EE19_M_get_Tp_allocatorEv
FN:119,_ZNKSt12_Vector_baseIPN7testing11EnvironmentESaIS2_EE19_M_get_Tp_allocatorEv
FN:119,_ZNKSt12_Vector_baseIiSaIiEE19_M_get_Tp_allocatorEv
FN:119,_ZNKSt12_Vector_baseIPN7testing8TestCaseESaIS2_EE19_M_get_Tp_allocatorEv
FN:119,_ZNKSt12_Vector_baseINSt7__cxx1112basic_stringIcSt11char_traitsIcESaIcEEESaIS5_EE19_M_get_Tp_allocatorEv
FN:119,_ZNKSt12_Vector_baseIN7testing8internal13edit_distance8EditTypeESaIS3_EE19_M_get_Tp_allocatorEv
FN:119,_ZNKSt12_Vector_baseIPN7testing17TestEventListenerESaIS2_EE19_M_get_Tp_allocatorEv
FN:119,_ZNKSt12_Vector_baseIdSaIdEE19_M_get_Tp_allocatorEv
FN:119,_ZNKSt12_Vector_baseIN7testing8internal9TraceInfoESaIS2_EE19_M_get_Tp_allocatorEv
FN:119,_ZNKSt12_Vector_baseIN7testing14TestPartResultESaIS1_EE19_M_get_Tp_allocatorEv
FN:126,_ZNSt12_Vector_baseIN7testing14TestPartResultESaIS1_EEC2Ev
FN:126,_ZNSt12_Vector_baseIPcSaIS0_EEC2Ev
FN:126,_ZNSt12_Vector_baseIPN7testing11EnvironmentESaIS2_EEC2Ev
FN:126,_ZNSt12_Vector_baseIPN7testing17TestEventListenerESaIS2_EEC2Ev
FN:126,_ZNSt12_Vector_baseIN7testing8internal9TraceInfoESaIS2_EEC2Ev
FN:126,_ZNSt12_Vector_baseIPN7testing8TestInfoESaIS2_EEC2Ev
FN:126,_ZNSt12_Vector_baseIN7testing8internal13edit_distance8EditTypeESaIS3_EEC2Ev
FN:126,_ZNSt12_Vector_baseIiSaIiEEC2Ev
FN:126,_ZNSt12_Vector_baseIPN7testing8internal29ParameterizedTestCaseInfoBaseESaIS3_EEC2Ev
FN:126,_ZNSt12_Vector_baseIN7testing12TestPropertyESaIS1_EEC2Ev
FN:126,_ZNSt12_Vector_baseIPN7testing8TestCaseESaIS2_EEC2Ev
FN:126,_ZNSt12_Vector_baseINSt7__cxx1112basic_stringIcSt11char_traitsIcESaIcEEESaIS5_EEC2Ev
FN:126,_ZNSt12_Vector_baseImSaImEEC2Ev
FN:129,_ZNSt12_Vector_baseINSt7__cxx1112basic_stringIcSt11char_traitsIcESaIcEEESaIS5_EEC2ERKS6_
FN:136,_ZNSt12_Vector_baseISt6vectorIN7testing8internal13edit_distance8EditTypeESaIS4_EESaIS6_EEC2EmRKS7_
FN:136,_ZNSt12_Vector_baseINSt7__cxx1112basic_stringIcSt11char_traitsIcESaIcEEESaIS5_EEC2EmRKS6_
FN:136,_ZNSt12_Vector_baseISt6vectorIdSaIdEESaIS2_EEC2EmRKS3_
FN:136,_ZNSt12_Vector_baseIN7testing8internal13edit_distance8EditTypeESaIS3_EEC2EmRKS4_
FN:136,_ZNSt12_Vector_baseIdSaIdEEC2EmRKS0_
FN:161,_ZNSt12_Vector_baseIN7testing8internal9TraceInfoESaIS2_EED2Ev
FN:161,_ZNSt12_Vector_baseImSaImEED2Ev
FN:161,_ZNSt12_Vector_baseIN7testing8internal13edit_distance8EditTypeESaIS3_EED2Ev
FN:161,_ZNSt12_Vector_baseIN7testing14TestPartResultESaIS1_EED2Ev
FN:161,_ZNSt12_Vector_baseIPN7testing8TestInfoESaIS2_EED2Ev
FN:161,_ZNSt12_Vector_baseISt6vectorIN7testing8internal13edit_distance8EditTypeESaIS4_EESaIS6_EED2Ev
FN:161,_ZNSt12_Vector_baseIPN7testing11EnvironmentESaIS2_EED2Ev
FN:161,_ZNSt12_Vector_baseIN7testing12TestPropertyESaIS1_EED2Ev
FN:161,_ZNSt12_Vector_baseINSt7__cxx1112basic_stringIcSt11char_traitsIcESaIcEEESaIS5_EED2Ev
FN:161,_ZNSt12_Vector_baseIPN7testing17TestEventListenerESaIS2_EED2Ev
FN:161,_ZNSt12_Vector_baseIPN7testing8internal29ParameterizedTestCaseInfoBaseESaIS3_EED2Ev
FN:161,_ZNSt12_Vector_baseIPN7testing8TestCaseESaIS2_EED2Ev
FN:161,_ZNSt12_Vector_baseIdSaIdEED2Ev
FN:161,_ZNSt12_Vector_baseIPcSaIS0_EED2Ev
FN:161,_ZNSt12_Vector_baseISt6vectorIdSaIdEESaIS2_EED2Ev
FN:161,_ZNSt12_Vector_baseIiSaIiEED2Ev
FN:169,_ZNSt12_Vector_baseIPN7testing11EnvironmentESaIS2_EE11_M_allocateEm
FN:169,_ZNSt12_Vector_baseIdSaIdEE11_M_allocateEm
FN:169,_ZNSt12_Vector_baseIN7testing12TestPropertyESaIS1_EE11_M_allocateEm
FN:169,_ZNSt12_Vector_baseIPcSaIS0_EE11_M_allocateEm
FN:169,_ZNSt12_Vector_baseIPN7testing17TestEventListenerESaIS2_EE11_M_allocateEm
FN:169,_ZNSt12_Vector_baseIPN7testing8TestCaseESaIS2_EE11_M_allocateEm
FN:169,_ZNSt12_Vector_baseISt6vectorIN7testing8internal13edit_distance8EditTypeESaIS4_EESaIS6_EE11_M_allocateEm
FN:169,_ZNSt12_Vector_baseIiSaIiEE11_M_allocateEm
FN:169,_ZNSt12_Vector_baseIPN7testing8TestInfoESaIS2_EE11_M_allocateEm
FN:169,_ZNSt12_Vector_baseIN7testing14TestPartResultESaIS1_EE11_M_allocateEm
FN:169,_ZNSt12_Vector_baseINSt7__cxx1112basic_stringIcSt11char_traitsIcESaIcEEESaIS5_EE11_M_allocateEm
FN:169,_ZNSt12_Vector_baseIN7testing8internal13edit_distance8EditTypeESaIS3_EE11_M_allocateEm
FN:169,_ZNSt12_Vector_baseISt6vectorIdSaIdEESaIS2_EE11_M_allocateEm
FN:169,_ZNSt12_Vector_baseImSaImEE11_M_allocateEm
FN:169,_ZNSt12_Vector_baseIN7testing8internal9TraceInfoESaIS2_EE11_M_allocateEm
FN:176,_ZNSt12_Vector_baseImSaImEE13_M_deallocateEPmm
FN:176,_ZNSt12_Vector_baseIPN7testing8TestInfoESaIS2_EE13_M_deallocateEPS2_m
FN:176,_ZNSt12_Vector_baseIPN7testing11EnvironmentESaIS2_EE13_M_deallocateEPS2_m
FN:176,_ZNSt12_Vector_baseIN7testing8internal13edit_distance8EditTypeESaIS3_EE13_M_deallocateEPS3_m
FN:176,_ZNSt12_Vector_baseIiSaIiEE13_M_deallocateEPim
FN:176,_ZNSt12_Vector_baseIPN7testing8internal29ParameterizedTestCaseInfoBaseESaIS3_EE13_M_deallocateEPS3_m
FN:176,_ZNSt12_Vector_baseIPN7testing8TestCaseESaIS2_EE13_M_deallocateEPS2_m
FN:176,_ZNSt12_Vector_baseISt6vectorIdSaIdEESaIS2_EE13_M_deallocateEPS2_m
FN:176,_ZNSt12_Vector_baseIN7testing8internal9TraceInfoESaIS2_EE13_M_deallocateEPS2_m
FN:176,_ZNSt12_Vector_baseISt6vectorIN7testing8internal13edit_distance8EditTypeESaIS4_EESaIS6_EE13_M_deallocateEPS6_m
FN:176,_ZNSt12_Vector_baseIN7testing14TestPartResultESaIS1_EE13_M_deallocateEPS1_m
FN:176,_ZNSt12_Vector_baseIPN7testing17TestEventListenerESaIS2_EE13_M_deallocateEPS2_m
FN:176,_ZNSt12_Vector_baseIPcSaIS0_EE13_M_deallocateEPS0_m
FN:176,_ZNSt12_Vector_baseIdSaIdEE13_M_deallocateEPdm
FN:176,_ZNSt12_Vector_baseIN7testing12TestPropertyESaIS1_EE13_M_deallocateEPS1_m
FN:176,_ZNSt12_Vector_baseINSt7__cxx1112basic_stringIcSt11char_traitsIcESaIcEEESaIS5_EE13_M_deallocateEPS5_m
FN:185,_ZNSt12_Vector_baseIN7testing8internal13edit_distance8EditTypeESaIS3_EE17_M_create_storageEm
FN:185,_ZNSt12_Vector_baseISt6vectorIN7testing8internal13edit_distance8EditTypeESaIS4_EESaIS6_EE17_M_create_storageEm
FN:185,_ZNSt12_Vector_baseINSt7__cxx1112basic_stringIcSt11char_traitsIcESaIcEEESaIS5_EE17_M_create_storageEm
FN:185,_ZNSt12_Vector_baseIdSaIdEE17_M_create_storageEm
FN:185,_ZNSt12_Vector_baseISt6vectorIdSaIdEESaIS2_EE17_M_create_storageEm
FN:259,_ZNSt6vectorINSt7__cxx1112basic_stringIcSt11char_traitsIcESaIcEEESaIS5_EEC2Ev
FN:259,_ZNSt6vectorIPN7testing8internal29ParameterizedTestCaseInfoBaseESaIS3_EEC2Ev
FN:259,_ZNSt6vectorIiSaIiEEC2Ev
FN:259,_ZNSt6vectorIPcSaIS0_EEC2Ev
FN:259,_ZNSt6vectorIN7testing12TestPropertyESaIS1_EEC2Ev
FN:259,_ZNSt6vectorIPN7testing8TestCaseESaIS2_EEC2Ev
FN:259,_ZNSt6vectorIPN7testing8TestInfoESaIS2_EEC2Ev
FN:259,_ZNSt6vectorIPN7testing17TestEventListenerESaIS2_EEC2Ev
FN:259,_ZNSt6vectorIPN7testing11EnvironmentESaIS2_EEC2Ev
FN:259,_ZNSt6vectorImSaImEEC2Ev
FN:259,_ZNSt6vectorIN7testing8internal13edit_distance8EditTypeESaIS3_EEC2Ev
FN:259,_ZNSt6vectorIN7testing8internal9TraceInfoESaIS2_EEC2Ev
FN:259,_ZNSt6vectorIN7testing14TestPartResultESaIS1_EEC2Ev
FN:283,_ZNSt6vectorIdSaIdEEC2EmRKS0_
FN:283,_ZNSt6vectorIN7testing8internal13edit_distance8EditTypeESaIS3_EEC2EmRKS4_
FN:295,_ZNSt6vectorIS_IdSaIdEESaIS1_EEC2EmRKS1_RKS2_
FN:295,_ZNSt6vectorIS_IN7testing8internal13edit_distance8EditTypeESaIS3_EESaIS5_EEC2EmRKS5_RKS6_
FN:326,_ZNSt6vectorINSt7__cxx1112basic_stringIcSt11char_traitsIcESaIcEEESaIS5_EEC2ERKS7_
FN:326,_ZNSt6vectorIdSaIdEEC2ERKS1_
FN:326,_ZNSt6vectorIN7testing8internal13edit_distance8EditTypeESaIS3_EEC2ERKS5_
FN:411,_ZNSt6vectorINSt7__cxx1112basic_stringIcSt11char_traitsIcESaIcEEESaIS5_EEC2IPKPKcvEET_SD_RKS6_
FN:433,_ZNSt6vectorIS_IN7testing8internal13edit_distance8EditTypeESaIS3_EESaIS5_EED2Ev
FN:433,_ZNSt6vectorIPcSaIS0_EED2Ev
FN:433,_ZNSt6vectorIPN7testing8TestInfoESaIS2_EED2Ev
FN:433,_ZNSt6vectorIPN7testing8internal29ParameterizedTestCaseInfoBaseESaIS3_EED2Ev
FN:433,_ZNSt6vectorIiSaIiEED2Ev
FN:433,_ZNSt6vectorImSaImEED2Ev
FN:433,_ZNSt6vectorIdSaIdEED2Ev
FN:433,_ZNSt6vectorIN7testing8internal13edit_distance8EditTypeESaIS3_EED2Ev
FN:433,_ZNSt6vectorIN7testing8internal9TraceInfoESaIS2_EED2Ev
FN:433,_ZNSt6vectorIS_IdSaIdEESaIS1_EED2Ev
FN:433,_ZNSt6vectorINSt7__cxx1112basic_stringIcSt11char_traitsIcESaIcEEESaIS5_EED2Ev
FN:433,_ZNSt6vectorIN7testing12TestPropertyESaIS1_EED2Ev
FN:433,_ZNSt6vectorIPN7testing17TestEventListenerESaIS2_EED2Ev
FN:433,_ZNSt6vectorIPN7testing11EnvironmentESaIS2_EED2Ev
FN:433,_ZNSt6vectorIN7testing14TestPartResultESaIS1_EED2Ev
FN:433,_ZNSt6vectorIPN7testing8TestCaseESaIS2_EED2Ev
FN:563,_ZNSt6vectorIiSaIiEE5beginEv
FN:563,_ZNSt6vectorINSt7__cxx1112basic_stringIcSt11char_traitsIcESaIcEEESaIS5_EE5beginEv
FN:563,_ZNSt6vectorIN7testing8internal13edit_distance8EditTypeESaIS3_EE5beginEv
FN:563,_ZNSt6vectorIPN7testing8TestInfoESaIS2_EE5beginEv
FN:563,_ZNSt6vectorIPN7testing11EnvironmentESaIS2_EE5beginEv
FN:563,_ZNSt6vectorIPN7testing17TestEventListenerESaIS2_EE5beginEv
FN:563,_ZNSt6vectorIN7testing12TestPropertyESaIS1_EE5beginEv
FN:563,_ZNSt6vectorIN7testing8internal9TraceInfoESaIS2_EE5beginEv
FN:563,_ZNSt6vectorIN7testing14TestPartResultESaIS1_EE5beginEv
FN:563,_ZNSt6vectorIPcSaIS0_EE5beginEv
FN:563,_ZNSt6vectorImSaImEE5beginEv
FN:563,_ZNSt6vectorIPN7testing8internal29ParameterizedTestCaseInfoBaseESaIS3_EE5beginEv
FN:563,_ZNSt6vectorIPN7testing8TestCaseESaIS2_EE5beginEv
FN:572,_ZNKSt6vectorIPN7testing17TestEventListenerESaIS2_EE5beginEv
FN:572,_ZNKSt6vectorINSt7__cxx1112basic_stringIcSt11char_traitsIcESaIcEEESaIS5_EE5beginEv
FN:572,_ZNKSt6vectorIPN7testing8TestInfoESaIS2_EE5beginEv
FN:572,_ZNKSt6vectorIPN7testing8TestCaseESaIS2_EE5beginEv
FN:572,_ZNKSt6vectorIdSaIdEE5beginEv
FN:572,_ZNKSt6vectorIN7testing14TestPartResultESaIS1_EE5beginEv
FN:572,_ZNKSt6vectorIN7testing8internal13edit_distance8EditTypeESaIS3_EE5beginEv
FN:572,_ZNKSt6vectorIPN7testing11EnvironmentESaIS2_EE5beginEv
FN:581,_ZNSt6vectorIN7testing8internal9TraceInfoESaIS2_EE3endEv
FN:581,_ZNSt6vectorIiSaIiEE3endEv
FN:581,_ZNSt6vectorINSt7__cxx1112basic_stringIcSt11char_traitsIcESaIcEEESaIS5_EE3endEv
FN:581,_ZNSt6vectorIN7testing12TestPropertyESaIS1_EE3endEv
FN:581,_ZNSt6vectorIPN7testing8TestInfoESaIS2_EE3endEv
FN:581,_ZNSt6vectorIPN7testing8internal29ParameterizedTestCaseInfoBaseESaIS3_EE3endEv
FN:581,_ZNSt6vectorIN7testing8internal13edit_distance8EditTypeESaIS3_EE3endEv
FN:581,_ZNSt6vectorIPN7testing11EnvironmentESaIS2_EE3endEv
FN:581,_ZNSt6vectorIPcSaIS0_EE3endEv
FN:581,_ZNSt6vectorImSaImEE3endEv
FN:581,_ZNSt6vectorIPN7testing17TestEventListenerESaIS2_EE3endEv
FN:581,_ZNSt6vectorIN7testing14TestPartResultESaIS1_EE3endEv
FN:581,_ZNSt6vectorIPN7testing8TestCaseESaIS2_EE3endEv
FN:590,_ZNKSt6vectorIN7testing8internal13edit_distance8EditTypeESaIS3_EE3endEv
FN:590,_ZNKSt6vectorIPN7testing8TestCaseESaIS2_EE3endEv
FN:590,_ZNKSt6vectorIN7testing14TestPartResultESaIS1_EE3endEv
FN:590,_ZNKSt6vectorIPN7testing17TestEventListenerESaIS2_EE3endEv
FN:590,_ZNKSt6vectorIdSaIdEE3endEv
FN:590,_ZNKSt6vectorIPN7testing8TestInfoESaIS2_EE3endEv
FN:590,_ZNKSt6vectorIPN7testing11EnvironmentESaIS2_EE3endEv
FN:590,_ZNKSt6vectorINSt7__cxx1112basic_stringIcSt11char_traitsIcESaIcEEESaIS5_EE3endEv
FN:599,_ZNSt6vectorIPN7testing11EnvironmentESaIS2_EE6rbeginEv
FN:617,_ZNSt6vectorIPN7testing11EnvironmentESaIS2_EE4rendEv
FN:636,_ZNKSt6vectorIPN7testing8TestCaseESaIS2_EE6cbeginEv
FN:636,_ZNKSt6vectorIPcSaIS0_EE6cbeginEv
FN:636,_ZNKSt6vectorIPN7testing17TestEventListenerESaIS2_EE6cbeginEv
FN:645,_ZNKSt6vectorIPcSaIS0_EE4cendEv
FN:670,_ZNKSt6vectorINSt7__cxx1112basic_stringIcSt11char_traitsIcESaIcEEESaIS5_EE4sizeEv
FN:670,_ZNKSt6vectorIiSaIiEE4sizeEv
FN:670,_ZNKSt6vectorIPN7testing8TestInfoESaIS2_EE4sizeEv
FN:670,_ZNKSt6vectorIN7testing14TestPartResultESaIS1_EE4sizeEv
FN:670,_ZNKSt6vectorIS_IdSaIdEESaIS1_EE4sizeEv
FN:670,_ZNKSt6vectorIN7testing8internal13edit_distance8EditTypeESaIS3_EE4sizeEv
FN:670,_ZNKSt6vectorIPN7testing17TestEventListenerESaIS2_EE4sizeEv
FN:670,_ZNKSt6vectorIPN7testing8TestCaseESaIS2_EE4sizeEv
FN:670,_ZNKSt6vectorImSaImEE4sizeEv
FN:670,_ZNKSt6vectorIPN7testing11EnvironmentESaIS2_EE4sizeEv
FN:670,_ZNKSt6vectorIN7testing8internal9TraceInfoESaIS2_EE4sizeEv
FN:670,_ZNKSt6vectorIPcSaIS0_EE4sizeEv
FN:670,_ZNKSt6vectorIN7testing12TestPropertyESaIS1_EE4sizeEv
FN:670,_ZNKSt6vectorIdSaIdEE4sizeEv
FN:675,_ZNKSt6vectorINSt7__cxx1112basic_stringIcSt11char_traitsIcESaIcEEESaIS5_EE8max_sizeEv
FN:675,_ZNKSt6vectorIPN7testing11EnvironmentESaIS2_EE8max_sizeEv
FN:675,_ZNKSt6vectorIN7testing14TestPartResultESaIS1_EE8max_sizeEv
FN:675,_ZNKSt6vectorIN7testing8internal9TraceInfoESaIS2_EE8max_sizeEv
FN:675,_ZNKSt6vectorIN7testing12TestPropertyESaIS1_EE8max_sizeEv
FN:675,_ZNKSt6vectorIPcSaIS0_EE8max_sizeEv
FN:675,_ZNKSt6vectorIPN7testing17TestEventListenerESaIS2_EE8max_sizeEv
FN:675,_ZNKSt6vectorIPN7testing8TestCaseESaIS2_EE8max_sizeEv
FN:675,_ZNKSt6vectorIPN7testing8TestInfoESaIS2_EE8max_sizeEv
FN:675,_ZNKSt6vectorImSaImEE8max_sizeEv
FN:675,_ZNKSt6vectorIiSaIiEE8max_sizeEv
FN:675,_ZNKSt6vectorIN7testing8internal13edit_distance8EditTypeESaIS3_EE8max_sizeEv
FN:795,_ZNSt6vectorIiSaIiEEixEm
FN:795,_ZNSt6vectorIS_IdSaIdEESaIS1_EEixEm
FN:795,_ZNSt6vectorIdSaIdEEixEm
FN:795,_ZNSt6vectorIN7testing8internal9TraceInfoESaIS2_EEixEm
FN:795,_ZNSt6vectorIPN7testing8TestInfoESaIS2_EEixEm
FN:795,_ZNSt6vectorIPcSaIS0_EEixEm
FN:795,_ZNSt6vectorIPN7testing8TestCaseESaIS2_EEixEm
FN:795,_ZNSt6vectorIS_IN7testing8internal13edit_distance8EditTypeESaIS3_EESaIS5_EEixEm
FN:795,_ZNSt6vectorINSt7__cxx1112basic_stringIcSt11char_traitsIcESaIcEEESaIS5_EEixEm
FN:795,_ZNSt6vectorIPN7testing17TestEventListenerESaIS2_EEixEm
FN:795,_ZNSt6vectorIN7testing8internal13edit_distance8EditTypeESaIS3_EEixEm
FN:813,_ZNKSt6vectorINSt7__cxx1112basic_stringIcSt11char_traitsIcESaIcEEESaIS5_EEixEm
FN:813,_ZNKSt6vectorIPN7testing8TestInfoESaIS2_EEixEm
FN:813,_ZNKSt6vectorIN7testing8internal13edit_distance8EditTypeESaIS3_EEixEm
FN:813,_ZNKSt6vectorIN7testing14TestPartResultESaIS1_EEixEm
FN:813,_ZNKSt6vectorIN7testing12TestPropertyESaIS1_EEixEm
FN:813,_ZNKSt6vectorIiSaIiEEixEm
FN:813,_ZNKSt6vectorImSaImEEixEm
FN:813,_ZNKSt6vectorIPN7testing8TestCaseESaIS2_EEixEm
FN:822,_ZNKSt6vectorIN7testing14TestPartResultESaIS1_EE14_M_range_checkEm
FN:822,_ZNKSt6vectorIN7testing12TestPropertyESaIS1_EE14_M_range_checkEm
FN:862,_ZNKSt6vectorIN7testing12TestPropertyESaIS1_EE2atEm
FN:862,_ZNKSt6vectorIN7testing14TestPartResultESaIS1_EE2atEm
FN:939,_ZNSt6vectorIPN7testing11EnvironmentESaIS2_EE9push_backERKS2_
FN:939,_ZNSt6vectorIN7testing12TestPropertyESaIS1_EE9push_backERKS1_
FN:939,_ZNSt6vectorIN7testing14TestPartResultESaIS1_EE9push_backERKS1_
FN:939,_ZNSt6vectorIN7testing8internal9TraceInfoESaIS2_EE9push_backERKS2_
FN:939,_ZNSt6vectorIPN7testing8TestCaseESaIS2_EE9push_backERKS2_
FN:939,_ZNSt6vectorIPN7testing17TestEventListenerESaIS2_EE9push_backERKS2_
FN:939,_ZNSt6vectorIPN7testing8TestInfoESaIS2_EE9push_backERKS2_
FN:939,_ZNSt6vectorIN7testing8internal13edit_distance8EditTypeESaIS3_EE9push_backERKS3_
FN:953,_ZNSt6vectorINSt7__cxx1112basic_stringIcSt11char_traitsIcESaIcEEESaIS5_EE9push_backEOS5_
FN:953,_ZNSt6vectorIiSaIiEE9push_backEOi
FN:953,_ZNSt6vectorImSaImEE9push_backEOm
FN:953,_ZNSt6vectorIPcSaIS0_EE9push_backEOS0_
FN:975,_ZNSt6vectorIN7testing8internal9TraceInfoESaIS2_EE8pop_backEv
FN:1042,_ZNSt6vectorIPcSaIS0_EE6insertEN9__gnu_cxx17__normal_iteratorIPKS0_S2_EEOS0_
FN:1179,_ZNSt6vectorIPN7testing17TestEventListenerESaIS2_EE5eraseEN9__gnu_cxx17__normal_iteratorIPKS2_S4_EE
FN:1229,_ZNSt6vectorINSt7__cxx1112basic_stringIcSt11char_traitsIcESaIcEEESaIS5_EE4swapERS7_
FN:1247,_ZNSt6vectorIN7testing14TestPartResultESaIS1_EE5clearEv
FN:1247,_ZNSt6vectorINSt7__cxx1112basic_stringIcSt11char_traitsIcESaIcEEESaIS5_EE5clearEv
FN:1247,_ZNSt6vectorIN7testing12TestPropertyESaIS1_EE5clearEv
FN:1294,_ZNSt6vectorINSt7__cxx1112basic_stringIcSt11char_traitsIcESaIcEEESaIS5_EE22_M_initialize_dispatchIPKPKcEEvT_SD_St12__false_type
FN:1319,_ZNSt6vectorINSt7__cxx1112basic_stringIcSt11char_traitsIcESaIcEEESaIS5_EE19_M_range_initializeIPKPKcEEvT_SD_St20forward_iterator_tag
FN:1334,_ZNSt6vectorIS_IdSaIdEESaIS1_EE18_M_fill_initializeEmRKS1_
FN:1334,_ZNSt6vectorIS_IN7testing8internal13edit_distance8EditTypeESaIS3_EESaIS5_EE18_M_fill_initializeEmRKS5_
FN:1344,_ZNSt6vectorIN7testing8internal13edit_distance8EditTypeESaIS3_EE21_M_default_initializeEm
FN:1344,_ZNSt6vectorIdSaIdEE21_M_default_initializeEm
FN:1450,_ZNSt6vectorIPN7testing8TestCaseESaIS2_EE16_Temporary_valueC2IJRKS2_EEEPS4_DpOT_
FN:1456,_ZNSt6vectorIPN7testing8TestCaseESaIS2_EE16_Temporary_valueD2Ev
FN:1460,_ZNSt6vectorIPN7testing8TestCaseESaIS2_EE16_Temporary_value6_M_valEv
FN:1464,_ZNSt6vectorIPN7testing8TestCaseESaIS2_EE16_Temporary_value6_M_ptrEv
FN:1497,_ZNKSt6vectorImSaImEE12_M_check_lenEmPKc
FN:1497,_ZNKSt6vectorIN7testing12TestPropertyESaIS1_EE12_M_check_lenEmPKc
FN:1497,_ZNKSt6vectorIN7testing14TestPartResultESaIS1_EE12_M_check_lenEmPKc
FN:1497,_ZNKSt6vectorIPN7testing17TestEventListenerESaIS2_EE12_M_check_lenEmPKc
FN:1497,_ZNKSt6vectorIPN7testing11EnvironmentESaIS2_EE12_M_check_lenEmPKc
FN:1497,_ZNKSt6vectorIN7testing8internal9TraceInfoESaIS2_EE12_M_check_lenEmPKc
FN:1497,_ZNKSt6vectorIPcSaIS0_EE12_M_check_lenEmPKc
FN:1497,_ZNKSt6vectorIN7testing8internal13edit_distance8EditTypeESaIS3_EE12_M_check_lenEmPKc
FN:1497,_ZNKSt6vectorIiSaIiEE12_M_check_lenEmPKc
FN:1497,_ZNKSt6vectorIPN7testing8TestInfoESaIS2_EE12_M_check_lenEmPKc
FN:1497,_ZNKSt6vectorINSt7__cxx1112basic_stringIcSt11char_traitsIcESaIcEEESaIS5_EE12_M_check_lenEmPKc
FN:1497,_ZNKSt6vectorIPN7testing8TestCaseESaIS2_EE12_M_check_lenEmPKc
FN:1511,_ZNSt6vectorIN7testing12TestPropertyESaIS1_EE15_M_erase_at_endEPS1_
FN:1511,_ZNSt6vectorINSt7__cxx1112basic_stringIcSt11char_traitsIcESaIcEEESaIS5_EE15_M_erase_at_endEPS5_
FN:1511,_ZNSt6vectorIN7testing14TestPartResultESaIS1_EE15_M_erase_at_endEPS1_
FNDA:0,_ZNSt12_Vector_baseIN7testing8internal9TraceInfoESaIS2_EE12_Vector_implD2Ev
FNDA:0,_ZNSt12_Vector_baseIPcSaIS0_EE12_Vector_implD2Ev
FNDA:1,_ZNSt12_Vector_baseIPN7testing8TestCaseESaIS2_EE12_Vector_implD2Ev
FNDA:1,_ZNSt12_Vector_baseIPN7testing11EnvironmentESaIS2_EE12_Vector_implD2Ev
FNDA:1,_ZNSt12_Vector_baseIPN7testing17TestEventListenerESaIS2_EE12_Vector_implD2Ev
FNDA:4,_ZNSt12_Vector_baseIiSaIiEE12_Vector_implD2Ev
FNDA:3,_ZNSt12_Vector_baseIPN7testing8TestInfoESaIS2_EE12_Vector_implD2Ev
FNDA:7,_ZNSt12_Vector_baseIN7testing12TestPropertyESaIS1_EE12_Vector_implD2Ev
FNDA:0,_ZNSt12_Vector_baseImSaImEE12_Vector_implD2Ev
FNDA:0,_ZNSt12_Vector_baseISt6vectorIN7testing8internal13edit_distance8EditTypeESaIS4_EESaIS6_EE12_Vector_implD2Ev
FNDA:0,_ZNSt12_Vector_baseIN7testing8internal13edit_distance8EditTypeESaIS3_EE12_Vector_implD2Ev
FNDA:0,_ZNSt12_Vector_baseISt6vectorIdSaIdEESaIS2_EE12_Vector_implD2Ev
FNDA:0,_ZNSt12_Vector_baseIdSaIdEE12_Vector_implD2Ev
FNDA:1,_ZNSt12_Vector_baseINSt7__cxx1112basic_stringIcSt11char_traitsIcESaIcEEESaIS5_EE12_Vector_implD2Ev
FNDA:7,_ZNSt12_Vector_baseIN7testing14TestPartResultESaIS1_EE12_Vector_implD2Ev
FNDA:1,_ZNSt12_Vector_baseIPN7testing8internal29ParameterizedTestCaseInfoBaseESaIS3_EE12_Vector_implD2Ev
FNDA:0,_ZNSt12_Vector_baseIN7testing8internal9TraceInfoESaIS2_EE12_Vector_implC2Ev
FNDA:0,_ZNSt12_Vector_baseIPcSaIS0_EE12_Vector_implC2Ev
FNDA:1,_ZNSt12_Vector_baseIPN7testing8TestCaseESaIS2_EE12_Vector_implC2Ev
FNDA:1,_ZNSt12_Vector_baseIPN7testing11EnvironmentESaIS2_EE12_Vector_implC2Ev
FNDA:1,_ZNSt12_Vector_baseIPN7testing17TestEventListenerESaIS2_EE12_Vector_implC2Ev
FNDA:4,_ZNSt12_Vector_baseIiSaIiEE12_Vector_implC2Ev
FNDA:3,_ZNSt12_Vector_baseIPN7testing8TestInfoESaIS2_EE12_Vector_implC2Ev
FNDA:7,_ZNSt12_Vector_baseIN7testing12TestPropertyESaIS1_EE12_Vector_implC2Ev
FNDA:0,_ZNSt12_Vector_baseImSaImEE12_Vector_implC2Ev
FNDA:0,_ZNSt12_Vector_baseIN7testing8internal13edit_distance8EditTypeESaIS3_EE12_Vector_implC2Ev
FNDA:1,_ZNSt12_Vector_baseINSt7__cxx1112basic_stringIcSt11char_traitsIcESaIcEEESaIS5_EE12_Vector_implC2Ev
FNDA:7,_ZNSt12_Vector_baseIN7testing14TestPartResultESaIS1_EE12_Vector_implC2Ev
FNDA:1,_ZNSt12_Vector_baseIPN7testing8internal29ParameterizedTestCaseInfoBaseESaIS3_EE12_Vector_implC2Ev
FNDA:0,_ZNSt12_Vector_baseINSt7__cxx1112basic_stringIcSt11char_traitsIcESaIcEEESaIS5_EE12_Vector_implC2ERKS6_
FNDA:0,_ZNSt12_Vector_baseISt6vectorIN7testing8internal13edit_distance8EditTypeESaIS4_EESaIS6_EE12_Vector_implC2ERKS7_
FNDA:0,_ZNSt12_Vector_baseIN7testing8internal13edit_distance8EditTypeESaIS3_EE12_Vector_implC2ERKS4_
FNDA:0,_ZNSt12_Vector_baseISt6vectorIdSaIdEESaIS2_EE12_Vector_implC2ERKS3_
FNDA:0,_ZNSt12_Vector_baseIdSaIdEE12_Vector_implC2ERKS0_
FNDA:0,_ZNSt12_Vector_baseINSt7__cxx1112basic_stringIcSt11char_traitsIcESaIcEEESaIS5_EE12_Vector_impl12_M_swap_dataERS8_
FNDA:0,_ZNSt12_Vector_baseIN7testing8internal9TraceInfoESaIS2_EE19_M_get_Tp_allocatorEv
FNDA:0,_ZNSt12_Vector_baseIPcSaIS0_EE19_M_get_Tp_allocatorEv
FNDA:10,_ZNSt12_Vector_baseIPN7testing8TestCaseESaIS2_EE19_M_get_Tp_allocatorEv
FNDA:1,_ZNSt12_Vector_baseIPN7testing11EnvironmentESaIS2_EE19_M_get_Tp_allocatorEv
FNDA:4,_ZNSt12_Vector_baseIPN7testing17TestEventListenerESaIS2_EE19_M_get_Tp_allocatorEv
FNDA:22,_ZNSt12_Vector_baseIiSaIiEE19_M_get_Tp_allocatorEv
FNDA:12,_ZNSt12_Vector_baseIPN7testing8TestInfoESaIS2_EE19_M_get_Tp_allocatorEv
FNDA:13,_ZNSt12_Vector_baseIN7testing12TestPropertyESaIS1_EE19_M_get_Tp_allocatorEv
FNDA:0,_ZNSt12_Vector_baseImSaImEE19_M_get_Tp_allocatorEv
FNDA:0,_ZNSt12_Vector_baseISt6vectorIN7testing8internal13edit_distance8EditTypeESaIS4_EESaIS6_EE19_M_get_Tp_allocatorEv
FNDA:0,_ZNSt12_Vector_baseIN7testing8internal13edit_distance8EditTypeESaIS3_EE19_M_get_Tp_allocatorEv
FNDA:0,_ZNSt12_Vector_baseISt6vectorIdSaIdEESaIS2_EE19_M_get_Tp_allocatorEv
FNDA:0,_ZNSt12_Vector_baseIdSaIdEE19_M_get_Tp_allocatorEv
FNDA:5,_ZNSt12_Vector_baseINSt7__cxx1112basic_stringIcSt11char_traitsIcESaIcEEESaIS5_EE19_M_get_Tp_allocatorEv
FNDA:13,_ZNSt12_Vector_baseIN7testing14TestPartResultESaIS1_EE19_M_get_Tp_allocatorEv
FNDA:1,_ZNSt12_Vector_baseIPN7testing8internal29ParameterizedTestCaseInfoBaseESaIS3_EE19_M_get_Tp_allocatorEv
FNDA:0,_ZNKSt12_Vector_baseIdSaIdEE19_M_get_Tp_allocatorEv
FNDA:0,_ZNKSt12_Vector_baseIPcSaIS0_EE19_M_get_Tp_allocatorEv
FNDA:12,_ZNKSt12_Vector_baseIiSaIiEE19_M_get_Tp_allocatorEv
FNDA:0,_ZNKSt12_Vector_baseImSaImEE19_M_get_Tp_allocatorEv
FNDA:6,_ZNKSt12_Vector_baseIPN7testing8TestCaseESaIS2_EE19_M_get_Tp_allocatorEv
FNDA:0,_ZNKSt12_Vector_baseIN7testing8internal9TraceInfoESaIS2_EE19_M_get_Tp_allocatorEv
FNDA:0,_ZNKSt12_Vector_baseIPN7testing11EnvironmentESaIS2_EE19_M_get_Tp_allocatorEv
FNDA:2,_ZNKSt12_Vector_baseIPN7testing17TestEventListenerESaIS2_EE19_M_get_Tp_allocatorEv
FNDA:6,_ZNKSt12_Vector_baseIPN7testing8TestInfoESaIS2_EE19_M_get_Tp_allocatorEv
FNDA:0,_ZNKSt12_Vector_baseIN7testing12TestPropertyESaIS1_EE19_M_get_Tp_allocatorEv
FNDA:0,_ZNKSt12_Vector_baseIN7testing14TestPartResultESaIS1_EE19_M_get_Tp_allocatorEv
FNDA:0,_ZNKSt12_Vector_baseIN7testing8internal13edit_distance8EditTypeESaIS3_EE19_M_get_Tp_allocatorEv
FNDA:2,_ZNKSt12_Vector_baseINSt7__cxx1112basic_stringIcSt11char_traitsIcESaIcEEESaIS5_EE19_M_get_Tp_allocatorEv
FNDA:0,_ZNSt12_Vector_baseIN7testing8internal9TraceInfoESaIS2_EEC2Ev
FNDA:0,_ZNSt12_Vector_baseIPcSaIS0_EEC2Ev
FNDA:1,_ZNSt12_Vector_baseIPN7testing8TestCaseESaIS2_EEC2Ev
FNDA:1,_ZNSt12_Vector_baseIPN7testing11EnvironmentESaIS2_EEC2Ev
FNDA:1,_ZNSt12_Vector_baseIPN7testing17TestEventListenerESaIS2_EEC2Ev
FNDA:4,_ZNSt12_Vector_baseIiSaIiEEC2Ev
FNDA:3,_ZNSt12_Vector_baseIPN7testing8TestInfoESaIS2_EEC2Ev
FNDA:7,_ZNSt12_Vector_baseIN7testing12TestPropertyESaIS1_EEC2Ev
FNDA:0,_ZNSt12_Vector_baseImSaImEEC2Ev
FNDA:0,_ZNSt12_Vector_baseIN7testing8internal13edit_distance8EditTypeESaIS3_EEC2Ev
FNDA:1,_ZNSt12_Vector_baseINSt7__cxx1112basic_stringIcSt11char_traitsIcESaIcEEESaIS5_EEC2Ev
FNDA:7,_ZNSt12_Vector_baseIN7testing14TestPartResultESaIS1_EEC2Ev
FNDA:1,_ZNSt12_Vector_baseIPN7testing8internal29ParameterizedTestCaseInfoBaseESaIS3_EEC2Ev
FNDA:0,_ZNSt12_Vector_baseINSt7__cxx1112basic_stringIcSt11char_traitsIcESaIcEEESaIS5_EEC2ERKS6_
FNDA:0,_ZNSt12_Vector_baseINSt7__cxx1112basic_stringIcSt11char_traitsIcESaIcEEESaIS5_EEC2EmRKS6_
FNDA:0,_ZNSt12_Vector_baseISt6vectorIN7testing8internal13edit_distance8EditTypeESaIS4_EESaIS6_EEC2EmRKS7_
FNDA:0,_ZNSt12_Vector_baseIN7testing8internal13edit_distance8EditTypeESaIS3_EEC2EmRKS4_
FNDA:0,_ZNSt12_Vector_baseISt6vectorIdSaIdEESaIS2_EEC2EmRKS3_
FNDA:0,_ZNSt12_Vector_baseIdSaIdEEC2EmRKS0_
FNDA:0,_ZNSt12_Vector_baseIN7testing8internal9TraceInfoESaIS2_EED2Ev
FNDA:0,_ZNSt12_Vector_baseIPcSaIS0_EED2Ev
FNDA:1,_ZNSt12_Vector_baseIPN7testing8TestCaseESaIS2_EED2Ev
FNDA:1,_ZNSt12_Vector_baseIPN7testing11EnvironmentESaIS2_EED2Ev
FNDA:1,_ZNSt12_Vector_baseIPN7testing17TestEventListenerESaIS2_EED2Ev
FNDA:4,_ZNSt12_Vector_baseIiSaIiEED2Ev
FNDA:3,_ZNSt12_Vector_baseIPN7testing8TestInfoESaIS2_EED2Ev
FNDA:7,_ZNSt12_Vector_baseIN7testing12TestPropertyESaIS1_EED2Ev
FNDA:0,_ZNSt12_Vector_baseImSaImEED2Ev
FNDA:0,_ZNSt12_Vector_baseISt6vectorIN7testing8internal13edit_distance8EditTypeESaIS4_EESaIS6_EED2Ev
FNDA:0,_ZNSt12_Vector_baseIN7testing8internal13edit_distance8EditTypeESaIS3_EED2Ev
FNDA:0,_ZNSt12_Vector_baseISt6vectorIdSaIdEESaIS2_EED2Ev
FNDA:0,_ZNSt12_Vector_baseIdSaIdEED2Ev
FNDA:1,_ZNSt12_Vector_baseINSt7__cxx1112basic_stringIcSt11char_traitsIcESaIcEEESaIS5_EED2Ev
FNDA:7,_ZNSt12_Vector_baseIN7testing14TestPartResultESaIS1_EED2Ev
FNDA:1,_ZNSt12_Vector_baseIPN7testing8internal29ParameterizedTestCaseInfoBaseESaIS3_EED2Ev
FNDA:0,_ZNSt12_Vector_baseIPcSaIS0_EE11_M_allocateEm
FNDA:6,_ZNSt12_Vector_baseIiSaIiEE11_M_allocateEm
FNDA:0,_ZNSt12_Vector_baseImSaImEE11_M_allocateEm
FNDA:0,_ZNSt12_Vector_baseISt6vectorIN7testing8internal13edit_distance8EditTypeESaIS4_EESaIS6_EE11_M_allocateEm
FNDA:0,_ZNSt12_Vector_baseISt6vectorIdSaIdEESaIS2_EE11_M_allocateEm
FNDA:0,_ZNSt12_Vector_baseIdSaIdEE11_M_allocateEm
FNDA:1,_ZNSt12_Vector_baseINSt7__cxx1112basic_stringIcSt11char_traitsIcESaIcEEESaIS5_EE11_M_allocateEm
FNDA:3,_ZNSt12_Vector_baseIPN7testing8TestCaseESaIS2_EE11_M_allocateEm
FNDA:0,_ZNSt12_Vector_baseIN7testing8internal9TraceInfoESaIS2_EE11_M_allocateEm
FNDA:0,_ZNSt12_Vector_baseIPN7testing11EnvironmentESaIS2_EE11_M_allocateEm
FNDA:1,_ZNSt12_Vector_baseIPN7testing17TestEventListenerESaIS2_EE11_M_allocateEm
FNDA:3,_ZNSt12_Vector_baseIPN7testing8TestInfoESaIS2_EE11_M_allocateEm
FNDA:0,_ZNSt12_Vector_baseIN7testing12TestPropertyESaIS1_EE11_M_allocateEm
FNDA:0,_ZNSt12_Vector_baseIN7testing14TestPartResultESaIS1_EE11_M_allocateEm
FNDA:0,_ZNSt12_Vector_baseIN7testing8internal13edit_distance8EditTypeESaIS3_EE11_M_allocateEm
FNDA:0,_ZNSt12_Vector_baseIPcSaIS0_EE13_M_deallocateEPS0_m
FNDA:4,_ZNSt12_Vector_baseIPN7testing8TestCaseESaIS2_EE13_M_deallocateEPS2_m
FNDA:0,_ZNSt12_Vector_baseIN7testing8internal9TraceInfoESaIS2_EE13_M_deallocateEPS2_m
FNDA:1,_ZNSt12_Vector_baseIPN7testing11EnvironmentESaIS2_EE13_M_deallocateEPS2_m
FNDA:2,_ZNSt12_Vector_baseIPN7testing17TestEventListenerESaIS2_EE13_M_deallocateEPS2_m
FNDA:10,_ZNSt12_Vector_baseIiSaIiEE13_M_deallocateEPim
FNDA:6,_ZNSt12_Vector_baseIPN7testing8TestInfoESaIS2_EE13_M_deallocateEPS2_m
FNDA:7,_ZNSt12_Vector_baseIN7testing12TestPropertyESaIS1_EE13_M_deallocateEPS1_m
FNDA:0,_ZNSt12_Vector_baseImSaImEE13_M_deallocateEPmm
FNDA:0,_ZNSt12_Vector_baseISt6vectorIN7testing8internal13edit_distance8EditTypeESaIS4_EESaIS6_EE13_M_deallocateEPS6_m
FNDA:0,_ZNSt12_Vector_baseIN7testing8internal13edit_distance8EditTypeESaIS3_EE13_M_deallocateEPS3_m
FNDA:0,_ZNSt12_Vector_baseISt6vectorIdSaIdEESaIS2_EE13_M_deallocateEPS2_m
FNDA:0,_ZNSt12_Vector_baseIdSaIdEE13_M_deallocateEPdm
FNDA:2,_ZNSt12_Vector_baseINSt7__cxx1112basic_stringIcSt11char_traitsIcESaIcEEESaIS5_EE13_M_deallocateEPS5_m
FNDA:7,_ZNSt12_Vector_baseIN7testing14TestPartResultESaIS1_EE13_M_deallocateEPS1_m
FNDA:1,_ZNSt12_Vector_baseIPN7testing8internal29ParameterizedTestCaseInfoBaseESaIS3_EE13_M_deallocateEPS3_m
FNDA:0,_ZNSt12_Vector_baseINSt7__cxx1112basic_stringIcSt11char_traitsIcESaIcEEESaIS5_EE17_M_create_storageEm
FNDA:0,_ZNSt12_Vector_baseISt6vectorIN7testing8internal13edit_distance8EditTypeESaIS4_EESaIS6_EE17_M_create_storageEm
FNDA:0,_ZNSt12_Vector_baseIN7testing8internal13edit_distance8EditTypeESaIS3_EE17_M_create_storageEm
FNDA:0,_ZNSt12_Vector_baseISt6vectorIdSaIdEESaIS2_EE17_M_create_storageEm
FNDA:0,_ZNSt12_Vector_baseIdSaIdEE17_M_create_storageEm
FNDA:0,_ZNSt6vectorIN7testing8internal9TraceInfoESaIS2_EEC2Ev
FNDA:0,_ZNSt6vectorIPcSaIS0_EEC2Ev
FNDA:1,_ZNSt6vectorIPN7testing8TestCaseESaIS2_EEC2Ev
FNDA:1,_ZNSt6vectorIPN7testing11EnvironmentESaIS2_EEC2Ev
FNDA:1,_ZNSt6vectorIPN7testing17TestEventListenerESaIS2_EEC2Ev
FNDA:4,_ZNSt6vectorIiSaIiEEC2Ev
FNDA:3,_ZNSt6vectorIPN7testing8TestInfoESaIS2_EEC2Ev
FNDA:7,_ZNSt6vectorIN7testing12TestPropertyESaIS1_EEC2Ev
FNDA:0,_ZNSt6vectorImSaImEEC2Ev
FNDA:0,_ZNSt6vectorIN7testing8internal13edit_distance8EditTypeESaIS3_EEC2Ev
FNDA:1,_ZNSt6vectorINSt7__cxx1112basic_stringIcSt11char_traitsIcESaIcEEESaIS5_EEC2Ev
FNDA:7,_ZNSt6vectorIN7testing14TestPartResultESaIS1_EEC2Ev
FNDA:1,_ZNSt6vectorIPN7testing8internal29ParameterizedTestCaseInfoBaseESaIS3_EEC2Ev
FNDA:0,_ZNSt6vectorIN7testing8internal13edit_distance8EditTypeESaIS3_EEC2EmRKS4_
FNDA:0,_ZNSt6vectorIdSaIdEEC2EmRKS0_
FNDA:0,_ZNSt6vectorIS_IN7testing8internal13edit_distance8EditTypeESaIS3_EESaIS5_EEC2EmRKS5_RKS6_
FNDA:0,_ZNSt6vectorIS_IdSaIdEESaIS1_EEC2EmRKS1_RKS2_
FNDA:0,_ZNSt6vectorIN7testing8internal13edit_distance8EditTypeESaIS3_EEC2ERKS5_
FNDA:0,_ZNSt6vectorIdSaIdEEC2ERKS1_
FNDA:0,_ZNSt6vectorINSt7__cxx1112basic_stringIcSt11char_traitsIcESaIcEEESaIS5_EEC2ERKS7_
FNDA:0,_ZNSt6vectorINSt7__cxx1112basic_stringIcSt11char_traitsIcESaIcEEESaIS5_EEC2IPKPKcvEET_SD_RKS6_
FNDA:0,_ZNSt6vectorIN7testing8internal9TraceInfoESaIS2_EED2Ev
FNDA:0,_ZNSt6vectorIPcSaIS0_EED2Ev
FNDA:1,_ZNSt6vectorIPN7testing8TestCaseESaIS2_EED2Ev
FNDA:1,_ZNSt6vectorIPN7testing11EnvironmentESaIS2_EED2Ev
FNDA:1,_ZNSt6vectorIPN7testing17TestEventListenerESaIS2_EED2Ev
FNDA:4,_ZNSt6vectorIiSaIiEED2Ev
FNDA:3,_ZNSt6vectorIPN7testing8TestInfoESaIS2_EED2Ev
FNDA:7,_ZNSt6vectorIN7testing12TestPropertyESaIS1_EED2Ev
FNDA:0,_ZNSt6vectorImSaImEED2Ev
FNDA:0,_ZNSt6vectorIS_IN7testing8internal13edit_distance8EditTypeESaIS3_EESaIS5_EED2Ev
FNDA:0,_ZNSt6vectorIN7testing8internal13edit_distance8EditTypeESaIS3_EED2Ev
FNDA:0,_ZNSt6vectorIS_IdSaIdEESaIS1_EED2Ev
FNDA:0,_ZNSt6vectorIdSaIdEED2Ev
FNDA:1,_ZNSt6vectorINSt7__cxx1112basic_stringIcSt11char_traitsIcESaIcEEESaIS5_EED2Ev
FNDA:7,_ZNSt6vectorIN7testing14TestPartResultESaIS1_EED2Ev
FNDA:1,_ZNSt6vectorIPN7testing8internal29ParameterizedTestCaseInfoBaseESaIS3_EED2Ev
FNDA:6,_ZNSt6vectorIiSaIiEE5beginEv
FNDA:0,_ZNSt6vectorImSaImEE5beginEv
FNDA:0,_ZNSt6vectorIN7testing8internal9TraceInfoESaIS2_EE5beginEv
FNDA:3,_ZNSt6vectorIPN7testing8TestInfoESaIS2_EE5beginEv
FNDA:0,_ZNSt6vectorIN7testing14TestPartResultESaIS1_EE5beginEv
FNDA:1,_ZNSt6vectorIPN7testing11EnvironmentESaIS2_EE5beginEv
FNDA:1,_ZNSt6vectorINSt7__cxx1112basic_stringIcSt11char_traitsIcESaIcEEESaIS5_EE5beginEv
FNDA:0,_ZNSt6vectorIPcSaIS0_EE5beginEv
FNDA:6,_ZNSt6vectorIPN7testing8TestCaseESaIS2_EE5beginEv
FNDA:1,_ZNSt6vectorIPN7testing17TestEventListenerESaIS2_EE5beginEv
FNDA:0,_ZNSt6vectorIN7testing12TestPropertyESaIS1_EE5beginEv
FNDA:0,_ZNSt6vectorIN7testing8internal13edit_distance8EditTypeESaIS3_EE5beginEv
FNDA:2,_ZNSt6vectorIPN7testing8internal29ParameterizedTestCaseInfoBaseESaIS3_EE5beginEv
FNDA:0,_ZNKSt6vectorIdSaIdEE5beginEv
FNDA:2,_ZNKSt6vectorIPN7testing11EnvironmentESaIS2_EE5beginEv
FNDA:1,_ZNKSt6vectorIPN7testing17TestEventListenerESaIS2_EE5beginEv
FNDA:33,_ZNKSt6vectorIPN7testing8TestInfoESaIS2_EE5beginEv
FNDA:7,_ZNKSt6vectorIN7testing14TestPartResultESaIS1_EE5beginEv
FNDA:6,_ZNKSt6vectorIPN7testing8TestCaseESaIS2_EE5beginEv
FNDA:0,_ZNKSt6vectorINSt7__cxx1112basic_stringIcSt11char_traitsIcESaIcEEESaIS5_EE5beginEv
FNDA:0,_ZNKSt6vectorIN7testing8internal13edit_distance8EditTypeESaIS3_EE5beginEv
FNDA:6,_ZNSt6vectorIiSaIiEE3endEv
FNDA:0,_ZNSt6vectorImSaImEE3endEv
FNDA:0,_ZNSt6vectorIN7testing8internal9TraceInfoESaIS2_EE3endEv
FNDA:1,_ZNSt6vectorIPN7testing11EnvironmentESaIS2_EE3endEv
FNDA:1,_ZNSt6vectorIPN7testing17TestEventListenerESaIS2_EE3endEv
FNDA:3,_ZNSt6vectorIPN7testing8TestInfoESaIS2_EE3endEv
FNDA:0,_ZNSt6vectorIN7testing14TestPartResultESaIS1_EE3endEv
FNDA:1,_ZNSt6vectorINSt7__cxx1112basic_stringIcSt11char_traitsIcESaIcEEESaIS5_EE3endEv
FNDA:0,_ZNSt6vectorIPcSaIS0_EE3endEv
FNDA:9,_ZNSt6vectorIPN7testing8TestCaseESaIS2_EE3endEv
FNDA:0,_ZNSt6vectorIN7testing12TestPropertyESaIS1_EE3endEv
FNDA:0,_ZNSt6vectorIN7testing8internal13edit_distance8EditTypeESaIS3_EE3endEv
FNDA:2,_ZNSt6vectorIPN7testing8internal29ParameterizedTestCaseInfoBaseESaIS3_EE3endEv
FNDA:0,_ZNKSt6vectorIdSaIdEE3endEv
FNDA:2,_ZNKSt6vectorIPN7testing11EnvironmentESaIS2_EE3endEv
FNDA:1,_ZNKSt6vectorIPN7testing17TestEventListenerESaIS2_EE3endEv
FNDA:60,_ZNKSt6vectorIPN7testing8TestInfoESaIS2_EE3endEv
FNDA:7,_ZNKSt6vectorIN7testing14TestPartResultESaIS1_EE3endEv
FNDA:18,_ZNKSt6vectorIPN7testing8TestCaseESaIS2_EE3endEv
FNDA:0,_ZNKSt6vectorINSt7__cxx1112basic_stringIcSt11char_traitsIcESaIcEEESaIS5_EE3endEv
FNDA:0,_ZNKSt6vectorIN7testing8internal13edit_distance8EditTypeESaIS3_EE3endEv
FNDA:1,_ZNSt6vectorIPN7testing11EnvironmentESaIS2_EE6rbeginEv
FNDA:1,_ZNSt6vectorIPN7testing11EnvironmentESaIS2_EE4rendEv
FNDA:0,_ZNKSt6vectorIPcSaIS0_EE6cbeginEv
FNDA:0,_ZNKSt6vectorIPN7testing8TestCaseESaIS2_EE6cbeginEv
FNDA:0,_ZNKSt6vectorIPN7testing17TestEventListenerESaIS2_EE6cbeginEv
FNDA:0,_ZNKSt6vectorIPcSaIS0_EE4cendEv
FNDA:0,_ZNKSt6vectorIPcSaIS0_EE4sizeEv
FNDA:0,_ZNKSt6vectorIPN7testing11EnvironmentESaIS2_EE4sizeEv
FNDA:0,_ZNKSt6vectorIN7testing8internal9TraceInfoESaIS2_EE4sizeEv
FNDA:35,_ZNKSt6vectorIPN7testing17TestEventListenerESaIS2_EE4sizeEv
FNDA:42,_ZNKSt6vectorIiSaIiEE4sizeEv
FNDA:24,_ZNKSt6vectorIPN7testing8TestInfoESaIS2_EE4sizeEv
FNDA:0,_ZNKSt6vectorIN7testing12TestPropertyESaIS1_EE4sizeEv
FNDA:20,_ZNKSt6vectorIN7testing14TestPartResultESaIS1_EE4sizeEv
FNDA:0,_ZNKSt6vectorIN7testing8internal13edit_distance8EditTypeESaIS3_EE4sizeEv
FNDA:0,_ZNKSt6vectorIdSaIdEE4sizeEv
FNDA:0,_ZNKSt6vectorIS_IdSaIdEESaIS1_EE4sizeEv
FNDA:0,_ZNKSt6vectorImSaImEE4sizeEv
FNDA:44,_ZNKSt6vectorIPN7testing8TestCaseESaIS2_EE4sizeEv
FNDA:6,_ZNKSt6vectorINSt7__cxx1112basic_stringIcSt11char_traitsIcESaIcEEESaIS5_EE4sizeEv
FNDA:0,_ZNKSt6vectorIPcSaIS0_EE8max_sizeEv
FNDA:12,_ZNKSt6vectorIiSaIiEE8max_sizeEv
FNDA:0,_ZNKSt6vectorImSaImEE8max_sizeEv
FNDA:2,_ZNKSt6vectorINSt7__cxx1112basic_stringIcSt11char_traitsIcESaIcEEESaIS5_EE8max_sizeEv
FNDA:6,_ZNKSt6vectorIPN7testing8TestCaseESaIS2_EE8max_sizeEv
FNDA:0,_ZNKSt6vectorIN7testing8internal9TraceInfoESaIS2_EE8max_sizeEv
FNDA:0,_ZNKSt6vectorIPN7testing11EnvironmentESaIS2_EE8max_sizeEv
FNDA:2,_ZNKSt6vectorIPN7testing17TestEventListenerESaIS2_EE8max_sizeEv
FNDA:6,_ZNKSt6vectorIPN7testing8TestInfoESaIS2_EE8max_sizeEv
FNDA:0,_ZNKSt6vectorIN7testing12TestPropertyESaIS1_EE8max_sizeEv
FNDA:0,_ZNKSt6vectorIN7testing14TestPartResultESaIS1_EE8max_sizeEv
FNDA:0,_ZNKSt6vectorIN7testing8internal13edit_distance8EditTypeESaIS3_EE8max_sizeEv
FNDA:0,_ZNSt6vectorIPcSaIS0_EEixEm
FNDA:0,_ZNSt6vectorINSt7__cxx1112basic_stringIcSt11char_traitsIcESaIcEEESaIS5_EEixEm
FNDA:0,_ZNSt6vectorIN7testing8internal9TraceInfoESaIS2_EEixEm
FNDA:20,_ZNSt6vectorIPN7testing17TestEventListenerESaIS2_EEixEm
FNDA:6,_ZNSt6vectorIiSaIiEEixEm
FNDA:6,_ZNSt6vectorIPN7testing8TestInfoESaIS2_EEixEm
FNDA:0,_ZNSt6vectorIN7testing8internal13edit_distance8EditTypeESaIS3_EEixEm
FNDA:0,_ZNSt6vectorIS_IN7testing8internal13edit_distance8EditTypeESaIS3_EESaIS5_EEixEm
FNDA:0,_ZNSt6vectorIdSaIdEEixEm
FNDA:0,_ZNSt6vectorIS_IdSaIdEESaIS1_EEixEm
FNDA:9,_ZNSt6vectorIPN7testing8TestCaseESaIS2_EEixEm
FNDA:0,_ZNKSt6vectorIN7testing12TestPropertyESaIS1_EEixEm
FNDA:6,_ZNKSt6vectorIiSaIiEEixEm
FNDA:0,_ZNKSt6vectorIN7testing14TestPartResultESaIS1_EEixEm
FNDA:3,_ZNKSt6vectorIPN7testing8TestInfoESaIS2_EEixEm
FNDA:0,_ZNKSt6vectorIN7testing8internal13edit_distance8EditTypeESaIS3_EEixEm
FNDA:0,_ZNKSt6vectorImSaImEEixEm
FNDA:0,_ZNKSt6vectorINSt7__cxx1112basic_stringIcSt11char_traitsIcESaIcEEESaIS5_EEixEm
FNDA:15,_ZNKSt6vectorIPN7testing8TestCaseESaIS2_EEixEm
FNDA:0,_ZNKSt6vectorIN7testing12TestPropertyESaIS1_EE14_M_range_checkEm
FNDA:0,_ZNKSt6vectorIN7testing14TestPartResultESaIS1_EE14_M_range_checkEm
FNDA:0,_ZNKSt6vectorIN7testing12TestPropertyESaIS1_EE2atEm
FNDA:0,_ZNKSt6vectorIN7testing14TestPartResultESaIS1_EE2atEm
FNDA:3,_ZNSt6vectorIPN7testing8TestCaseESaIS2_EE9push_backERKS2_
FNDA:0,_ZNSt6vectorIN7testing8internal9TraceInfoESaIS2_EE9push_backERKS2_
FNDA:0,_ZNSt6vectorIPN7testing11EnvironmentESaIS2_EE9push_backERKS2_
FNDA:1,_ZNSt6vectorIPN7testing17TestEventListenerESaIS2_EE9push_backERKS2_
FNDA:3,_ZNSt6vectorIPN7testing8TestInfoESaIS2_EE9push_backERKS2_
FNDA:0,_ZNSt6vectorIN7testing12TestPropertyESaIS1_EE9push_backERKS1_
FNDA:0,_ZNSt6vectorIN7testing14TestPartResultESaIS1_EE9push_backERKS1_
FNDA:0,_ZNSt6vectorIN7testing8internal13edit_distance8EditTypeESaIS3_EE9push_backERKS3_
FNDA:0,_ZNSt6vectorIPcSaIS0_EE9push_backEOS0_
FNDA:6,_ZNSt6vectorIiSaIiEE9push_backEOi
FNDA:0,_ZNSt6vectorImSaImEE9push_backEOm
FNDA:1,_ZNSt6vectorINSt7__cxx1112basic_stringIcSt11char_traitsIcESaIcEEESaIS5_EE9push_backEOS5_
FNDA:0,_ZNSt6vectorIN7testing8internal9TraceInfoESaIS2_EE8pop_backEv
FNDA:0,_ZNSt6vectorIPcSaIS0_EE6insertEN9__gnu_cxx17__normal_iteratorIPKS0_S2_EEOS0_
FNDA:0,_ZNSt6vectorIPN7testing17TestEventListenerESaIS2_EE5eraseEN9__gnu_cxx17__normal_iteratorIPKS2_S4_EE
FNDA:0,_ZNSt6vectorINSt7__cxx1112basic_stringIcSt11char_traitsIcESaIcEEESaIS5_EE4swapERS7_
FNDA:1,_ZNSt6vectorINSt7__cxx1112basic_stringIcSt11char_traitsIcESaIcEEESaIS5_EE5clearEv
FNDA:6,_ZNSt6vectorIN7testing12TestPropertyESaIS1_EE5clearEv
FNDA:6,_ZNSt6vectorIN7testing14TestPartResultESaIS1_EE5clearEv
FNDA:0,_ZNSt6vectorINSt7__cxx1112basic_stringIcSt11char_traitsIcESaIcEEESaIS5_EE22_M_initialize_dispatchIPKPKcEEvT_SD_St12__false_type
FNDA:0,_ZNSt6vectorINSt7__cxx1112basic_stringIcSt11char_traitsIcESaIcEEESaIS5_EE19_M_range_initializeIPKPKcEEvT_SD_St20forward_iterator_tag
FNDA:0,_ZNSt6vectorIS_IN7testing8internal13edit_distance8EditTypeESaIS3_EESaIS5_EE18_M_fill_initializeEmRKS5_
FNDA:0,_ZNSt6vectorIS_IdSaIdEESaIS1_EE18_M_fill_initializeEmRKS1_
FNDA:0,_ZNSt6vectorIN7testing8internal13edit_distance8EditTypeESaIS3_EE21_M_default_initializeEm
FNDA:0,_ZNSt6vectorIdSaIdEE21_M_default_initializeEm
FNDA:0,_ZNSt6vectorIPN7testing8TestCaseESaIS2_EE16_Temporary_valueC2IJRKS2_EEEPS4_DpOT_
FNDA:0,_ZNSt6vectorIPN7testing8TestCaseESaIS2_EE16_Temporary_valueD2Ev
FNDA:0,_ZNSt6vectorIPN7testing8TestCaseESaIS2_EE16_Temporary_value6_M_valEv
FNDA:0,_ZNSt6vectorIPN7testing8TestCaseESaIS2_EE16_Temporary_value6_M_ptrEv
FNDA:0,_ZNKSt6vectorIPcSaIS0_EE12_M_check_lenEmPKc
FNDA:6,_ZNKSt6vectorIiSaIiEE12_M_check_lenEmPKc
FNDA:0,_ZNKSt6vectorImSaImEE12_M_check_lenEmPKc
FNDA:1,_ZNKSt6vectorINSt7__cxx1112basic_stringIcSt11char_traitsIcESaIcEEESaIS5_EE12_M_check_lenEmPKc
FNDA:3,_ZNKSt6vectorIPN7testing8TestCaseESaIS2_EE12_M_check_lenEmPKc
FNDA:0,_ZNKSt6vectorIN7testing8internal9TraceInfoESaIS2_EE12_M_check_lenEmPKc
FNDA:0,_ZNKSt6vectorIPN7testing11EnvironmentESaIS2_EE12_M_check_lenEmPKc
FNDA:1,_ZNKSt6vectorIPN7testing17TestEventListenerESaIS2_EE12_M_check_lenEmPKc
FNDA:3,_ZNKSt6vectorIPN7testing8TestInfoESaIS2_EE12_M_check_lenEmPKc
FNDA:0,_ZNKSt6vectorIN7testing12TestPropertyESaIS1_EE12_M_check_lenEmPKc
FNDA:0,_ZNKSt6vectorIN7testing14TestPartResultESaIS1_EE12_M_check_lenEmPKc
FNDA:0,_ZNKSt6vectorIN7testing8internal13edit_distance8EditTypeESaIS3_EE12_M_check_lenEmPKc
FNDA:1,_ZNSt6vectorINSt7__cxx1112basic_stringIcSt11char_traitsIcESaIcEEESaIS5_EE15_M_erase_at_endEPS5_
FNDA:6,_ZNSt6vectorIN7testing12TestPropertyESaIS1_EE15_M_erase_at_endEPS1_
FNDA:6,_ZNSt6vectorIN7testing14TestPartResultESaIS1_EE15_M_erase_at_endEPS1_
FNF:313
FNH:142
DA:81,26
DA:88,26
DA:89,26
DA:90,26
DA:92,0
DA:93,0
DA:94,0
DA:103,0
DA:105,0
DA:106,0
DA:107,0
DA:108,0
DA:115,81
DA:116,81
DA:119,28
DA:120,28
DA:126,26
DA:127,26
DA:129,0
DA:130,0
DA:136,0
DA:137,0
DA:138,0
DA:161,26
DA:162,52
DA:163,52
DA:169,14
DA:172,14
DA:176,40
DA:179,40
DA:180,14
DA:181,40
DA:185,0
DA:187,0
DA:188,0
DA:189,0
DA:190,0
DA:259,26
DA:263,26
DA:283,0
DA:284,0
DA:285,0
DA:295,0
DA:297,0
DA:298,0
DA:326,0
DA:328,0
DA:330,0
DA:331,0
DA:333,0
DA:334,0
DA:411,0
DA:413,0
DA:414,0
DA:433,26
DA:434,26
DA:435,52
DA:563,20
DA:564,20
DA:572,49
DA:573,49
DA:581,23
DA:582,23
DA:590,88
DA:591,88
DA:599,1
DA:600,1
DA:617,1
DA:618,1
DA:636,0
DA:637,0
DA:645,0
DA:646,0
DA:670,171
DA:671,171
DA:675,28
DA:676,28
DA:795,41
DA:798,41
DA:813,24
DA:816,24
DA:822,0
DA:824,0
DA:825,0
DA:829,0
DA:862,0
DA:864,0
DA:865,0
DA:939,7
DA:941,7
DA:943,0
DA:945,0
DA:948,7
DA:949,7
DA:953,7
DA:954,7
DA:975,0
DA:978,0
DA:979,0
DA:980,0
DA:1042,0
DA:1043,0
DA:1179,0
DA:1180,0
DA:1229,0
DA:1235,0
DA:1236,0
DA:1238,0
DA:1247,13
DA:1248,13
DA:1294,0
DA:1299,0
DA:1300,0
DA:1319,0
DA:1322,0
DA:1323,0
DA:1324,0
DA:1325,0
DA:1326,0
DA:1328,0
DA:1329,0
DA:1334,0
DA:1336,0
DA:1337,0
DA:1338,0
DA:1339,0
DA:1344,0
DA:1346,0
DA:1347,0
DA:1348,0
DA:1349,0
DA:1450,0
DA:1452,0
DA:1454,0
DA:1456,0
DA:1457,0
DA:1460,0
DA:1464,0
DA:1497,14
DA:1499,14
DA:1500,0
DA:1502,14
DA:1503,14
DA:1511,13
DA:1513,13
DA:1514,13
DA:1515,13
LF:147
LH:60
end_of_record
SF:/usr/local/include/c++/7.1.0/bits/vector.tcc
FN:95,_ZNSt6vectorIiSaIiEE12emplace_backIJiEEEvDpOT_
FN:95,_ZNSt6vectorIPcSaIS0_EE12emplace_backIJS0_EEEvDpOT_
FN:95,_ZNSt6vectorImSaImEE12emplace_backIJmEEEvDpOT_
FN:95,_ZNSt6vectorINSt7__cxx1112basic_stringIcSt11char_traitsIcESaIcEEESaIS5_EE12emplace_backIJS5_EEEvDpOT_
FN:114,_ZNSt6vectorIPN7testing8TestCaseESaIS2_EE6insertEN9__gnu_cxx17__normal_iteratorIPKS2_S4_EERS7_
FN:153,_ZNSt6vectorIPN7testing17TestEventListenerESaIS2_EE8_M_eraseEN9__gnu_cxx17__normal_iteratorIPS2_S4_EE
FN:313,_ZNSt6vectorIPcSaIS0_EE14_M_insert_rvalEN9__gnu_cxx17__normal_iteratorIPKS0_S2_EEOS0_
FN:364,_ZNSt6vectorIPcSaIS0_EE13_M_insert_auxIS0_EEvN9__gnu_cxx17__normal_iteratorIPS0_S2_EEOT_
FN:364,_ZNSt6vectorIPN7testing8TestCaseESaIS2_EE13_M_insert_auxIS2_EEvN9__gnu_cxx17__normal_iteratorIPS2_S4_EEOT_
FN:394,_ZNSt6vectorIPN7testing8TestInfoESaIS2_EE17_M_realloc_insertIJRKS2_EEEvN9__gnu_cxx17__normal_iteratorIPS2_S4_EEDpOT_
FN:394,_ZNSt6vectorIPcSaIS0_EE17_M_realloc_insertIJS0_EEEvN9__gnu_cxx17__normal_iteratorIPS0_S2_EEDpOT_
FN:394,_ZNSt6vectorIN7testing8internal13edit_distance8EditTypeESaIS3_EE17_M_realloc_insertIJRKS3_EEEvN9__gnu_cxx17__normal_iteratorIPS3_S5_EEDpOT_
FN:394,_ZNSt6vectorIN7testing12TestPropertyESaIS1_EE17_M_realloc_insertIJRKS1_EEEvN9__gnu_cxx17__normal_iteratorIPS1_S3_EEDpOT_
FN:394,_ZNSt6vectorImSaImEE17_M_realloc_insertIJmEEEvN9__gnu_cxx17__normal_iteratorIPmS1_EEDpOT_
FN:394,_ZNSt6vectorIPN7testing17TestEventListenerESaIS2_EE17_M_realloc_insertIJRKS2_EEEvN9__gnu_cxx17__normal_iteratorIPS2_S4_EEDpOT_
FN:394,_ZNSt6vectorIN7testing8internal9TraceInfoESaIS2_EE17_M_realloc_insertIJRKS2_EEEvN9__gnu_cxx17__normal_iteratorIPS2_S4_EEDpOT_
FN:394,_ZNSt6vectorIN7testing14TestPartResultESaIS1_EE17_M_realloc_insertIJRKS1_EEEvN9__gnu_cxx17__normal_iteratorIPS1_S3_EEDpOT_
FN:394,_ZNSt6vectorIPN7testing8TestCaseESaIS2_EE17_M_realloc_insertIJRKS2_EEEvN9__gnu_cxx17__normal_iteratorIPS2_S4_EEDpOT_
FN:394,_ZNSt6vectorIiSaIiEE17_M_realloc_insertIJiEEEvN9__gnu_cxx17__normal_iteratorIPiS1_EEDpOT_
FN:394,_ZNSt6vectorINSt7__cxx1112basic_stringIcSt11char_traitsIcESaIcEEESaIS5_EE17_M_realloc_insertIJS5_EEEvN9__gnu_cxx17__normal_iteratorIPS5_S7_EEDpOT_
FN:394,_ZNSt6vectorIPN7testing11EnvironmentESaIS2_EE17_M_realloc_insertIJRKS2_EEEvN9__gnu_cxx17__normal_iteratorIPS2_S4_EEDpOT_
FNDA:0,_ZNSt6vectorIPcSaIS0_EE12emplace_backIJS0_EEEvDpOT_
FNDA:6,_ZNSt6vectorIiSaIiEE12emplace_backIJiEEEvDpOT_
FNDA:0,_ZNSt6vectorImSaImEE12emplace_backIJmEEEvDpOT_
FNDA:1,_ZNSt6vectorINSt7__cxx1112basic_stringIcSt11char_traitsIcESaIcEEESaIS5_EE12emplace_backIJS5_EEEvDpOT_
FNDA:0,_ZNSt6vectorIPN7testing8TestCaseESaIS2_EE6insertEN9__gnu_cxx17__normal_iteratorIPKS2_S4_EERS7_
FNDA:0,_ZNSt6vectorIPN7testing17TestEventListenerESaIS2_EE8_M_eraseEN9__gnu_cxx17__normal_iteratorIPS2_S4_EE
FNDA:0,_ZNSt6vectorIPcSaIS0_EE14_M_insert_rvalEN9__gnu_cxx17__normal_iteratorIPKS0_S2_EEOS0_
FNDA:0,_ZNSt6vectorIPcSaIS0_EE13_M_insert_auxIS0_EEvN9__gnu_cxx17__normal_iteratorIPS0_S2_EEOT_
FNDA:0,_ZNSt6vectorIPN7testing8TestCaseESaIS2_EE13_M_insert_auxIS2_EEvN9__gnu_cxx17__normal_iteratorIPS2_S4_EEOT_
FNDA:0,_ZNSt6vectorIPcSaIS0_EE17_M_realloc_insertIJS0_EEEvN9__gnu_cxx17__normal_iteratorIPS0_S2_EEDpOT_
FNDA:6,_ZNSt6vectorIiSaIiEE17_M_realloc_insertIJiEEEvN9__gnu_cxx17__normal_iteratorIPiS1_EEDpOT_
FNDA:0,_ZNSt6vectorImSaImEE17_M_realloc_insertIJmEEEvN9__gnu_cxx17__normal_iteratorIPmS1_EEDpOT_
FNDA:1,_ZNSt6vectorINSt7__cxx1112basic_stringIcSt11char_traitsIcESaIcEEESaIS5_EE17_M_realloc_insertIJS5_EEEvN9__gnu_cxx17__normal_iteratorIPS5_S7_EEDpOT_
FNDA:3,_ZNSt6vectorIPN7testing8TestCaseESaIS2_EE17_M_realloc_insertIJRKS2_EEEvN9__gnu_cxx17__normal_iteratorIPS2_S4_EEDpOT_
FNDA:0,_ZNSt6vectorIN7testing8internal9TraceInfoESaIS2_EE17_M_realloc_insertIJRKS2_EEEvN9__gnu_cxx17__normal_iteratorIPS2_S4_EEDpOT_
FNDA:0,_ZNSt6vectorIPN7testing11EnvironmentESaIS2_EE17_M_realloc_insertIJRKS2_EEEvN9__gnu_cxx17__normal_iteratorIPS2_S4_EEDpOT_
FNDA:1,_ZNSt6vectorIPN7testing17TestEventListenerESaIS2_EE17_M_realloc_insertIJRKS2_EEEvN9__gnu_cxx17__normal_iteratorIPS2_S4_EEDpOT_
FNDA:3,_ZNSt6vectorIPN7testing8TestInfoESaIS2_EE17_M_realloc_insertIJRKS2_EEEvN9__gnu_cxx17__normal_iteratorIPS2_S4_EEDpOT_
FNDA:0,_ZNSt6vectorIN7testing12TestPropertyESaIS1_EE17_M_realloc_insertIJRKS1_EEEvN9__gnu_cxx17__normal_iteratorIPS1_S3_EEDpOT_
FNDA:0,_ZNSt6vectorIN7testing14TestPartResultESaIS1_EE17_M_realloc_insertIJRKS1_EEEvN9__gnu_cxx17__normal_iteratorIPS1_S3_EEDpOT_
FNDA:0,_ZNSt6vectorIN7testing8internal13edit_distance8EditTypeESaIS3_EE17_M_realloc_insertIJRKS3_EEEvN9__gnu_cxx17__normal_iteratorIPS3_S5_EEDpOT_
FNF:21
FNH:7
DA:95,7
DA:98,7
DA:100,0
DA:102,0
DA:105,7
DA:109,7
DA:114,0
DA:121,0
DA:122,0
DA:123,0
DA:125,0
DA:127,0
DA:132,0
DA:135,0
DA:136,0
DA:143,0
DA:148,0
DA:153,0
DA:156,0
DA:157,0
DA:158,0
DA:159,0
DA:160,0
DA:313,0
DA:316,0
DA:317,0
DA:318,0
DA:320,0
DA:321,0
DA:322,0
DA:325,0
DA:327,0
DA:329,0
DA:364,0
DA:373,0
DA:374,0
DA:376,0
DA:380,0
DA:386,0
DA:388,0
DA:394,14
DA:403,14
DA:405,14
DA:406,14
DA:407,14
DA:415,28
DA:416,14
DA:422,14
DA:424,14
DA:426,14
DA:427,14
DA:429,14
DA:431,14
DA:433,14
DA:434,14
DA:436,0
DA:438,0
DA:439,0
DA:440,0
DA:442,0
DA:443,0
DA:444,0
DA:446,14
DA:447,14
DA:448,28
DA:449,14
DA:450,14
DA:451,14
DA:452,14
DA:453,14
DA:454,14
LF:71
LH:28
end_of_record
SF:/usr/local/include/c++/7.1.0/ext/aligned_buffer.h
FN:62,_ZN9__gnu_cxx16__aligned_membufISt4pairIKNSt7__cxx1112basic_stringIcSt11char_traitsIcESaIcEEEmEE7_M_addrEv
FN:62,_ZN9__gnu_cxx16__aligned_membufISt4pairIcPKcEE7_M_addrEv
FN:62,_ZN9__gnu_cxx16__aligned_membufImE7_M_addrEv
FN:62,_ZN9__gnu_cxx16__aligned_membufINSt7__cxx1112basic_stringIcSt11char_traitsIcESaIcEEEE7_M_addrEv
FN:66,_ZNK9__gnu_cxx16__aligned_membufISt4pairIKNSt7__cxx1112basic_stringIcSt11char_traitsIcESaIcEEEN7testing8internal12CodeLocationEEE7_M_addrEv
FN:66,_ZNK9__gnu_cxx16__aligned_membufISt4pairIKNSt7__cxx1112basic_stringIcSt11char_traitsIcESaIcEEEmEE7_M_addrEv
FN:66,_ZNK9__gnu_cxx16__aligned_membufISt4pairIcPKcEE7_M_addrEv
FN:66,_ZNK9__gnu_cxx16__aligned_membufINSt7__cxx1112basic_stringIcSt11char_traitsIcESaIcEEEE7_M_addrEv
FN:66,_ZNK9__gnu_cxx16__aligned_membufImE7_M_addrEv
FN:70,_ZN9__gnu_cxx16__aligned_membufINSt7__cxx1112basic_stringIcSt11char_traitsIcESaIcEEEE6_M_ptrEv
FN:70,_ZN9__gnu_cxx16__aligned_membufISt4pairIcPKcEE6_M_ptrEv
FN:70,_ZN9__gnu_cxx16__aligned_membufImE6_M_ptrEv
FN:70,_ZN9__gnu_cxx16__aligned_membufISt4pairIKNSt7__cxx1112basic_stringIcSt11char_traitsIcESaIcEEEmEE6_M_ptrEv
FN:74,_ZNK9__gnu_cxx16__aligned_membufINSt7__cxx1112basic_stringIcSt11char_traitsIcESaIcEEEE6_M_ptrEv
FN:74,_ZNK9__gnu_cxx16__aligned_membufISt4pairIKNSt7__cxx1112basic_stringIcSt11char_traitsIcESaIcEEEmEE6_M_ptrEv
FN:74,_ZNK9__gnu_cxx16__aligned_membufISt4pairIKNSt7__cxx1112basic_stringIcSt11char_traitsIcESaIcEEEN7testing8internal12CodeLocationEEE6_M_ptrEv
FN:74,_ZNK9__gnu_cxx16__aligned_membufImE6_M_ptrEv
FN:74,_ZNK9__gnu_cxx16__aligned_membufISt4pairIcPKcEE6_M_ptrEv
FNDA:0,_ZN9__gnu_cxx16__aligned_membufINSt7__cxx1112basic_stringIcSt11char_traitsIcESaIcEEEE7_M_addrEv
FNDA:0,_ZN9__gnu_cxx16__aligned_membufImE7_M_addrEv
FNDA:0,_ZN9__gnu_cxx16__aligned_membufISt4pairIcPKcEE7_M_addrEv
FNDA:0,_ZN9__gnu_cxx16__aligned_membufISt4pairIKNSt7__cxx1112basic_stringIcSt11char_traitsIcESaIcEEEmEE7_M_addrEv
FNDA:0,_ZNK9__gnu_cxx16__aligned_membufINSt7__cxx1112basic_stringIcSt11char_traitsIcESaIcEEEE7_M_addrEv
FNDA:0,_ZNK9__gnu_cxx16__aligned_membufISt4pairIKNSt7__cxx1112basic_stringIcSt11char_traitsIcESaIcEEEmEE7_M_addrEv
FNDA:0,_ZNK9__gnu_cxx16__aligned_membufImE7_M_addrEv
FNDA:0,_ZNK9__gnu_cxx16__aligned_membufISt4pairIcPKcEE7_M_addrEv
FNDA:0,_ZNK9__gnu_cxx16__aligned_membufISt4pairIKNSt7__cxx1112basic_stringIcSt11char_traitsIcESaIcEEEN7testing8internal12CodeLocationEEE7_M_addrEv
FNDA:0,_ZN9__gnu_cxx16__aligned_membufINSt7__cxx1112basic_stringIcSt11char_traitsIcESaIcEEEE6_M_ptrEv
FNDA:0,_ZN9__gnu_cxx16__aligned_membufImE6_M_ptrEv
FNDA:0,_ZN9__gnu_cxx16__aligned_membufISt4pairIcPKcEE6_M_ptrEv
FNDA:0,_ZN9__gnu_cxx16__aligned_membufISt4pairIKNSt7__cxx1112basic_stringIcSt11char_traitsIcESaIcEEEmEE6_M_ptrEv
FNDA:0,_ZNK9__gnu_cxx16__aligned_membufINSt7__cxx1112basic_stringIcSt11char_traitsIcESaIcEEEE6_M_ptrEv
FNDA:0,_ZNK9__gnu_cxx16__aligned_membufISt4pairIKNSt7__cxx1112basic_stringIcSt11char_traitsIcESaIcEEEmEE6_M_ptrEv
FNDA:0,_ZNK9__gnu_cxx16__aligned_membufImE6_M_ptrEv
FNDA:0,_ZNK9__gnu_cxx16__aligned_membufISt4pairIcPKcEE6_M_ptrEv
FNDA:0,_ZNK9__gnu_cxx16__aligned_membufISt4pairIKNSt7__cxx1112basic_stringIcSt11char_traitsIcESaIcEEEN7testing8internal12CodeLocationEEE6_M_ptrEv
FNF:18
FNH:0
DA:62,0
DA:63,0
DA:66,0
DA:67,0
DA:70,0
DA:71,0
DA:74,0
DA:75,0
LF:8
LH:0
end_of_record
SF:/usr/local/include/c++/7.1.0/ext/alloc_traits.h
FN:94,_ZN9__gnu_cxx14__alloc_traitsISaIN7testing8internal13edit_distance8EditTypeEEE17_S_select_on_copyERKS5_
FN:94,_ZN9__gnu_cxx14__alloc_traitsISaINSt7__cxx1112basic_stringIcSt11char_traitsIcESaIcEEEEE17_S_select_on_copyERKS7_
FN:94,_ZN9__gnu_cxx14__alloc_traitsISaIdEE17_S_select_on_copyERKS1_
FN:97,_ZN9__gnu_cxx14__alloc_traitsISaINSt7__cxx1112basic_stringIcSt11char_traitsIcESaIcEEEEE10_S_on_swapERS7_S9_
FNDA:0,_ZN9__gnu_cxx14__alloc_traitsISaIN7testing8internal13edit_distance8EditTypeEEE17_S_select_on_copyERKS5_
FNDA:0,_ZN9__gnu_cxx14__alloc_traitsISaIdEE17_S_select_on_copyERKS1_
FNDA:0,_ZN9__gnu_cxx14__alloc_traitsISaINSt7__cxx1112basic_stringIcSt11char_traitsIcESaIcEEEEE17_S_select_on_copyERKS7_
FNDA:0,_ZN9__gnu_cxx14__alloc_traitsISaINSt7__cxx1112basic_stringIcSt11char_traitsIcESaIcEEEEE10_S_on_swapERS7_S9_
FNF:4
FNH:0
DA:94,0
DA:95,0
DA:97,0
DA:98,0
LF:4
LH:0
end_of_record
SF:/usr/local/include/c++/7.1.0/ext/new_allocator.h
FN:79,_ZN9__gnu_cxx13new_allocatorISt13_Rb_tree_nodeISt4pairIKNSt7__cxx1112basic_stringIcSt11char_traitsIcESaIcEEEmEEEC2Ev
FN:79,_ZN9__gnu_cxx13new_allocatorIPN7testing11EnvironmentEEC2Ev
FN:79,_ZN9__gnu_cxx13new_allocatorIN7testing8internal13edit_distance8EditTypeEEC2Ev
FN:79,_ZN9__gnu_cxx13new_allocatorIN7testing8internal9TraceInfoEEC2Ev
FN:79,_ZN9__gnu_cxx13new_allocatorISt13_Rb_tree_nodeINSt7__cxx1112basic_stringIcSt11char_traitsIcESaIcEEEEEC2Ev
FN:79,_ZN9__gnu_cxx13new_allocatorIPN7testing8internal29ParameterizedTestCaseInfoBaseEEC2Ev
FN:79,_ZN9__gnu_cxx13new_allocatorISt6vectorIN7testing8internal13edit_distance8EditTypeESaIS5_EEEC2Ev
FN:79,_ZN9__gnu_cxx13new_allocatorIiEC2Ev
FN:79,_ZN9__gnu_cxx13new_allocatorIPN7testing8TestInfoEEC2Ev
FN:79,_ZN9__gnu_cxx13new_allocatorImEC2Ev
FN:79,_ZN9__gnu_cxx13new_allocatorIdEC2Ev
FN:79,_ZN9__gnu_cxx13new_allocatorINSt7__cxx1112basic_stringIcSt11char_traitsIcESaIcEEEEC2Ev
FN:79,_ZN9__gnu_cxx13new_allocatorIN7testing12TestPropertyEEC2Ev
FN:79,_ZN9__gnu_cxx13new_allocatorIPN7testing8TestCaseEEC2Ev
FN:79,_ZN9__gnu_cxx13new_allocatorISt6vectorIdSaIdEEEC2Ev
FN:79,_ZN9__gnu_cxx13new_allocatorISt10_List_nodeISt4pairIcPKcEEEC2Ev
FN:79,_ZN9__gnu_cxx13new_allocatorIPcEC2Ev
FN:79,_ZN9__gnu_cxx13new_allocatorIN7testing14TestPartResultEEC2Ev
FN:79,_ZN9__gnu_cxx13new_allocatorIPN7testing17TestEventListenerEEC2Ev
FN:81,_ZN9__gnu_cxx13new_allocatorIdEC2ERKS1_
FN:81,_ZN9__gnu_cxx13new_allocatorISt6vectorIN7testing8internal13edit_distance8EditTypeESaIS5_EEEC2ERKS8_
FN:81,_ZN9__gnu_cxx13new_allocatorIN7testing8internal13edit_distance8EditTypeEEC2ERKS5_
FN:81,_ZN9__gnu_cxx13new_allocatorISt6vectorIdSaIdEEEC2ERKS4_
FN:81,_ZN9__gnu_cxx13new_allocatorINSt7__cxx1112basic_stringIcSt11char_traitsIcESaIcEEEEC2ERKS7_
FN:86,_ZN9__gnu_cxx13new_allocatorIN7testing8internal13edit_distance8EditTypeEED2Ev
FN:86,_ZN9__gnu_cxx13new_allocatorISt6vectorIdSaIdEEED2Ev
FN:86,_ZN9__gnu_cxx13new_allocatorImED2Ev
FN:86,_ZN9__gnu_cxx13new_allocatorIN7testing8internal9TraceInfoEED2Ev
FN:86,_ZN9__gnu_cxx13new_allocatorIPN7testing11EnvironmentEED2Ev
FN:86,_ZN9__gnu_cxx13new_allocatorIN7testing12TestPropertyEED2Ev
FN:86,_ZN9__gnu_cxx13new_allocatorIPN7testing17TestEventListenerEED2Ev
FN:86,_ZN9__gnu_cxx13new_allocatorIN7testing14TestPartResultEED2Ev
FN:86,_ZN9__gnu_cxx13new_allocatorIdED2Ev
FN:86,_ZN9__gnu_cxx13new_allocatorIPcED2Ev
FN:86,_ZN9__gnu_cxx13new_allocatorISt6vectorIN7testing8internal13edit_distance8EditTypeESaIS5_EEED2Ev
FN:86,_ZN9__gnu_cxx13new_allocatorIPN7testing8TestCaseEED2Ev
FN:86,_ZN9__gnu_cxx13new_allocatorISt13_Rb_tree_nodeISt4pairIKNSt7__cxx1112basic_stringIcSt11char_traitsIcESaIcEEEmEEED2Ev
FN:86,_ZN9__gnu_cxx13new_allocatorINSt7__cxx1112basic_stringIcSt11char_traitsIcESaIcEEEED2Ev
FN:86,_ZN9__gnu_cxx13new_allocatorISt13_Rb_tree_nodeINSt7__cxx1112basic_stringIcSt11char_traitsIcESaIcEEEEED2Ev
FN:86,_ZN9__gnu_cxx13new_allocatorIiED2Ev
FN:86,_ZN9__gnu_cxx13new_allocatorIPN7testing8TestInfoEED2Ev
FN:86,_ZN9__gnu_cxx13new_allocatorISt10_List_nodeISt4pairIcPKcEEED2Ev
FN:86,_ZN9__gnu_cxx13new_allocatorIPN7testing8internal29ParameterizedTestCaseInfoBaseEED2Ev
FN:99,_ZN9__gnu_cxx13new_allocatorIPN7testing8TestInfoEE8allocateEmPKv
FN:99,_ZN9__gnu_cxx13new_allocatorIN7testing8internal9TraceInfoEE8allocateEmPKv
FN:99,_ZN9__gnu_cxx13new_allocatorIPcE8allocateEmPKv
FN:99,_ZN9__gnu_cxx13new_allocatorImE8allocateEmPKv
FN:99,_ZN9__gnu_cxx13new_allocatorIPN7testing17TestEventListenerEE8allocateEmPKv
FN:99,_ZN9__gnu_cxx13new_allocatorIPN7testing11EnvironmentEE8allocateEmPKv
FN:99,_ZN9__gnu_cxx13new_allocatorISt13_Rb_tree_nodeINSt7__cxx1112basic_stringIcSt11char_traitsIcESaIcEEEEE8allocateEmPKv
FN:99,_ZN9__gnu_cxx13new_allocatorINSt7__cxx1112basic_stringIcSt11char_traitsIcESaIcEEEE8allocateEmPKv
FN:99,_ZN9__gnu_cxx13new_allocatorISt6vectorIdSaIdEEE8allocateEmPKv
FN:99,_ZN9__gnu_cxx13new_allocatorIdE8allocateEmPKv
FN:99,_ZN9__gnu_cxx13new_allocatorIN7testing12TestPropertyEE8allocateEmPKv
FN:99,_ZN9__gnu_cxx13new_allocatorISt10_List_nodeISt4pairIcPKcEEE8allocateEmPKv
FN:99,_ZN9__gnu_cxx13new_allocatorIiE8allocateEmPKv
FN:99,_ZN9__gnu_cxx13new_allocatorIPN7testing8TestCaseEE8allocateEmPKv
FN:99,_ZN9__gnu_cxx13new_allocatorISt6vectorIN7testing8internal13edit_distance8EditTypeESaIS5_EEE8allocateEmPKv
FN:99,_ZN9__gnu_cxx13new_allocatorIN7testing14TestPartResultEE8allocateEmPKv
FN:99,_ZN9__gnu_cxx13new_allocatorISt13_Rb_tree_nodeISt4pairIKNSt7__cxx1112basic_stringIcSt11char_traitsIcESaIcEEEmEEE8allocateEmPKv
FN:99,_ZN9__gnu_cxx13new_allocatorIN7testing8internal13edit_distance8EditTypeEE8allocateEmPKv
FN:116,_ZN9__gnu_cxx13new_allocatorINSt7__cxx1112basic_stringIcSt11char_traitsIcESaIcEEEE10deallocateEPS6_m
FN:116,_ZN9__gnu_cxx13new_allocatorIN7testing8internal13edit_distance8EditTypeEE10deallocateEPS4_m
FN:116,_ZN9__gnu_cxx13new_allocatorIPcE10deallocateEPS1_m
FN:116,_ZN9__gnu_cxx13new_allocatorISt6vectorIN7testing8internal13edit_distance8EditTypeESaIS5_EEE10deallocateEPS7_m
FN:116,_ZN9__gnu_cxx13new_allocatorIN7testing12TestPropertyEE10deallocateEPS2_m
FN:116,_ZN9__gnu_cxx13new_allocatorIPN7testing8TestCaseEE10deallocateEPS3_m
FN:116,_ZN9__gnu_cxx13new_allocatorIN7testing14TestPartResultEE10deallocateEPS2_m
FN:116,_ZN9__gnu_cxx13new_allocatorISt10_List_nodeISt4pairIcPKcEEE10deallocateEPS6_m
FN:116,_ZN9__gnu_cxx13new_allocatorIdE10deallocateEPdm
FN:116,_ZN9__gnu_cxx13new_allocatorIiE10deallocateEPim
FN:116,_ZN9__gnu_cxx13new_allocatorImE10deallocateEPmm
FN:116,_ZN9__gnu_cxx13new_allocatorISt13_Rb_tree_nodeISt4pairIKNSt7__cxx1112basic_stringIcSt11char_traitsIcESaIcEEEmEEE10deallocateEPSB_m
FN:116,_ZN9__gnu_cxx13new_allocatorISt6vectorIdSaIdEEE10deallocateEPS3_m
FN:116,_ZN9__gnu_cxx13new_allocatorISt13_Rb_tree_nodeINSt7__cxx1112basic_stringIcSt11char_traitsIcESaIcEEEEE10deallocateEPS8_m
FN:116,_ZN9__gnu_cxx13new_allocatorIPN7testing11EnvironmentEE10deallocateEPS3_m
FN:116,_ZN9__gnu_cxx13new_allocatorIPN7testing8internal29ParameterizedTestCaseInfoBaseEE10deallocateEPS4_m
FN:116,_ZN9__gnu_cxx13new_allocatorIPN7testing8TestInfoEE10deallocateEPS3_m
FN:116,_ZN9__gnu_cxx13new_allocatorIN7testing8internal9TraceInfoEE10deallocateEPS3_m
FN:116,_ZN9__gnu_cxx13new_allocatorIPN7testing17TestEventListenerEE10deallocateEPS3_m
FN:129,_ZNK9__gnu_cxx13new_allocatorIN7testing14TestPartResultEE8max_sizeEv
FN:129,_ZNK9__gnu_cxx13new_allocatorImE8max_sizeEv
FN:129,_ZNK9__gnu_cxx13new_allocatorIPN7testing11EnvironmentEE8max_sizeEv
FN:129,_ZNK9__gnu_cxx13new_allocatorINSt7__cxx1112basic_stringIcSt11char_traitsIcESaIcEEEE8max_sizeEv
FN:129,_ZNK9__gnu_cxx13new_allocatorIiE8max_sizeEv
FN:129,_ZNK9__gnu_cxx13new_allocatorIN7testing8internal13edit_distance8EditTypeEE8max_sizeEv
FN:129,_ZNK9__gnu_cxx13new_allocatorIdE8max_sizeEv
FN:129,_ZNK9__gnu_cxx13new_allocatorIPcE8max_sizeEv
FN:129,_ZNK9__gnu_cxx13new_allocatorISt13_Rb_tree_nodeISt4pairIKNSt7__cxx1112basic_stringIcSt11char_traitsIcESaIcEEEmEEE8max_sizeEv
FN:129,_ZNK9__gnu_cxx13new_allocatorISt10_List_nodeISt4pairIcPKcEEE8max_sizeEv
FN:129,_ZNK9__gnu_cxx13new_allocatorISt13_Rb_tree_nodeINSt7__cxx1112basic_stringIcSt11char_traitsIcESaIcEEEEE8max_sizeEv
FN:129,_ZNK9__gnu_cxx13new_allocatorIN7testing12TestPropertyEE8max_sizeEv
FN:129,_ZNK9__gnu_cxx13new_allocatorIN7testing8internal9TraceInfoEE8max_sizeEv
FN:129,_ZNK9__gnu_cxx13new_allocatorIPN7testing17TestEventListenerEE8max_sizeEv
FN:129,_ZNK9__gnu_cxx13new_allocatorIPN7testing8TestInfoEE8max_sizeEv
FN:129,_ZNK9__gnu_cxx13new_allocatorISt6vectorIN7testing8internal13edit_distance8EditTypeESaIS5_EEE8max_sizeEv
FN:129,_ZNK9__gnu_cxx13new_allocatorIPN7testing8TestCaseEE8max_sizeEv
FN:129,_ZNK9__gnu_cxx13new_allocatorISt6vectorIdSaIdEEE8max_sizeEv
FN:135,_ZN9__gnu_cxx13new_allocatorIiE9constructIiJiEEEvPT_DpOT0_
FN:135,_ZN9__gnu_cxx13new_allocatorImE9constructImJmEEEvPT_DpOT0_
FN:135,_ZN9__gnu_cxx13new_allocatorIPcE9constructIS1_JS1_EEEvPT_DpOT0_
FN:135,_ZN9__gnu_cxx13new_allocatorISt10_List_nodeISt4pairIcPKcEEE9constructIS5_JS5_EEEvPT_DpOT0_
FN:135,_ZN9__gnu_cxx13new_allocatorIPN7testing17TestEventListenerEE9constructIS3_JRKS3_EEEvPT_DpOT0_
FN:135,_ZN9__gnu_cxx13new_allocatorIPN7testing8TestCaseEE9constructIS3_JS3_EEEvPT_DpOT0_
FN:135,_ZN9__gnu_cxx13new_allocatorIN7testing12TestPropertyEE9constructIS2_JRKS2_EEEvPT_DpOT0_
FN:135,_ZN9__gnu_cxx13new_allocatorIPN7testing8TestInfoEE9constructIS3_JRKS3_EEEvPT_DpOT0_
FN:135,_ZN9__gnu_cxx13new_allocatorISt13_Rb_tree_nodeINSt7__cxx1112basic_stringIcSt11char_traitsIcESaIcEEEEE9constructIS7_JRKS7_EEEvPT_DpOT0_
FN:135,_ZN9__gnu_cxx13new_allocatorIN7testing14TestPartResultEE9constructIS2_JRKS2_EEEvPT_DpOT0_
FN:135,_ZN9__gnu_cxx13new_allocatorIN7testing8internal9TraceInfoEE9constructIS3_JRKS3_EEEvPT_DpOT0_
FN:135,_ZN9__gnu_cxx13new_allocatorIPN7testing11EnvironmentEE9constructIS3_JRKS3_EEEvPT_DpOT0_
FN:135,_ZN9__gnu_cxx13new_allocatorIPN7testing8TestCaseEE9constructIS3_JRKS3_EEEvPT_DpOT0_
FN:135,_ZN9__gnu_cxx13new_allocatorIN7testing8internal13edit_distance8EditTypeEE9constructIS4_JRKS4_EEEvPT_DpOT0_
FN:135,_ZN9__gnu_cxx13new_allocatorISt13_Rb_tree_nodeISt4pairIKNSt7__cxx1112basic_stringIcSt11char_traitsIcESaIcEEEmEEE9constructISA_JRKSt21piecewise_construct_tSt5tupleIJRS9_EESH_IJEEEEEvPT_DpOT0_
FN:135,_ZN9__gnu_cxx13new_allocatorINSt7__cxx1112basic_stringIcSt11char_traitsIcESaIcEEEE9constructIS6_JS6_EEEvPT_DpOT0_
FN:140,_ZN9__gnu_cxx13new_allocatorIPN7testing8TestCaseEE7destroyIS3_EEvPT_
FN:140,_ZN9__gnu_cxx13new_allocatorIPN7testing8TestInfoEE7destroyIS3_EEvPT_
FN:140,_ZN9__gnu_cxx13new_allocatorISt10_List_nodeISt4pairIcPKcEEE7destroyIS5_EEvPT_
FN:140,_ZN9__gnu_cxx13new_allocatorIN7testing12TestPropertyEE7destroyIS2_EEvPT_
FN:140,_ZN9__gnu_cxx13new_allocatorINSt7__cxx1112basic_stringIcSt11char_traitsIcESaIcEEEE7destroyIS6_EEvPT_
FN:140,_ZN9__gnu_cxx13new_allocatorImE7destroyImEEvPT_
FN:140,_ZN9__gnu_cxx13new_allocatorIiE7destroyIiEEvPT_
FN:140,_ZN9__gnu_cxx13new_allocatorIN7testing8internal13edit_distance8EditTypeEE7destroyIS4_EEvPT_
FN:140,_ZN9__gnu_cxx13new_allocatorISt13_Rb_tree_nodeISt4pairIKNSt7__cxx1112basic_stringIcSt11char_traitsIcESaIcEEEmEEE7destroyISA_EEvPT_
FN:140,_ZN9__gnu_cxx13new_allocatorIPN7testing17TestEventListenerEE7destroyIS3_EEvPT_
FN:140,_ZN9__gnu_cxx13new_allocatorIN7testing14TestPartResultEE7destroyIS2_EEvPT_
FN:140,_ZN9__gnu_cxx13new_allocatorIPcE7destroyIS1_EEvPT_
FN:140,_ZN9__gnu_cxx13new_allocatorISt13_Rb_tree_nodeINSt7__cxx1112basic_stringIcSt11char_traitsIcESaIcEEEEE7destroyIS7_EEvPT_
FN:140,_ZN9__gnu_cxx13new_allocatorIN7testing8internal9TraceInfoEE7destroyIS3_EEvPT_
FN:140,_ZN9__gnu_cxx13new_allocatorIPN7testing11EnvironmentEE7destroyIS3_EEvPT_
FNDA:0,_ZN9__gnu_cxx13new_allocatorIN7testing8internal9TraceInfoEEC2Ev
FNDA:0,_ZN9__gnu_cxx13new_allocatorIPcEC2Ev
FNDA:1,_ZN9__gnu_cxx13new_allocatorIPN7testing8TestCaseEEC2Ev
FNDA:1,_ZN9__gnu_cxx13new_allocatorIPN7testing11EnvironmentEEC2Ev
FNDA:1,_ZN9__gnu_cxx13new_allocatorIPN7testing17TestEventListenerEEC2Ev
FNDA:4,_ZN9__gnu_cxx13new_allocatorIiEC2Ev
FNDA:3,_ZN9__gnu_cxx13new_allocatorIPN7testing8TestInfoEEC2Ev
FNDA:7,_ZN9__gnu_cxx13new_allocatorIN7testing12TestPropertyEEC2Ev
FNDA:0,_ZN9__gnu_cxx13new_allocatorISt10_List_nodeISt4pairIcPKcEEEC2Ev
FNDA:0,_ZN9__gnu_cxx13new_allocatorImEC2Ev
FNDA:7,_ZN9__gnu_cxx13new_allocatorIN7testing14TestPartResultEEC2Ev
FNDA:1,_ZN9__gnu_cxx13new_allocatorIPN7testing8internal29ParameterizedTestCaseInfoBaseEEC2Ev
FNDA:1,_ZN9__gnu_cxx13new_allocatorINSt7__cxx1112basic_stringIcSt11char_traitsIcESaIcEEEEC2Ev
FNDA:0,_ZN9__gnu_cxx13new_allocatorISt13_Rb_tree_nodeINSt7__cxx1112basic_stringIcSt11char_traitsIcESaIcEEEEEC2Ev
FNDA:0,_ZN9__gnu_cxx13new_allocatorISt13_Rb_tree_nodeISt4pairIKNSt7__cxx1112basic_stringIcSt11char_traitsIcESaIcEEEmEEEC2Ev
FNDA:0,_ZN9__gnu_cxx13new_allocatorISt6vectorIN7testing8internal13edit_distance8EditTypeESaIS5_EEEC2Ev
FNDA:0,_ZN9__gnu_cxx13new_allocatorIN7testing8internal13edit_distance8EditTypeEEC2Ev
FNDA:0,_ZN9__gnu_cxx13new_allocatorISt6vectorIdSaIdEEEC2Ev
FNDA:0,_ZN9__gnu_cxx13new_allocatorIdEC2Ev
FNDA:0,_ZN9__gnu_cxx13new_allocatorISt6vectorIN7testing8internal13edit_distance8EditTypeESaIS5_EEEC2ERKS8_
FNDA:0,_ZN9__gnu_cxx13new_allocatorIN7testing8internal13edit_distance8EditTypeEEC2ERKS5_
FNDA:0,_ZN9__gnu_cxx13new_allocatorISt6vectorIdSaIdEEEC2ERKS4_
FNDA:0,_ZN9__gnu_cxx13new_allocatorIdEC2ERKS1_
FNDA:0,_ZN9__gnu_cxx13new_allocatorINSt7__cxx1112basic_stringIcSt11char_traitsIcESaIcEEEEC2ERKS7_
FNDA:0,_ZN9__gnu_cxx13new_allocatorIN7testing8internal9TraceInfoEED2Ev
FNDA:0,_ZN9__gnu_cxx13new_allocatorIPcED2Ev
FNDA:1,_ZN9__gnu_cxx13new_allocatorIPN7testing8TestCaseEED2Ev
FNDA:1,_ZN9__gnu_cxx13new_allocatorIPN7testing11EnvironmentEED2Ev
FNDA:1,_ZN9__gnu_cxx13new_allocatorIPN7testing17TestEventListenerEED2Ev
FNDA:4,_ZN9__gnu_cxx13new_allocatorIiED2Ev
FNDA:3,_ZN9__gnu_cxx13new_allocatorIPN7testing8TestInfoEED2Ev
FNDA:7,_ZN9__gnu_cxx13new_allocatorIN7testing12TestPropertyEED2Ev
FNDA:0,_ZN9__gnu_cxx13new_allocatorImED2Ev
FNDA:7,_ZN9__gnu_cxx13new_allocatorIN7testing14TestPartResultEED2Ev
FNDA:1,_ZN9__gnu_cxx13new_allocatorIPN7testing8internal29ParameterizedTestCaseInfoBaseEED2Ev
FNDA:1,_ZN9__gnu_cxx13new_allocatorINSt7__cxx1112basic_stringIcSt11char_traitsIcESaIcEEEED2Ev
FNDA:0,_ZN9__gnu_cxx13new_allocatorISt10_List_nodeISt4pairIcPKcEEED2Ev
FNDA:0,_ZN9__gnu_cxx13new_allocatorISt13_Rb_tree_nodeINSt7__cxx1112basic_stringIcSt11char_traitsIcESaIcEEEEED2Ev
FNDA:0,_ZN9__gnu_cxx13new_allocatorISt13_Rb_tree_nodeISt4pairIKNSt7__cxx1112basic_stringIcSt11char_traitsIcESaIcEEEmEEED2Ev
FNDA:0,_ZN9__gnu_cxx13new_allocatorISt6vectorIN7testing8internal13edit_distance8EditTypeESaIS5_EEED2Ev
FNDA:0,_ZN9__gnu_cxx13new_allocatorIN7testing8internal13edit_distance8EditTypeEED2Ev
FNDA:0,_ZN9__gnu_cxx13new_allocatorISt6vectorIdSaIdEEED2Ev
FNDA:0,_ZN9__gnu_cxx13new_allocatorIdED2Ev
FNDA:0,_ZN9__gnu_cxx13new_allocatorISt13_Rb_tree_nodeINSt7__cxx1112basic_stringIcSt11char_traitsIcESaIcEEEEE8allocateEmPKv
FNDA:0,_ZN9__gnu_cxx13new_allocatorIPcE8allocateEmPKv
FNDA:6,_ZN9__gnu_cxx13new_allocatorIiE8allocateEmPKv
FNDA:0,_ZN9__gnu_cxx13new_allocatorISt10_List_nodeISt4pairIcPKcEEE8allocateEmPKv
FNDA:0,_ZN9__gnu_cxx13new_allocatorImE8allocateEmPKv
FNDA:0,_ZN9__gnu_cxx13new_allocatorISt13_Rb_tree_nodeISt4pairIKNSt7__cxx1112basic_stringIcSt11char_traitsIcESaIcEEEmEEE8allocateEmPKv
FNDA:0,_ZN9__gnu_cxx13new_allocatorISt6vectorIN7testing8internal13edit_distance8EditTypeESaIS5_EEE8allocateEmPKv
FNDA:0,_ZN9__gnu_cxx13new_allocatorISt6vectorIdSaIdEEE8allocateEmPKv
FNDA:0,_ZN9__gnu_cxx13new_allocatorIdE8allocateEmPKv
FNDA:1,_ZN9__gnu_cxx13new_allocatorINSt7__cxx1112basic_stringIcSt11char_traitsIcESaIcEEEE8allocateEmPKv
FNDA:3,_ZN9__gnu_cxx13new_allocatorIPN7testing8TestCaseEE8allocateEmPKv
FNDA:0,_ZN9__gnu_cxx13new_allocatorIN7testing8internal9TraceInfoEE8allocateEmPKv
FNDA:0,_ZN9__gnu_cxx13new_allocatorIPN7testing11EnvironmentEE8allocateEmPKv
FNDA:1,_ZN9__gnu_cxx13new_allocatorIPN7testing17TestEventListenerEE8allocateEmPKv
FNDA:3,_ZN9__gnu_cxx13new_allocatorIPN7testing8TestInfoEE8allocateEmPKv
FNDA:0,_ZN9__gnu_cxx13new_allocatorIN7testing12TestPropertyEE8allocateEmPKv
FNDA:0,_ZN9__gnu_cxx13new_allocatorIN7testing14TestPartResultEE8allocateEmPKv
FNDA:0,_ZN9__gnu_cxx13new_allocatorIN7testing8internal13edit_distance8EditTypeEE8allocateEmPKv
FNDA:0,_ZN9__gnu_cxx13new_allocatorISt13_Rb_tree_nodeINSt7__cxx1112basic_stringIcSt11char_traitsIcESaIcEEEEE10deallocateEPS8_m
FNDA:0,_ZN9__gnu_cxx13new_allocatorISt13_Rb_tree_nodeISt4pairIKNSt7__cxx1112basic_stringIcSt11char_traitsIcESaIcEEEmEEE10deallocateEPSB_m
FNDA:0,_ZN9__gnu_cxx13new_allocatorIPcE10deallocateEPS1_m
FNDA:3,_ZN9__gnu_cxx13new_allocatorIPN7testing8TestCaseEE10deallocateEPS3_m
FNDA:0,_ZN9__gnu_cxx13new_allocatorIN7testing8internal9TraceInfoEE10deallocateEPS3_m
FNDA:0,_ZN9__gnu_cxx13new_allocatorIPN7testing11EnvironmentEE10deallocateEPS3_m
FNDA:1,_ZN9__gnu_cxx13new_allocatorIPN7testing17TestEventListenerEE10deallocateEPS3_m
FNDA:6,_ZN9__gnu_cxx13new_allocatorIiE10deallocateEPim
FNDA:3,_ZN9__gnu_cxx13new_allocatorIPN7testing8TestInfoEE10deallocateEPS3_m
FNDA:0,_ZN9__gnu_cxx13new_allocatorIN7testing12TestPropertyEE10deallocateEPS2_m
FNDA:0,_ZN9__gnu_cxx13new_allocatorISt10_List_nodeISt4pairIcPKcEEE10deallocateEPS6_m
FNDA:0,_ZN9__gnu_cxx13new_allocatorImE10deallocateEPmm
FNDA:0,_ZN9__gnu_cxx13new_allocatorISt6vectorIN7testing8internal13edit_distance8EditTypeESaIS5_EEE10deallocateEPS7_m
FNDA:0,_ZN9__gnu_cxx13new_allocatorIN7testing8internal13edit_distance8EditTypeEE10deallocateEPS4_m
FNDA:0,_ZN9__gnu_cxx13new_allocatorISt6vectorIdSaIdEEE10deallocateEPS3_m
FNDA:0,_ZN9__gnu_cxx13new_allocatorIdE10deallocateEPdm
FNDA:1,_ZN9__gnu_cxx13new_allocatorINSt7__cxx1112basic_stringIcSt11char_traitsIcESaIcEEEE10deallocateEPS6_m
FNDA:0,_ZN9__gnu_cxx13new_allocatorIN7testing14TestPartResultEE10deallocateEPS2_m
FNDA:0,_ZN9__gnu_cxx13new_allocatorIPN7testing8internal29ParameterizedTestCaseInfoBaseEE10deallocateEPS4_m
FNDA:0,_ZNK9__gnu_cxx13new_allocatorISt13_Rb_tree_nodeINSt7__cxx1112basic_stringIcSt11char_traitsIcESaIcEEEEE8max_sizeEv
FNDA:0,_ZNK9__gnu_cxx13new_allocatorIPcE8max_sizeEv
FNDA:18,_ZNK9__gnu_cxx13new_allocatorIiE8max_sizeEv
FNDA:0,_ZNK9__gnu_cxx13new_allocatorISt10_List_nodeISt4pairIcPKcEEE8max_sizeEv
FNDA:0,_ZNK9__gnu_cxx13new_allocatorImE8max_sizeEv
FNDA:0,_ZNK9__gnu_cxx13new_allocatorISt13_Rb_tree_nodeISt4pairIKNSt7__cxx1112basic_stringIcSt11char_traitsIcESaIcEEEmEEE8max_sizeEv
FNDA:0,_ZNK9__gnu_cxx13new_allocatorISt6vectorIN7testing8internal13edit_distance8EditTypeESaIS5_EEE8max_sizeEv
FNDA:0,_ZNK9__gnu_cxx13new_allocatorISt6vectorIdSaIdEEE8max_sizeEv
FNDA:0,_ZNK9__gnu_cxx13new_allocatorIdE8max_sizeEv
FNDA:3,_ZNK9__gnu_cxx13new_allocatorINSt7__cxx1112basic_stringIcSt11char_traitsIcESaIcEEEE8max_sizeEv
FNDA:9,_ZNK9__gnu_cxx13new_allocatorIPN7testing8TestCaseEE8max_sizeEv
FNDA:0,_ZNK9__gnu_cxx13new_allocatorIN7testing8internal9TraceInfoEE8max_sizeEv
FNDA:0,_ZNK9__gnu_cxx13new_allocatorIPN7testing11EnvironmentEE8max_sizeEv
FNDA:3,_ZNK9__gnu_cxx13new_allocatorIPN7testing17TestEventListenerEE8max_sizeEv
FNDA:9,_ZNK9__gnu_cxx13new_allocatorIPN7testing8TestInfoEE8max_sizeEv
FNDA:0,_ZNK9__gnu_cxx13new_allocatorIN7testing12TestPropertyEE8max_sizeEv
FNDA:0,_ZNK9__gnu_cxx13new_allocatorIN7testing14TestPartResultEE8max_sizeEv
FNDA:0,_ZNK9__gnu_cxx13new_allocatorIN7testing8internal13edit_distance8EditTypeEE8max_sizeEv
FNDA:0,_ZN9__gnu_cxx13new_allocatorISt13_Rb_tree_nodeINSt7__cxx1112basic_stringIcSt11char_traitsIcESaIcEEEEE9constructIS7_JRKS7_EEEvPT_DpOT0_
FNDA:0,_ZN9__gnu_cxx13new_allocatorISt13_Rb_tree_nodeISt4pairIKNSt7__cxx1112basic_stringIcSt11char_traitsIcESaIcEEEmEEE9constructISA_JRKSt21piecewise_construct_tSt5tupleIJRS9_EESH_IJEEEEEvPT_DpOT0_
FNDA:0,_ZN9__gnu_cxx13new_allocatorISt10_List_nodeISt4pairIcPKcEEE9constructIS5_JS5_EEEvPT_DpOT0_
FNDA:0,_ZN9__gnu_cxx13new_allocatorIPcE9constructIS1_JS1_EEEvPT_DpOT0_
FNDA:0,_ZN9__gnu_cxx13new_allocatorIPN7testing8TestCaseEE9constructIS3_JS3_EEEvPT_DpOT0_
FNDA:6,_ZN9__gnu_cxx13new_allocatorIiE9constructIiJiEEEvPT_DpOT0_
FNDA:0,_ZN9__gnu_cxx13new_allocatorImE9constructImJmEEEvPT_DpOT0_
FNDA:1,_ZN9__gnu_cxx13new_allocatorINSt7__cxx1112basic_stringIcSt11char_traitsIcESaIcEEEE9constructIS6_JS6_EEEvPT_DpOT0_
FNDA:3,_ZN9__gnu_cxx13new_allocatorIPN7testing8TestCaseEE9constructIS3_JRKS3_EEEvPT_DpOT0_
FNDA:0,_ZN9__gnu_cxx13new_allocatorIN7testing8internal9TraceInfoEE9constructIS3_JRKS3_EEEvPT_DpOT0_
FNDA:0,_ZN9__gnu_cxx13new_allocatorIPN7testing11EnvironmentEE9constructIS3_JRKS3_EEEvPT_DpOT0_
FNDA:1,_ZN9__gnu_cxx13new_allocatorIPN7testing17TestEventListenerEE9constructIS3_JRKS3_EEEvPT_DpOT0_
FNDA:3,_ZN9__gnu_cxx13new_allocatorIPN7testing8TestInfoEE9constructIS3_JRKS3_EEEvPT_DpOT0_
FNDA:0,_ZN9__gnu_cxx13new_allocatorIN7testing12TestPropertyEE9constructIS2_JRKS2_EEEvPT_DpOT0_
FNDA:0,_ZN9__gnu_cxx13new_allocatorIN7testing14TestPartResultEE9constructIS2_JRKS2_EEEvPT_DpOT0_
FNDA:0,_ZN9__gnu_cxx13new_allocatorIN7testing8internal13edit_distance8EditTypeEE9constructIS4_JRKS4_EEEvPT_DpOT0_
FNDA:0,_ZN9__gnu_cxx13new_allocatorISt13_Rb_tree_nodeINSt7__cxx1112basic_stringIcSt11char_traitsIcESaIcEEEEE7destroyIS7_EEvPT_
FNDA:0,_ZN9__gnu_cxx13new_allocatorISt13_Rb_tree_nodeISt4pairIKNSt7__cxx1112basic_stringIcSt11char_traitsIcESaIcEEEmEEE7destroyISA_EEvPT_
FNDA:0,_ZN9__gnu_cxx13new_allocatorIPcE7destroyIS1_EEvPT_
FNDA:0,_ZN9__gnu_cxx13new_allocatorIiE7destroyIiEEvPT_
FNDA:0,_ZN9__gnu_cxx13new_allocatorImE7destroyImEEvPT_
FNDA:0,_ZN9__gnu_cxx13new_allocatorINSt7__cxx1112basic_stringIcSt11char_traitsIcESaIcEEEE7destroyIS6_EEvPT_
FNDA:0,_ZN9__gnu_cxx13new_allocatorIPN7testing8TestCaseEE7destroyIS3_EEvPT_
FNDA:0,_ZN9__gnu_cxx13new_allocatorIPN7testing11EnvironmentEE7destroyIS3_EEvPT_
FNDA:0,_ZN9__gnu_cxx13new_allocatorIPN7testing17TestEventListenerEE7destroyIS3_EEvPT_
FNDA:0,_ZN9__gnu_cxx13new_allocatorIPN7testing8TestInfoEE7destroyIS3_EEvPT_
FNDA:0,_ZN9__gnu_cxx13new_allocatorIN7testing12TestPropertyEE7destroyIS2_EEvPT_
FNDA:0,_ZN9__gnu_cxx13new_allocatorIN7testing14TestPartResultEE7destroyIS2_EEvPT_
FNDA:0,_ZN9__gnu_cxx13new_allocatorISt10_List_nodeISt4pairIcPKcEEE7destroyIS5_EEvPT_
FNDA:0,_ZN9__gnu_cxx13new_allocatorIN7testing8internal13edit_distance8EditTypeEE7destroyIS4_EEvPT_
FNDA:0,_ZN9__gnu_cxx13new_allocatorIN7testing8internal9TraceInfoEE7destroyIS3_EEvPT_
FNF:129
FNH:38
DA:79,26
DA:81,0
DA:86,26
DA:99,14
DA:101,14
DA:102,0
DA:111,14
DA:116,14
DA:125,14
DA:126,14
DA:129,42
DA:130,42
DA:135,14
DA:136,14
DA:140,0
LF:15
LH:12
end_of_record
SF:/usr/local/include/c++/7.1.0/ext/type_traits.h
FN:152,_ZN9__gnu_cxx17__is_null_pointerIKcEEbPT_
FNDA:35,_ZN9__gnu_cxx17__is_null_pointerIKcEEbPT_
FNF:1
FNH:1
DA:152,35
DA:153,35
LF:2
LH:2
end_of_record
SF:/usr/local/include/c++/7.1.0/iomanip
FN:165,_ZSt7setfillIcESt8_SetfillIT_ES1_
FN:195,_ZSt12setprecisioni
FN:225,_ZSt4setwi
FNDA:0,_ZSt7setfillIcESt8_SetfillIT_ES1_
FNDA:51,_ZSt12setprecisioni
FNDA:0,_ZSt4setwi
FNF:3
FNH:1
DA:165,0
DA:166,0
DA:195,51
DA:196,51
DA:225,0
DA:226,0
LF:6
LH:2
end_of_record
SF:/usr/local/include/c++/7.1.0/iostream
DA:74,1
LF:1
LH:1
end_of_record
SF:/usr/local/include/c++/7.1.0/new
FN:168,_ZnwmPv
FN:174,_ZdlPvS_
FNDA:14,_ZnwmPv
FNDA:0,_ZdlPvS_
FNF:2
FNH:1
DA:168,14
DA:169,14
DA:174,0
LF:3
LH:2
end_of_record
SF:/usr/local/include/c++/7.1.0/sstream
DA:690,51
LF:1
LH:1
end_of_record
SF:/usr/local/include/c++/7.1.0/tuple
FN:125,_ZNSt10_Head_baseILm0ERKNSt7__cxx1112basic_stringIcSt11char_traitsIcESaIcEEELb0EEC2ES7_
FN:160,_ZNSt10_Head_baseILm0ERKNSt7__cxx1112basic_stringIcSt11char_traitsIcESaIcEEELb0EE7_M_headERS8_
FN:351,_ZNSt11_Tuple_implILm0EJRKNSt7__cxx1112basic_stringIcSt11char_traitsIcESaIcEEEEE7_M_headERS8_
FN:360,_ZNSt11_Tuple_implILm0EJRKNSt7__cxx1112basic_stringIcSt11char_traitsIcESaIcEEEEEC2ES7_
FN:371,_ZNSt11_Tuple_implILm0EJRKNSt7__cxx1112basic_stringIcSt11char_traitsIcESaIcEEEEEC2EOS8_
FN:608,_ZNSt5tupleIJRKNSt7__cxx1112basic_stringIcSt11char_traitsIcESaIcEEEEEC2IvLb1EEES7_
FN:662,_ZNSt5tupleIJRKNSt7__cxx1112basic_stringIcSt11char_traitsIcESaIcEEEEEC2EOS8_
FN:1303,_ZSt12__get_helperILm0ERKNSt7__cxx1112basic_stringIcSt11char_traitsIcESaIcEEEJEERT0_RSt11_Tuple_implIXT_EJS8_DpT1_EE
FN:1314,_ZSt3getILm0EJRKNSt7__cxx1112basic_stringIcSt11char_traitsIcESaIcEEEEERNSt13tuple_elementIXT_ESt5tupleIJDpT0_EEE4typeERSC_
FN:1636,_ZNSt4pairIKNSt7__cxx1112basic_stringIcSt11char_traitsIcESaIcEEEmEC2IJRS6_EJEEESt21piecewise_construct_tSt5tupleIJDpT_EESB_IJDpT0_EE
FN:1648,_ZNSt4pairIKNSt7__cxx1112basic_stringIcSt11char_traitsIcESaIcEEEmEC2IJRS6_EJLm0EEJEJEEERSt5tupleIJDpT_EERSA_IJDpT1_EESt12_Index_tupleIJXspT0_EEESJ_IJXspT2_EEE
FNDA:0,_ZNSt10_Head_baseILm0ERKNSt7__cxx1112basic_stringIcSt11char_traitsIcESaIcEEELb0EEC2ES7_
FNDA:0,_ZNSt10_Head_baseILm0ERKNSt7__cxx1112basic_stringIcSt11char_traitsIcESaIcEEELb0EE7_M_headERS8_
FNDA:0,_ZNSt11_Tuple_implILm0EJRKNSt7__cxx1112basic_stringIcSt11char_traitsIcESaIcEEEEE7_M_headERS8_
FNDA:0,_ZNSt11_Tuple_implILm0EJRKNSt7__cxx1112basic_stringIcSt11char_traitsIcESaIcEEEEEC2ES7_
FNDA:0,_ZNSt11_Tuple_implILm0EJRKNSt7__cxx1112basic_stringIcSt11char_traitsIcESaIcEEEEEC2EOS8_
FNDA:0,_ZNSt5tupleIJRKNSt7__cxx1112basic_stringIcSt11char_traitsIcESaIcEEEEEC2IvLb1EEES7_
FNDA:0,_ZNSt5tupleIJRKNSt7__cxx1112basic_stringIcSt11char_traitsIcESaIcEEEEEC2EOS8_
FNDA:0,_ZSt12__get_helperILm0ERKNSt7__cxx1112basic_stringIcSt11char_traitsIcESaIcEEEJEERT0_RSt11_Tuple_implIXT_EJS8_DpT1_EE
FNDA:0,_ZSt3getILm0EJRKNSt7__cxx1112basic_stringIcSt11char_traitsIcESaIcEEEEERNSt13tuple_elementIXT_ESt5tupleIJDpT0_EEE4typeERSC_
FNDA:0,_ZNSt4pairIKNSt7__cxx1112basic_stringIcSt11char_traitsIcESaIcEEEmEC2IJRS6_EJEEESt21piecewise_construct_tSt5tupleIJDpT_EESB_IJDpT0_EE
FNDA:0,_ZNSt4pairIKNSt7__cxx1112basic_stringIcSt11char_traitsIcESaIcEEEmEC2IJRS6_EJLm0EEJEJEEERSt5tupleIJDpT_EERSA_IJDpT1_EESt12_Index_tupleIJXspT0_EEESJ_IJXspT2_EEE
FNF:11
FNH:0
DA:125,0
DA:126,0
DA:160,0
DA:351,0
DA:360,0
DA:361,0
DA:371,0
DA:373,0
DA:608,0
DA:609,0
DA:662,0
DA:1303,0
DA:1304,0
DA:1314,0
DA:1315,0
DA:1636,0
DA:1641,0
DA:1642,0
DA:1648,0
DA:1651,0
DA:1652,0
DA:1653,0
LF:22
LH:0
end_of_record
SF:/usr/local/include/c++/7.1.0/typeinfo
FN:120,_ZNKSt9type_infoeqERKS_
FNDA:0,_ZNKSt9type_infoeqERKS_
FNF:1
FNH:0
DA:120,0
DA:122,0
DA:123,0
DA:124,0
LF:4
LH:0
end_of_record
TN:
SF:/src/CppUnitTestDemo/OpenCppCoverageDemo/UnitTestConsole/TestSource.cpp
FN:6,_ZN8TestDemo39NORMAL_MESSAGE_TEST_SAY_HELLO_TEST_Test8TestBodyEv
FN:6,_ZN8TestDemo39NORMAL_MESSAGE_TEST_SAY_HELLO_TEST_TestD0Ev
FN:6,_ZN8TestDemo39NORMAL_MESSAGE_TEST_SAY_HELLO_TEST_TestD2Ev
FN:6,_ZN8TestDemo39NORMAL_MESSAGE_TEST_SAY_HELLO_TEST_TestC2Ev
FN:10,_ZN8TestDemo29EQ_CONDITION_ADD_EQ_TEST_TestD0Ev
FN:10,_ZN8TestDemo29EQ_CONDITION_ADD_EQ_TEST_Test8TestBodyEv
FN:10,_ZN8TestDemo29EQ_CONDITION_ADD_EQ_TEST_TestD2Ev
FN:10,_ZN8TestDemo29EQ_CONDITION_ADD_EQ_TEST_TestC2Ev
FN:14,_ZN8TestDemo39NAGTIVE_CONDITION_ADD_NAGTIVE_TEST_TestD2Ev
FN:14,_ZN8TestDemo39NAGTIVE_CONDITION_ADD_NAGTIVE_TEST_TestC2Ev
FN:14,_ZN8TestDemo39NAGTIVE_CONDITION_ADD_NAGTIVE_TEST_Test8TestBodyEv
FN:14,_ZN8TestDemo39NAGTIVE_CONDITION_ADD_NAGTIVE_TEST_TestD0Ev
FN:18,_Z41__static_initialization_and_destruction_0ii
FN:18,_GLOBAL__sub_I__ZN8TestDemo39NORMAL_MESSAGE_TEST_SAY_HELLO_TEST_Test10test_info_E
FNDA:1,_ZN8TestDemo39NORMAL_MESSAGE_TEST_SAY_HELLO_TEST_TestD0Ev
FNDA:1,_ZN8TestDemo39NORMAL_MESSAGE_TEST_SAY_HELLO_TEST_TestD2Ev
FNDA:1,_ZN8TestDemo39NORMAL_MESSAGE_TEST_SAY_HELLO_TEST_Test8TestBodyEv
FNDA:1,_ZN8TestDemo39NORMAL_MESSAGE_TEST_SAY_HELLO_TEST_TestC2Ev
FNDA:1,_ZN8TestDemo29EQ_CONDITION_ADD_EQ_TEST_TestD0Ev
FNDA:1,_ZN8TestDemo29EQ_CONDITION_ADD_EQ_TEST_TestD2Ev
FNDA:1,_ZN8TestDemo29EQ_CONDITION_ADD_EQ_TEST_Test8TestBodyEv
FNDA:1,_ZN8TestDemo29EQ_CONDITION_ADD_EQ_TEST_TestC2Ev
FNDA:1,_ZN8TestDemo39NAGTIVE_CONDITION_ADD_NAGTIVE_TEST_TestD0Ev
FNDA:1,_ZN8TestDemo39NAGTIVE_CONDITION_ADD_NAGTIVE_TEST_TestD2Ev
FNDA:1,_ZN8TestDemo39NAGTIVE_CONDITION_ADD_NAGTIVE_TEST_Test8TestBodyEv
FNDA:1,_ZN8TestDemo39NAGTIVE_CONDITION_ADD_NAGTIVE_TEST_TestC2Ev
FNDA:1,_GLOBAL__sub_I__ZN8TestDemo39NORMAL_MESSAGE_TEST_SAY_HELLO_TEST_Test10test_info_E
FNDA:1,_Z41__static_initialization_and_destruction_0ii
FNF:14
FNH:14
DA:6,5
DA:7,1
DA:10,5
DA:11,1
DA:14,5
DA:15,1
DA:18,3
LF:7
LH:7
end_of_record
SF:/src/CppUnitTestDemo/OpenCppCoverageDemo/imports/googletest/googletest/include/gtest/gtest-message.h
FN:85,_ZN7testing7MessageD2Ev
FNDA:51,_ZN7testing7MessageD2Ev
FNF:1
FNH:1
DA:85,51
LF:1
LH:1
end_of_record
SF:/src/CppUnitTestDemo/OpenCppCoverageDemo/imports/googletest/googletest/include/gtest/gtest-printers.h
FN:222,_ZN16testing_internal26DefaultPrintNonContainerToIiEEvRKT_PSo
FN:275,_ZN7testing8internal19FormatForComparisonIiiE6FormatB5cxx11ERKi
FN:349,_ZN7testing8internal33FormatForComparisonFailureMessageIiiEENSt7__cxx1112basic_stringIcSt11char_traitsIcESaIcEEERKT_RKT0_
FN:436,_ZN7testing8internal14DefaultPrintToIiEEvcNS0_13bool_constantILb0EEERKT_PSo
FN:454,_ZN7testing8internal7PrintToIiEEvRKT_PSo
FN:698,_ZN7testing8internal16UniversalPrinterIiE5PrintERKiPSo
FN:783,_ZN7testing8internal21UniversalTersePrinterIiE5PrintERKiPSo
FN:852,_ZN7testing8internal14UniversalPrintIiEEvRKT_PSo
FN:980,_ZN7testing13PrintToStringIiEENSt7__cxx1112basic_stringIcSt11char_traitsIcESaIcEEERKT_
FNDA:0,_ZN16testing_internal26DefaultPrintNonContainerToIiEEvRKT_PSo
FNDA:0,_ZN7testing8internal19FormatForComparisonIiiE6FormatB5cxx11ERKi
FNDA:0,_ZN7testing8internal33FormatForComparisonFailureMessageIiiEENSt7__cxx1112basic_stringIcSt11char_traitsIcESaIcEEERKT_RKT0_
FNDA:0,_ZN7testing8internal14DefaultPrintToIiEEvcNS0_13bool_constantILb0EEERKT_PSo
FNDA:0,_ZN7testing8internal7PrintToIiEEvRKT_PSo
FNDA:0,_ZN7testing8internal16UniversalPrinterIiE5PrintERKiPSo
FNDA:0,_ZN7testing8internal21UniversalTersePrinterIiE5PrintERKiPSo
FNDA:0,_ZN7testing8internal14UniversalPrintIiEEvRKT_PSo
FNDA:0,_ZN7testing13PrintToStringIiEENSt7__cxx1112basic_stringIcSt11char_traitsIcESaIcEEERKT_
FNF:9
FNH:0
DA:222,0
DA:249,0
DA:250,0
DA:275,0
DA:276,0
DA:349,0
DA:351,0
DA:436,0
DA:439,0
DA:440,0
DA:454,0
DA:477,0
DA:478,0
DA:698,0
DA:707,0
DA:708,0
DA:783,0
DA:784,0
DA:785,0
DA:852,0
DA:856,0
DA:857,0
DA:980,0
DA:981,0
DA:982,0
DA:983,0
LF:26
LH:0
end_of_record
SF:/src/CppUnitTestDemo/OpenCppCoverageDemo/imports/googletest/googletest/include/gtest/gtest.h
FN:256,_ZN7testing15AssertionResultD2Ev
FN:288,_ZNK7testing15AssertionResultcvbEv
FN:297,_ZNK7testing15AssertionResult7messageEv
FN:302,_ZNK7testing15AssertionResult15failure_messageEv
FN:389,_ZN7testing4Test13SetUpTestCaseEv
FN:397,_ZN7testing4Test16TearDownTestCaseEv
FN:474,_ZN7testing4Test5SetupEv
FN:1375,_ZN7testing8internal18CmpHelperEQFailureIiiEENS_15AssertionResultEPKcS4_RKT_RKT0_
FN:1387,_ZN7testing8internal11CmpHelperEQIiiEENS_15AssertionResultEPKcS4_RKT_RKT0_
FN:1417,_ZN7testing8internal8EqHelperILb0EE7CompareIiiEENS_15AssertionResultEPKcS6_RKT_RKT0_
FNDA:2,_ZN7testing15AssertionResultD2Ev
FNDA:2,_ZNK7testing15AssertionResultcvbEv
FNDA:0,_ZNK7testing15AssertionResult7messageEv
FNDA:0,_ZNK7testing15AssertionResult15failure_messageEv
FNDA:3,_ZN7testing4Test13SetUpTestCaseEv
FNDA:3,_ZN7testing4Test16TearDownTestCaseEv
FNDA:0,_ZN7testing4Test5SetupEv
FNDA:0,_ZN7testing8internal18CmpHelperEQFailureIiiEENS_15AssertionResultEPKcS4_RKT_RKT0_
FNDA:2,_ZN7testing8internal11CmpHelperEQIiiEENS_15AssertionResultEPKcS4_RKT_RKT0_
FNDA:2,_ZN7testing8internal8EqHelperILb0EE7CompareIiiEENS_15AssertionResultEPKcS6_RKT_RKT0_
FNF:10
FNH:6
DA:256,2
DA:288,2
DA:297,0
DA:298,0
DA:302,0
DA:389,3
DA:397,3
DA:474,0
DA:1375,0
DA:1382,0
DA:1387,2
DA:1392,2
DA:1393,2
DA:1397,0
DA:1417,2
DA:1421,2
LF:16
LH:9
end_of_record
SF:/src/CppUnitTestDemo/OpenCppCoverageDemo/imports/googletest/googletest/include/gtest/internal/gtest-internal.h
FN:466,_ZN7testing8internal15TestFactoryBaseD2Ev
FN:466,_ZN7testing8internal15TestFactoryBaseD0Ev
FN:473,_ZN7testing8internal15TestFactoryBaseC2Ev
FN:482,_ZN7testing8internal15TestFactoryImplIN8TestDemo39NORMAL_MESSAGE_TEST_SAY_HELLO_TEST_TestEEC2Ev
FN:482,_ZN7testing8internal15TestFactoryImplIN8TestDemo39NAGTIVE_CONDITION_ADD_NAGTIVE_TEST_TestEED2Ev
FN:482,_ZN7testing8internal15TestFactoryImplIN8TestDemo39NORMAL_MESSAGE_TEST_SAY_HELLO_TEST_TestEED0Ev
FN:482,_ZN7testing8internal15TestFactoryImplIN8TestDemo39NORMAL_MESSAGE_TEST_SAY_HELLO_TEST_TestEED2Ev
FN:482,_ZN7testing8internal15TestFactoryImplIN8TestDemo29EQ_CONDITION_ADD_EQ_TEST_TestEEC2Ev
FN:482,_ZN7testing8internal15TestFactoryImplIN8TestDemo29EQ_CONDITION_ADD_EQ_TEST_TestEED2Ev
FN:482,_ZN7testing8internal15TestFactoryImplIN8TestDemo39NAGTIVE_CONDITION_ADD_NAGTIVE_TEST_TestEED0Ev
FN:482,_ZN7testing8internal15TestFactoryImplIN8TestDemo39NAGTIVE_CONDITION_ADD_NAGTIVE_TEST_TestEEC2Ev
FN:482,_ZN7testing8internal15TestFactoryImplIN8TestDemo29EQ_CONDITION_ADD_EQ_TEST_TestEED0Ev
FN:484,_ZN7testing8internal15TestFactoryImplIN8TestDemo29EQ_CONDITION_ADD_EQ_TEST_TestEE10CreateTestEv
FN:484,_ZN7testing8internal15TestFactoryImplIN8TestDemo39NORMAL_MESSAGE_TEST_SAY_HELLO_TEST_TestEE10CreateTestEv
FN:484,_ZN7testing8internal15TestFactoryImplIN8TestDemo39NAGTIVE_CONDITION_ADD_NAGTIVE_TEST_TestEE10CreateTestEv
FN:504,_ZN7testing8internal12CodeLocationD2Ev
FN:505,_ZN7testing8internal12CodeLocationC2ERKNSt7__cxx1112basic_stringIcSt11char_traitsIcESaIcEEEi
FN:940,_ZN7testing8internal15IsContainerTestIiEEcl
FNDA:0,_ZN7testing8internal15TestFactoryBaseD0Ev
FNDA:3,_ZN7testing8internal15TestFactoryBaseD2Ev
FNDA:3,_ZN7testing8internal15TestFactoryBaseC2Ev
FNDA:1,_ZN7testing8internal15TestFactoryImplIN8TestDemo39NORMAL_MESSAGE_TEST_SAY_HELLO_TEST_TestEED0Ev
FNDA:1,_ZN7testing8internal15TestFactoryImplIN8TestDemo39NORMAL_MESSAGE_TEST_SAY_HELLO_TEST_TestEED2Ev
FNDA:1,_ZN7testing8internal15TestFactoryImplIN8TestDemo29EQ_CONDITION_ADD_EQ_TEST_TestEED0Ev
FNDA:1,_ZN7testing8internal15TestFactoryImplIN8TestDemo29EQ_CONDITION_ADD_EQ_TEST_TestEED2Ev
FNDA:1,_ZN7testing8internal15TestFactoryImplIN8TestDemo39NAGTIVE_CONDITION_ADD_NAGTIVE_TEST_TestEED0Ev
FNDA:1,_ZN7testing8internal15TestFactoryImplIN8TestDemo39NAGTIVE_CONDITION_ADD_NAGTIVE_TEST_TestEED2Ev
FNDA:1,_ZN7testing8internal15TestFactoryImplIN8TestDemo39NAGTIVE_CONDITION_ADD_NAGTIVE_TEST_TestEEC2Ev
FNDA:1,_ZN7testing8internal15TestFactoryImplIN8TestDemo29EQ_CONDITION_ADD_EQ_TEST_TestEEC2Ev
FNDA:1,_ZN7testing8internal15TestFactoryImplIN8TestDemo39NORMAL_MESSAGE_TEST_SAY_HELLO_TEST_TestEEC2Ev
FNDA:1,_ZN7testing8internal15TestFactoryImplIN8TestDemo39NORMAL_MESSAGE_TEST_SAY_HELLO_TEST_TestEE10CreateTestEv
FNDA:1,_ZN7testing8internal15TestFactoryImplIN8TestDemo29EQ_CONDITION_ADD_EQ_TEST_TestEE10CreateTestEv
FNDA:1,_ZN7testing8internal15TestFactoryImplIN8TestDemo39NAGTIVE_CONDITION_ADD_NAGTIVE_TEST_TestEE10CreateTestEv
FNDA:9,_ZN7testing8internal12CodeLocationD2Ev
FNDA:3,_ZN7testing8internal12CodeLocationC2ERKNSt7__cxx1112basic_stringIcSt11char_traitsIcESaIcEEEi
FNDA:0,_ZN7testing8internal15IsContainerTestIiEEcl
FNF:18
FNH:16
DA:466,3
DA:473,3
DA:482,9
DA:484,3
DA:504,9
DA:505,3
DA:940,0
LF:7
LH:6
end_of_record
SF:/src/CppUnitTestDemo/OpenCppCoverageDemo/imports/googletest/googletest/include/gtest/internal/gtest-port.h
FN:1120,_ZN7testing8internal10scoped_ptrINSt7__cxx1112basic_stringIcSt11char_traitsIcESaIcEEEED2Ev
FN:1120,_ZN7testing8internal10scoped_ptrINSt7__cxx1118basic_stringstreamIcSt11char_traitsIcESaIcEEEED2Ev
FN:1123,_ZNK7testing8internal10scoped_ptrINSt7__cxx1112basic_stringIcSt11char_traitsIcESaIcEEEEptEv
FN:1124,_ZNK7testing8internal10scoped_ptrINSt7__cxx1112basic_stringIcSt11char_traitsIcESaIcEEEE3getEv
FN:1132,_ZN7testing8internal10scoped_ptrINSt7__cxx1118basic_stringstreamIcSt11char_traitsIcESaIcEEEE5resetEPS7_
FN:1132,_ZN7testing8internal10scoped_ptrINSt7__cxx1112basic_stringIcSt11char_traitsIcESaIcEEEE5resetEPS7_
FNDA:2,_ZN7testing8internal10scoped_ptrINSt7__cxx1112basic_stringIcSt11char_traitsIcESaIcEEEED2Ev
FNDA:51,_ZN7testing8internal10scoped_ptrINSt7__cxx1118basic_stringstreamIcSt11char_traitsIcESaIcEEEED2Ev
FNDA:0,_ZNK7testing8internal10scoped_ptrINSt7__cxx1112basic_stringIcSt11char_traitsIcESaIcEEEEptEv
FNDA:0,_ZNK7testing8internal10scoped_ptrINSt7__cxx1112basic_stringIcSt11char_traitsIcESaIcEEEE3getEv
FNDA:51,_ZN7testing8internal10scoped_ptrINSt7__cxx1118basic_stringstreamIcSt11char_traitsIcESaIcEEEE5resetEPS7_
FNDA:2,_ZN7testing8internal10scoped_ptrINSt7__cxx1112basic_stringIcSt11char_traitsIcESaIcEEEE5resetEPS7_
FNF:6
FNH:4
DA:1120,53
DA:1123,0
DA:1124,0
DA:1132,53
DA:1133,53
DA:1134,51
DA:1135,51
DA:1137,51
DA:1139,53
LF:9
LH:7
end_of_record
SF:/usr/local/include/c++/7.1.0/bits/ios_base.h
FN:129,_ZStorSt13_Ios_OpenmodeS_
FNDA:51,_ZStorSt13_Ios_OpenmodeS_
FNF:1
FNH:1
DA:129,51
DA:130,51
LF:2
LH:2
end_of_record
SF:/usr/local/include/c++/7.1.0/iostream
DA:74,1
LF:1
LH:1
end_of_record
